
assign0x04:     file format elf32-littlearm


Disassembly of section .init:

00010118 <_init>:
   10118:	e92d4008 	push	{r3, lr}
   1011c:	eb00009a 	bl	1038c <call_weak_fn>
   10120:	e8bd8008 	pop	{r3, pc}

Disassembly of section .text:

00010130 <abort>:
   10130:	e59f41ec 	ldr	r4, [pc, #492]	; 10324 <abort+0x1f4>
   10134:	e59f31ec 	ldr	r3, [pc, #492]	; 10328 <abort+0x1f8>
   10138:	e92d4080 	push	{r7, lr}
   1013c:	eb0005a3 	bl	117d0 <__aeabi_read_tp>
   10140:	e5942008 	ldr	r2, [r4, #8]
   10144:	e24dde11 	sub	sp, sp, #272	; 0x110
   10148:	e2405d13 	sub	r5, r0, #1216	; 0x4c0
   1014c:	e5933000 	ldr	r3, [r3]
   10150:	e1520005 	cmp	r2, r5
   10154:	e58d310c 	str	r3, [sp, #268]	; 0x10c
   10158:	0a00000b 	beq	1018c <abort+0x5c>
   1015c:	e3a03001 	mov	r3, #1
   10160:	e1942f9f 	ldrex	r2, [r4]
   10164:	e3520000 	cmp	r2, #0
   10168:	1a000003 	bne	1017c <abort+0x4c>
   1016c:	e1841f93 	strex	r1, r3, [r4]
   10170:	e3510000 	cmp	r1, #0
   10174:	1afffff9 	bne	10160 <abort+0x30>
   10178:	ee070fba 	mcr	15, 0, r0, cr7, cr10, {5}
   1017c:	0a000001 	beq	10188 <abort+0x58>
   10180:	e1a00004 	mov	r0, r4
   10184:	eb006bfb 	bl	2b178 <__lll_lock_wait_private>
   10188:	e5845008 	str	r5, [r4, #8]
   1018c:	e5942004 	ldr	r2, [r4, #4]
   10190:	e594300c 	ldr	r3, [r4, #12]
   10194:	e2822001 	add	r2, r2, #1
   10198:	e3530000 	cmp	r3, #0
   1019c:	e5842004 	str	r2, [r4, #4]
   101a0:	1a00000d 	bne	101dc <abort+0xac>
   101a4:	e1a02003 	mov	r2, r3
   101a8:	e3a03020 	mov	r3, #32
   101ac:	e3a01001 	mov	r1, #1
   101b0:	e584100c 	str	r1, [r4, #12]
   101b4:	e2533001 	subs	r3, r3, #1
   101b8:	278d2103 	strcs	r2, [sp, r3, lsl #2]
   101bc:	2afffffc 	bcs	101b4 <abort+0x84>
   101c0:	e59d3000 	ldr	r3, [sp]
   101c4:	e1a0100d 	mov	r1, sp
   101c8:	e3833020 	orr	r3, r3, #32
   101cc:	e3a02000 	mov	r2, #0
   101d0:	e3a00001 	mov	r0, #1
   101d4:	e58d3000 	str	r3, [sp]
   101d8:	eb009e36 	bl	37ab8 <__sigprocmask>
   101dc:	e594200c 	ldr	r2, [r4, #12]
   101e0:	e3520001 	cmp	r2, #1
   101e4:	1a000027 	bne	10288 <abort+0x158>
   101e8:	e5943004 	ldr	r3, [r4, #4]
   101ec:	e3a01000 	mov	r1, #0
   101f0:	e2433001 	sub	r3, r3, #1
   101f4:	e1530001 	cmp	r3, r1
   101f8:	e5843004 	str	r3, [r4, #4]
   101fc:	e584100c 	str	r1, [r4, #12]
   10200:	1a00000b 	bne	10234 <abort+0x104>
   10204:	e5843008 	str	r3, [r4, #8]
   10208:	ee070fba 	mcr	15, 0, r0, cr7, cr10, {5}
   1020c:	e1941f9f 	ldrex	r1, [r4]
   10210:	e1840f93 	strex	r0, r3, [r4]
   10214:	e3500000 	cmp	r0, #0
   10218:	1afffffb 	bne	1020c <abort+0xdc>
   1021c:	e3510001 	cmp	r1, #1
   10220:	da000003 	ble	10234 <abort+0x104>
   10224:	e59f00f8 	ldr	r0, [pc, #248]	; 10324 <abort+0x1f4>
   10228:	e3a01081 	mov	r1, #129	; 0x81
   1022c:	e3a070f0 	mov	r7, #240	; 0xf0
   10230:	ef000000 	svc	0x00000000
   10234:	e3a00006 	mov	r0, #6
   10238:	eb009d8d 	bl	37874 <raise>
   1023c:	e5943008 	ldr	r3, [r4, #8]
   10240:	e1530005 	cmp	r3, r5
   10244:	0a00000b 	beq	10278 <abort+0x148>
   10248:	e3a03001 	mov	r3, #1
   1024c:	e1942f9f 	ldrex	r2, [r4]
   10250:	e3520000 	cmp	r2, #0
   10254:	1a000003 	bne	10268 <abort+0x138>
   10258:	e1841f93 	strex	r1, r3, [r4]
   1025c:	e3510000 	cmp	r1, #0
   10260:	1afffff9 	bne	1024c <abort+0x11c>
   10264:	ee070fba 	mcr	15, 0, r0, cr7, cr10, {5}
   10268:	0a000001 	beq	10274 <abort+0x144>
   1026c:	e59f00b0 	ldr	r0, [pc, #176]	; 10324 <abort+0x1f4>
   10270:	eb006bc0 	bl	2b178 <__lll_lock_wait_private>
   10274:	e5845008 	str	r5, [r4, #8]
   10278:	e5943004 	ldr	r3, [r4, #4]
   1027c:	e2833001 	add	r3, r3, #1
   10280:	e5843004 	str	r3, [r4, #4]
   10284:	ea000001 	b	10290 <abort+0x160>
   10288:	e3520002 	cmp	r2, #2
   1028c:	1a000010 	bne	102d4 <abort+0x1a4>
   10290:	e28d5080 	add	r5, sp, #128	; 0x80
   10294:	e3a03003 	mov	r3, #3
   10298:	e3a0208c 	mov	r2, #140	; 0x8c
   1029c:	e1a00005 	mov	r0, r5
   102a0:	e3a01000 	mov	r1, #0
   102a4:	e584300c 	str	r3, [r4, #12]
   102a8:	eb005d00 	bl	276b0 <memset>
   102ac:	e3a03021 	mov	r3, #33	; 0x21
   102b0:	e3e02000 	mvn	r2, #0
   102b4:	e2533001 	subs	r3, r3, #1
   102b8:	17852103 	strne	r2, [r5, r3, lsl #2]
   102bc:	1afffffc 	bne	102b4 <abort+0x184>
   102c0:	e1a01005 	mov	r1, r5
   102c4:	e1a02003 	mov	r2, r3
   102c8:	e3a00006 	mov	r0, #6
   102cc:	e58d3104 	str	r3, [sp, #260]	; 0x104
   102d0:	eb009de8 	bl	37a78 <__sigaction>
   102d4:	e594300c 	ldr	r3, [r4, #12]
   102d8:	e3530003 	cmp	r3, #3
   102dc:	1a000003 	bne	102f0 <abort+0x1c0>
   102e0:	e3a03004 	mov	r3, #4
   102e4:	e3a00006 	mov	r0, #6
   102e8:	e584300c 	str	r3, [r4, #12]
   102ec:	eb009d60 	bl	37874 <raise>
   102f0:	e594300c 	ldr	r3, [r4, #12]
   102f4:	e3530004 	cmp	r3, #4
   102f8:	1a000002 	bne	10308 <abort+0x1d8>
   102fc:	e3a03005 	mov	r3, #5
   10300:	e584300c 	str	r3, [r4, #12]
   10304:	e7f000f0 	udf	#0
   10308:	e3530005 	cmp	r3, #5
   1030c:	1a000003 	bne	10320 <abort+0x1f0>
   10310:	e3a03006 	mov	r3, #6
   10314:	e3a0007f 	mov	r0, #127	; 0x7f
   10318:	e584300c 	str	r3, [r4, #12]
   1031c:	eb006020 	bl	283a4 <_exit>
   10320:	e7f000f0 	udf	#0
   10324:	00083620 	.word	0x00083620
   10328:	00082000 	.word	0x00082000

0001032c <_dl_start>:
   1032c:	e92d4010 	push	{r4, lr}
   10330:	ebffff7e 	bl	10130 <abort>

00010334 <_Unwind_GetDataRelBase>:
   10334:	e92d4010 	push	{r4, lr}
   10338:	ebffff7c 	bl	10130 <abort>

0001033c <_Unwind_GetTextRelBase>:
   1033c:	e92d4010 	push	{r4, lr}
   10340:	ebfffffb 	bl	10334 <_Unwind_GetDataRelBase>

00010344 <fini>:
   10344:	e59f0000 	ldr	r0, [pc]	; 1034c <fini+0x8>
   10348:	ea01520d 	b	64b84 <check_free.isra.0>
   1034c:	00083a44 	.word	0x00083a44

00010350 <_start>:
   10350:	e3a0b000 	mov	fp, #0
   10354:	e3a0e000 	mov	lr, #0
   10358:	e49d1004 	pop	{r1}		; (ldr r1, [sp], #4)
   1035c:	e1a0200d 	mov	r2, sp
   10360:	e52d2004 	push	{r2}		; (str r2, [sp, #-4]!)
   10364:	e52d0004 	push	{r0}		; (str r0, [sp, #-4]!)
   10368:	e59fc010 	ldr	ip, [pc, #16]	; 10380 <_start+0x30>
   1036c:	e52dc004 	push	{ip}		; (str ip, [sp, #-4]!)
   10370:	e59f000c 	ldr	r0, [pc, #12]	; 10384 <_start+0x34>
   10374:	e59f300c 	ldr	r3, [pc, #12]	; 10388 <_start+0x38>
   10378:	eb000312 	bl	10fc8 <__libc_start_main>
   1037c:	ebffff6b 	bl	10130 <abort>
   10380:	0001176c 	.word	0x0001176c
   10384:	00010d14 	.word	0x00010d14
   10388:	000116cc 	.word	0x000116cc

0001038c <call_weak_fn>:
   1038c:	e59f3014 	ldr	r3, [pc, #20]	; 103a8 <call_weak_fn+0x1c>
   10390:	e59f2014 	ldr	r2, [pc, #20]	; 103ac <call_weak_fn+0x20>
   10394:	e08f3003 	add	r3, pc, r3
   10398:	e7932002 	ldr	r2, [r3, r2]
   1039c:	e3520000 	cmp	r2, #0
   103a0:	012fff1e 	bxeq	lr
   103a4:	e1a00000 	nop			; (mov r0, r0)
   103a8:	000720c8 	.word	0x000720c8
   103ac:	00000080 	.word	0x00000080

000103b0 <deregister_tm_clones>:
   103b0:	e59f0018 	ldr	r0, [pc, #24]	; 103d0 <deregister_tm_clones+0x20>
   103b4:	e59f3018 	ldr	r3, [pc, #24]	; 103d4 <deregister_tm_clones+0x24>
   103b8:	e1530000 	cmp	r3, r0
   103bc:	012fff1e 	bxeq	lr
   103c0:	e59f3010 	ldr	r3, [pc, #16]	; 103d8 <deregister_tm_clones+0x28>
   103c4:	e3530000 	cmp	r3, #0
   103c8:	012fff1e 	bxeq	lr
   103cc:	e12fff13 	bx	r3
   103d0:	00083348 	.word	0x00083348
   103d4:	00083348 	.word	0x00083348
   103d8:	00000000 	.word	0x00000000

000103dc <register_tm_clones>:
   103dc:	e59f0024 	ldr	r0, [pc, #36]	; 10408 <register_tm_clones+0x2c>
   103e0:	e59f1024 	ldr	r1, [pc, #36]	; 1040c <register_tm_clones+0x30>
   103e4:	e0411000 	sub	r1, r1, r0
   103e8:	e1a01141 	asr	r1, r1, #2
   103ec:	e0811fa1 	add	r1, r1, r1, lsr #31
   103f0:	e1b010c1 	asrs	r1, r1, #1
   103f4:	012fff1e 	bxeq	lr
   103f8:	e59f3010 	ldr	r3, [pc, #16]	; 10410 <register_tm_clones+0x34>
   103fc:	e3530000 	cmp	r3, #0
   10400:	012fff1e 	bxeq	lr
   10404:	e12fff13 	bx	r3
   10408:	00083348 	.word	0x00083348
   1040c:	00083348 	.word	0x00083348
   10410:	00000000 	.word	0x00000000

00010414 <__do_global_dtors_aux>:
   10414:	e92d4010 	push	{r4, lr}
   10418:	e59f402c 	ldr	r4, [pc, #44]	; 1044c <__do_global_dtors_aux+0x38>
   1041c:	e5d43000 	ldrb	r3, [r4]
   10420:	e3530000 	cmp	r3, #0
   10424:	18bd8010 	popne	{r4, pc}
   10428:	ebffffe0 	bl	103b0 <deregister_tm_clones>
   1042c:	e59f301c 	ldr	r3, [pc, #28]	; 10450 <__do_global_dtors_aux+0x3c>
   10430:	e3530000 	cmp	r3, #0
   10434:	0a000001 	beq	10440 <__do_global_dtors_aux+0x2c>
   10438:	e59f0014 	ldr	r0, [pc, #20]	; 10454 <__do_global_dtors_aux+0x40>
   1043c:	e1a00000 	nop			; (mov r0, r0)
   10440:	e3a03001 	mov	r3, #1
   10444:	e5c43000 	strb	r3, [r4]
   10448:	e8bd8010 	pop	{r4, pc}
   1044c:	00083348 	.word	0x00083348
   10450:	00000000 	.word	0x00000000
   10454:	00081fe0 	.word	0x00081fe0

00010458 <frame_dummy>:
   10458:	e59f3020 	ldr	r3, [pc, #32]	; 10480 <frame_dummy+0x28>
   1045c:	e3530000 	cmp	r3, #0
   10460:	0a000005 	beq	1047c <frame_dummy+0x24>
   10464:	e92d4010 	push	{r4, lr}
   10468:	e59f1014 	ldr	r1, [pc, #20]	; 10484 <frame_dummy+0x2c>
   1046c:	e59f0014 	ldr	r0, [pc, #20]	; 10488 <frame_dummy+0x30>
   10470:	e1a00000 	nop			; (mov r0, r0)
   10474:	e8bd4010 	pop	{r4, lr}
   10478:	eaffffd7 	b	103dc <register_tm_clones>
   1047c:	eaffffd6 	b	103dc <register_tm_clones>
   10480:	00000000 	.word	0x00000000
   10484:	0008334c 	.word	0x0008334c
   10488:	00081fe0 	.word	0x00081fe0

0001048c <handleBCallout>:
   1048c:	e92d4800 	push	{fp, lr}
   10490:	e28db004 	add	fp, sp, #4
   10494:	e24dd010 	sub	sp, sp, #16
   10498:	e50b0010 	str	r0, [fp, #-16]
   1049c:	e59f0090 	ldr	r0, [pc, #144]	; 10534 <handleBCallout+0xa8>
   104a0:	eb0020d7 	bl	18804 <_IO_puts>
   104a4:	eb00015e 	bl	10a24 <restoreInstr>
   104a8:	e3a03000 	mov	r3, #0
   104ac:	e50b300c 	str	r3, [fp, #-12]
   104b0:	e59f3080 	ldr	r3, [pc, #128]	; 10538 <handleBCallout+0xac>
   104b4:	e5933000 	ldr	r3, [r3]
   104b8:	e2833008 	add	r3, r3, #8
   104bc:	e50b300c 	str	r3, [fp, #-12]
   104c0:	e59f3074 	ldr	r3, [pc, #116]	; 1053c <handleBCallout+0xb0>
   104c4:	e5933000 	ldr	r3, [r3]
   104c8:	e3c334ff 	bic	r3, r3, #-16777216	; 0xff000000
   104cc:	e50b3008 	str	r3, [fp, #-8]
   104d0:	e51b3008 	ldr	r3, [fp, #-8]
   104d4:	e1a03bc3 	asr	r3, r3, #23
   104d8:	e2033001 	and	r3, r3, #1
   104dc:	e3530000 	cmp	r3, #0
   104e0:	0a000002 	beq	104f0 <handleBCallout+0x64>
   104e4:	e51b3008 	ldr	r3, [fp, #-8]
   104e8:	e38334ff 	orr	r3, r3, #-16777216	; 0xff000000
   104ec:	e50b3008 	str	r3, [fp, #-8]
   104f0:	e51b3008 	ldr	r3, [fp, #-8]
   104f4:	e1a03103 	lsl	r3, r3, #2
   104f8:	e50b3008 	str	r3, [fp, #-8]
   104fc:	e51b3008 	ldr	r3, [fp, #-8]
   10500:	e51b200c 	ldr	r2, [fp, #-12]
   10504:	e0823003 	add	r3, r2, r3
   10508:	e50b300c 	str	r3, [fp, #-12]
   1050c:	e51b3010 	ldr	r3, [fp, #-16]
   10510:	e51b200c 	ldr	r2, [fp, #-12]
   10514:	e5832040 	str	r2, [r3, #64]	; 0x40
   10518:	e51b000c 	ldr	r0, [fp, #-12]
   1051c:	eb00016c 	bl	10ad4 <patchNextCFlow>
   10520:	e59f0018 	ldr	r0, [pc, #24]	; 10540 <handleBCallout+0xb4>
   10524:	eb0020b6 	bl	18804 <_IO_puts>
   10528:	e1a00000 	nop			; (mov r0, r0)
   1052c:	e24bd004 	sub	sp, fp, #4
   10530:	e8bd8800 	pop	{fp, pc}
   10534:	0006c80c 	.word	0x0006c80c
   10538:	00083b0c 	.word	0x00083b0c
   1053c:	00083b08 	.word	0x00083b08
   10540:	0006c820 	.word	0x0006c820

00010544 <handleBxCallout>:
   10544:	e92d4800 	push	{fp, lr}
   10548:	e28db004 	add	fp, sp, #4
   1054c:	e24dd008 	sub	sp, sp, #8
   10550:	e50b0008 	str	r0, [fp, #-8]
   10554:	e59f0058 	ldr	r0, [pc, #88]	; 105b4 <handleBxCallout+0x70>
   10558:	eb0020a9 	bl	18804 <_IO_puts>
   1055c:	eb000130 	bl	10a24 <restoreInstr>
   10560:	e51b3008 	ldr	r3, [fp, #-8]
   10564:	e593303c 	ldr	r3, [r3, #60]	; 0x3c
   10568:	e1a02003 	mov	r2, r3
   1056c:	e51b3008 	ldr	r3, [fp, #-8]
   10570:	e5832040 	str	r2, [r3, #64]	; 0x40
   10574:	e51b3008 	ldr	r3, [fp, #-8]
   10578:	e593303c 	ldr	r3, [r3, #60]	; 0x3c
   1057c:	e1a02003 	mov	r2, r3
   10580:	e59f3030 	ldr	r3, [pc, #48]	; 105b8 <handleBxCallout+0x74>
   10584:	e5933000 	ldr	r3, [r3]
   10588:	e1520003 	cmp	r2, r3
   1058c:	8a000003 	bhi	105a0 <handleBxCallout+0x5c>
   10590:	e51b3008 	ldr	r3, [fp, #-8]
   10594:	e593303c 	ldr	r3, [r3, #60]	; 0x3c
   10598:	e1a00003 	mov	r0, r3
   1059c:	eb00014c 	bl	10ad4 <patchNextCFlow>
   105a0:	e59f0014 	ldr	r0, [pc, #20]	; 105bc <handleBxCallout+0x78>
   105a4:	eb002096 	bl	18804 <_IO_puts>
   105a8:	e1a00000 	nop			; (mov r0, r0)
   105ac:	e24bd004 	sub	sp, fp, #4
   105b0:	e8bd8800 	pop	{fp, pc}
   105b4:	0006c82c 	.word	0x0006c82c
   105b8:	00083b10 	.word	0x00083b10
   105bc:	0006c840 	.word	0x0006c840

000105c0 <handleBgtCallout>:
   105c0:	e92d4800 	push	{fp, lr}
   105c4:	e28db004 	add	fp, sp, #4
   105c8:	e24dd010 	sub	sp, sp, #16
   105cc:	e50b0010 	str	r0, [fp, #-16]
   105d0:	e59f00e4 	ldr	r0, [pc, #228]	; 106bc <handleBgtCallout+0xfc>
   105d4:	eb00208a 	bl	18804 <_IO_puts>
   105d8:	eb000111 	bl	10a24 <restoreInstr>
   105dc:	e3a03000 	mov	r3, #0
   105e0:	e50b3008 	str	r3, [fp, #-8]
   105e4:	e51b3010 	ldr	r3, [fp, #-16]
   105e8:	e5933000 	ldr	r3, [r3]
   105ec:	e2033101 	and	r3, r3, #1073741824	; 0x40000000
   105f0:	e3530000 	cmp	r3, #0
   105f4:	1a000020 	bne	1067c <handleBgtCallout+0xbc>
   105f8:	e51b3010 	ldr	r3, [fp, #-16]
   105fc:	e5933000 	ldr	r3, [r3]
   10600:	e1a02fa3 	lsr	r2, r3, #31
   10604:	e51b3010 	ldr	r3, [fp, #-16]
   10608:	e5933000 	ldr	r3, [r3]
   1060c:	e1a03e23 	lsr	r3, r3, #28
   10610:	e2033001 	and	r3, r3, #1
   10614:	e1520003 	cmp	r2, r3
   10618:	1a000017 	bne	1067c <handleBgtCallout+0xbc>
   1061c:	e59f309c 	ldr	r3, [pc, #156]	; 106c0 <handleBgtCallout+0x100>
   10620:	e5933000 	ldr	r3, [r3]
   10624:	e2833008 	add	r3, r3, #8
   10628:	e50b3008 	str	r3, [fp, #-8]
   1062c:	e59f3090 	ldr	r3, [pc, #144]	; 106c4 <handleBgtCallout+0x104>
   10630:	e5933000 	ldr	r3, [r3]
   10634:	e3c334ff 	bic	r3, r3, #-16777216	; 0xff000000
   10638:	e50b300c 	str	r3, [fp, #-12]
   1063c:	e51b300c 	ldr	r3, [fp, #-12]
   10640:	e1a03bc3 	asr	r3, r3, #23
   10644:	e2033001 	and	r3, r3, #1
   10648:	e3530000 	cmp	r3, #0
   1064c:	0a000002 	beq	1065c <handleBgtCallout+0x9c>
   10650:	e51b300c 	ldr	r3, [fp, #-12]
   10654:	e38334ff 	orr	r3, r3, #-16777216	; 0xff000000
   10658:	e50b300c 	str	r3, [fp, #-12]
   1065c:	e51b300c 	ldr	r3, [fp, #-12]
   10660:	e1a03103 	lsl	r3, r3, #2
   10664:	e50b300c 	str	r3, [fp, #-12]
   10668:	e51b300c 	ldr	r3, [fp, #-12]
   1066c:	e51b2008 	ldr	r2, [fp, #-8]
   10670:	e0823003 	add	r3, r2, r3
   10674:	e50b3008 	str	r3, [fp, #-8]
   10678:	ea000003 	b	1068c <handleBgtCallout+0xcc>
   1067c:	e59f303c 	ldr	r3, [pc, #60]	; 106c0 <handleBgtCallout+0x100>
   10680:	e5933000 	ldr	r3, [r3]
   10684:	e2833004 	add	r3, r3, #4
   10688:	e50b3008 	str	r3, [fp, #-8]
   1068c:	e51b3010 	ldr	r3, [fp, #-16]
   10690:	e51b2008 	ldr	r2, [fp, #-8]
   10694:	e5832040 	str	r2, [r3, #64]	; 0x40
   10698:	e51b3008 	ldr	r3, [fp, #-8]
   1069c:	e59f2024 	ldr	r2, [pc, #36]	; 106c8 <handleBgtCallout+0x108>
   106a0:	e1530002 	cmp	r3, r2
   106a4:	0a000001 	beq	106b0 <handleBgtCallout+0xf0>
   106a8:	e51b0008 	ldr	r0, [fp, #-8]
   106ac:	eb000108 	bl	10ad4 <patchNextCFlow>
   106b0:	e1a00000 	nop			; (mov r0, r0)
   106b4:	e24bd004 	sub	sp, fp, #4
   106b8:	e8bd8800 	pop	{fp, pc}
   106bc:	0006c84c 	.word	0x0006c84c
   106c0:	00083b0c 	.word	0x00083b0c
   106c4:	00083b08 	.word	0x00083b08
   106c8:	00010c80 	.word	0x00010c80

000106cc <handleBlCallout>:
   106cc:	e92d4800 	push	{fp, lr}
   106d0:	e28db004 	add	fp, sp, #4
   106d4:	e24dd010 	sub	sp, sp, #16
   106d8:	e50b0010 	str	r0, [fp, #-16]
   106dc:	e59f0098 	ldr	r0, [pc, #152]	; 1077c <handleBlCallout+0xb0>
   106e0:	eb002047 	bl	18804 <_IO_puts>
   106e4:	eb0000ce 	bl	10a24 <restoreInstr>
   106e8:	e3a03000 	mov	r3, #0
   106ec:	e50b300c 	str	r3, [fp, #-12]
   106f0:	e59f3088 	ldr	r3, [pc, #136]	; 10780 <handleBlCallout+0xb4>
   106f4:	e5933000 	ldr	r3, [r3]
   106f8:	e2833008 	add	r3, r3, #8
   106fc:	e50b300c 	str	r3, [fp, #-12]
   10700:	e59f307c 	ldr	r3, [pc, #124]	; 10784 <handleBlCallout+0xb8>
   10704:	e5933000 	ldr	r3, [r3]
   10708:	e3c334ff 	bic	r3, r3, #-16777216	; 0xff000000
   1070c:	e50b3008 	str	r3, [fp, #-8]
   10710:	e51b3008 	ldr	r3, [fp, #-8]
   10714:	e1a03bc3 	asr	r3, r3, #23
   10718:	e2033001 	and	r3, r3, #1
   1071c:	e3530000 	cmp	r3, #0
   10720:	0a000002 	beq	10730 <handleBlCallout+0x64>
   10724:	e51b3008 	ldr	r3, [fp, #-8]
   10728:	e38334ff 	orr	r3, r3, #-16777216	; 0xff000000
   1072c:	e50b3008 	str	r3, [fp, #-8]
   10730:	e51b3008 	ldr	r3, [fp, #-8]
   10734:	e1a03103 	lsl	r3, r3, #2
   10738:	e50b3008 	str	r3, [fp, #-8]
   1073c:	e51b3008 	ldr	r3, [fp, #-8]
   10740:	e51b200c 	ldr	r2, [fp, #-12]
   10744:	e0823003 	add	r3, r2, r3
   10748:	e50b300c 	str	r3, [fp, #-12]
   1074c:	e51b3010 	ldr	r3, [fp, #-16]
   10750:	e51b200c 	ldr	r2, [fp, #-12]
   10754:	e5832040 	str	r2, [r3, #64]	; 0x40
   10758:	e51b300c 	ldr	r3, [fp, #-12]
   1075c:	e59f2024 	ldr	r2, [pc, #36]	; 10788 <handleBlCallout+0xbc>
   10760:	e1530002 	cmp	r3, r2
   10764:	0a000001 	beq	10770 <handleBlCallout+0xa4>
   10768:	e51b000c 	ldr	r0, [fp, #-12]
   1076c:	eb0000d8 	bl	10ad4 <patchNextCFlow>
   10770:	e1a00000 	nop			; (mov r0, r0)
   10774:	e24bd004 	sub	sp, fp, #4
   10778:	e8bd8800 	pop	{fp, pc}
   1077c:	0006c864 	.word	0x0006c864
   10780:	00083b0c 	.word	0x00083b0c
   10784:	00083b08 	.word	0x00083b08
   10788:	00010c80 	.word	0x00010c80

0001078c <__patchToCallout>:
   1078c:	e92d4800 	push	{fp, lr}
   10790:	e28db004 	add	fp, sp, #4
   10794:	e24dd028 	sub	sp, sp, #40	; 0x28
   10798:	e50b0020 	str	r0, [fp, #-32]	; 0xffffffe0
   1079c:	e24b3028 	sub	r3, fp, #40	; 0x28
   107a0:	e8830006 	stm	r3, {r1, r2}
   107a4:	e59f2218 	ldr	r2, [pc, #536]	; 109c4 <__patchToCallout+0x238>
   107a8:	e51b3020 	ldr	r3, [fp, #-32]	; 0xffffffe0
   107ac:	e5823000 	str	r3, [r2]
   107b0:	e51b3020 	ldr	r3, [fp, #-32]	; 0xffffffe0
   107b4:	e5933000 	ldr	r3, [r3]
   107b8:	e59f2208 	ldr	r2, [pc, #520]	; 109c8 <__patchToCallout+0x23c>
   107bc:	e5823000 	str	r3, [r2]
   107c0:	e59f3200 	ldr	r3, [pc, #512]	; 109c8 <__patchToCallout+0x23c>
   107c4:	e5933000 	ldr	r3, [r3]
   107c8:	e1a02003 	mov	r2, r3
   107cc:	e51b1020 	ldr	r1, [fp, #-32]	; 0xffffffe0
   107d0:	e59f01f4 	ldr	r0, [pc, #500]	; 109cc <__patchToCallout+0x240>
   107d4:	eb001c23 	bl	17868 <_IO_printf>
   107d8:	e3a03000 	mov	r3, #0
   107dc:	e50b3008 	str	r3, [fp, #-8]
   107e0:	e3a03000 	mov	r3, #0
   107e4:	e50b3010 	str	r3, [fp, #-16]
   107e8:	e3a03000 	mov	r3, #0
   107ec:	e54b3009 	strb	r3, [fp, #-9]
   107f0:	e15b32b6 	ldrh	r3, [fp, #-38]	; 0xffffffda
   107f4:	e1a02003 	mov	r2, r3
   107f8:	e51b1020 	ldr	r1, [fp, #-32]	; 0xffffffe0
   107fc:	e59f01cc 	ldr	r0, [pc, #460]	; 109d0 <__patchToCallout+0x244>
   10800:	eb001c18 	bl	17868 <_IO_printf>
   10804:	e51b3020 	ldr	r3, [fp, #-32]	; 0xffffffe0
   10808:	e59f21c4 	ldr	r2, [pc, #452]	; 109d4 <__patchToCallout+0x248>
   1080c:	e5823004 	str	r3, [r2, #4]
   10810:	e15b32b6 	ldrh	r3, [fp, #-38]	; 0xffffffda
   10814:	e35300eb 	cmp	r3, #235	; 0xeb
   10818:	1a00000d 	bne	10854 <__patchToCallout+0xc8>
   1081c:	e59f01b4 	ldr	r0, [pc, #436]	; 109d8 <__patchToCallout+0x24c>
   10820:	eb001ff7 	bl	18804 <_IO_puts>
   10824:	e59f31b0 	ldr	r3, [pc, #432]	; 109dc <__patchToCallout+0x250>
   10828:	e50b3010 	str	r3, [fp, #-16]
   1082c:	e59f31ac 	ldr	r3, [pc, #428]	; 109e0 <__patchToCallout+0x254>
   10830:	e50b3008 	str	r3, [fp, #-8]
   10834:	e3e03014 	mvn	r3, #20
   10838:	e54b3009 	strb	r3, [fp, #-9]
   1083c:	e59f31a0 	ldr	r3, [pc, #416]	; 109e4 <__patchToCallout+0x258>
   10840:	e5933000 	ldr	r3, [r3]
   10844:	e2833001 	add	r3, r3, #1
   10848:	e59f2194 	ldr	r2, [pc, #404]	; 109e4 <__patchToCallout+0x258>
   1084c:	e5823000 	str	r3, [r2]
   10850:	ea000037 	b	10934 <__patchToCallout+0x1a8>
   10854:	e15b32b6 	ldrh	r3, [fp, #-38]	; 0xffffffda
   10858:	e35300e1 	cmp	r3, #225	; 0xe1
   1085c:	1a00000d 	bne	10898 <__patchToCallout+0x10c>
   10860:	e59f0180 	ldr	r0, [pc, #384]	; 109e8 <__patchToCallout+0x25c>
   10864:	eb001fe6 	bl	18804 <_IO_puts>
   10868:	e59f317c 	ldr	r3, [pc, #380]	; 109ec <__patchToCallout+0x260>
   1086c:	e50b3010 	str	r3, [fp, #-16]
   10870:	e59f3178 	ldr	r3, [pc, #376]	; 109f0 <__patchToCallout+0x264>
   10874:	e50b3008 	str	r3, [fp, #-8]
   10878:	e3e03015 	mvn	r3, #21
   1087c:	e54b3009 	strb	r3, [fp, #-9]
   10880:	e59f316c 	ldr	r3, [pc, #364]	; 109f4 <__patchToCallout+0x268>
   10884:	e5933000 	ldr	r3, [r3]
   10888:	e2833001 	add	r3, r3, #1
   1088c:	e59f2160 	ldr	r2, [pc, #352]	; 109f4 <__patchToCallout+0x268>
   10890:	e5823000 	str	r3, [r2]
   10894:	ea000026 	b	10934 <__patchToCallout+0x1a8>
   10898:	e15b32b6 	ldrh	r3, [fp, #-38]	; 0xffffffda
   1089c:	e35300ca 	cmp	r3, #202	; 0xca
   108a0:	1a00000d 	bne	108dc <__patchToCallout+0x150>
   108a4:	e59f014c 	ldr	r0, [pc, #332]	; 109f8 <__patchToCallout+0x26c>
   108a8:	eb001fd5 	bl	18804 <_IO_puts>
   108ac:	e59f3148 	ldr	r3, [pc, #328]	; 109fc <__patchToCallout+0x270>
   108b0:	e50b3010 	str	r3, [fp, #-16]
   108b4:	e59f3144 	ldr	r3, [pc, #324]	; 10a00 <__patchToCallout+0x274>
   108b8:	e50b3008 	str	r3, [fp, #-8]
   108bc:	e3e03014 	mvn	r3, #20
   108c0:	e54b3009 	strb	r3, [fp, #-9]
   108c4:	e59f3138 	ldr	r3, [pc, #312]	; 10a04 <__patchToCallout+0x278>
   108c8:	e5933000 	ldr	r3, [r3]
   108cc:	e2833001 	add	r3, r3, #1
   108d0:	e59f212c 	ldr	r2, [pc, #300]	; 10a04 <__patchToCallout+0x278>
   108d4:	e5823000 	str	r3, [r2]
   108d8:	ea000015 	b	10934 <__patchToCallout+0x1a8>
   108dc:	e15b32b6 	ldrh	r3, [fp, #-38]	; 0xffffffda
   108e0:	e35300ea 	cmp	r3, #234	; 0xea
   108e4:	1a00000d 	bne	10920 <__patchToCallout+0x194>
   108e8:	e59f0118 	ldr	r0, [pc, #280]	; 10a08 <__patchToCallout+0x27c>
   108ec:	eb001fc4 	bl	18804 <_IO_puts>
   108f0:	e59f3114 	ldr	r3, [pc, #276]	; 10a0c <__patchToCallout+0x280>
   108f4:	e50b3010 	str	r3, [fp, #-16]
   108f8:	e59f3110 	ldr	r3, [pc, #272]	; 10a10 <__patchToCallout+0x284>
   108fc:	e50b3008 	str	r3, [fp, #-8]
   10900:	e3e03014 	mvn	r3, #20
   10904:	e54b3009 	strb	r3, [fp, #-9]
   10908:	e59f3104 	ldr	r3, [pc, #260]	; 10a14 <__patchToCallout+0x288>
   1090c:	e5933000 	ldr	r3, [r3]
   10910:	e2833001 	add	r3, r3, #1
   10914:	e59f20f8 	ldr	r2, [pc, #248]	; 10a14 <__patchToCallout+0x288>
   10918:	e5823000 	str	r3, [r2]
   1091c:	ea000004 	b	10934 <__patchToCallout+0x1a8>
   10920:	e59f30f0 	ldr	r3, [pc, #240]	; 10a18 <__patchToCallout+0x28c>
   10924:	e3a020dd 	mov	r2, #221	; 0xdd
   10928:	e59f10ec 	ldr	r1, [pc, #236]	; 10a1c <__patchToCallout+0x290>
   1092c:	e59f00ec 	ldr	r0, [pc, #236]	; 10a20 <__patchToCallout+0x294>
   10930:	eb000407 	bl	11954 <__assert_fail>
   10934:	e51b3008 	ldr	r3, [fp, #-8]
   10938:	e51b2020 	ldr	r2, [fp, #-32]	; 0xffffffe0
   1093c:	e2822008 	add	r2, r2, #8
   10940:	e0433002 	sub	r3, r3, r2
   10944:	e50b3018 	str	r3, [fp, #-24]	; 0xffffffe8
   10948:	e51b3018 	ldr	r3, [fp, #-24]	; 0xffffffe8
   1094c:	e1a03143 	asr	r3, r3, #2
   10950:	e50b3018 	str	r3, [fp, #-24]	; 0xffffffe8
   10954:	e24b3018 	sub	r3, fp, #24
   10958:	e50b3014 	str	r3, [fp, #-20]	; 0xffffffec
   1095c:	e51b3014 	ldr	r3, [fp, #-20]	; 0xffffffec
   10960:	e5d32000 	ldrb	r2, [r3]
   10964:	e51b3020 	ldr	r3, [fp, #-32]	; 0xffffffe0
   10968:	e5c32000 	strb	r2, [r3]
   1096c:	e51b3020 	ldr	r3, [fp, #-32]	; 0xffffffe0
   10970:	e2833001 	add	r3, r3, #1
   10974:	e51b2014 	ldr	r2, [fp, #-20]	; 0xffffffec
   10978:	e5d22001 	ldrb	r2, [r2, #1]
   1097c:	e5c32000 	strb	r2, [r3]
   10980:	e51b3020 	ldr	r3, [fp, #-32]	; 0xffffffe0
   10984:	e2833002 	add	r3, r3, #2
   10988:	e51b2014 	ldr	r2, [fp, #-20]	; 0xffffffec
   1098c:	e5d22002 	ldrb	r2, [r2, #2]
   10990:	e5c32000 	strb	r2, [r3]
   10994:	e51b3020 	ldr	r3, [fp, #-32]	; 0xffffffe0
   10998:	e2833003 	add	r3, r3, #3
   1099c:	e55b2009 	ldrb	r2, [fp, #-9]
   109a0:	e5c32000 	strb	r2, [r3]
   109a4:	e51b3020 	ldr	r3, [fp, #-32]	; 0xffffffe0
   109a8:	e2833004 	add	r3, r3, #4
   109ac:	e1a01003 	mov	r1, r3
   109b0:	e51b0020 	ldr	r0, [fp, #-32]	; 0xffffffe0
   109b4:	eb00017c 	bl	10fac <__clear_cache>
   109b8:	e1a00000 	nop			; (mov r0, r0)
   109bc:	e24bd004 	sub	sp, fp, #4
   109c0:	e8bd8800 	pop	{fp, pc}
   109c4:	00083b0c 	.word	0x00083b0c
   109c8:	00083b08 	.word	0x00083b08
   109cc:	0006c878 	.word	0x0006c878
   109d0:	0006c88c 	.word	0x0006c88c
   109d4:	00083b00 	.word	0x00083b00
   109d8:	0006c8a4 	.word	0x0006c8a4
   109dc:	0006c8b4 	.word	0x0006c8b4
   109e0:	00010eec 	.word	0x00010eec
   109e4:	0008336c 	.word	0x0008336c
   109e8:	0006c8b8 	.word	0x0006c8b8
   109ec:	0006c8c8 	.word	0x0006c8c8
   109f0:	00010f18 	.word	0x00010f18
   109f4:	00083368 	.word	0x00083368
   109f8:	0006c8cc 	.word	0x0006c8cc
   109fc:	0006c8dc 	.word	0x0006c8dc
   10a00:	00010ec0 	.word	0x00010ec0
   10a04:	00083370 	.word	0x00083370
   10a08:	0006c8e0 	.word	0x0006c8e0
   10a0c:	0006c8f0 	.word	0x0006c8f0
   10a10:	00010e94 	.word	0x00010e94
   10a14:	00083364 	.word	0x00083364
   10a18:	0006ca5c 	.word	0x0006ca5c
   10a1c:	0006c8f4 	.word	0x0006c8f4
   10a20:	0006c904 	.word	0x0006c904

00010a24 <restoreInstr>:
   10a24:	e92d4800 	push	{fp, lr}
   10a28:	e28db004 	add	fp, sp, #4
   10a2c:	e24dd008 	sub	sp, sp, #8
   10a30:	e59f0090 	ldr	r0, [pc, #144]	; 10ac8 <restoreInstr+0xa4>
   10a34:	eb001f72 	bl	18804 <_IO_puts>
   10a38:	e59f308c 	ldr	r3, [pc, #140]	; 10acc <restoreInstr+0xa8>
   10a3c:	e50b3008 	str	r3, [fp, #-8]
   10a40:	e59f3088 	ldr	r3, [pc, #136]	; 10ad0 <restoreInstr+0xac>
   10a44:	e5933000 	ldr	r3, [r3]
   10a48:	e51b2008 	ldr	r2, [fp, #-8]
   10a4c:	e5d22000 	ldrb	r2, [r2]
   10a50:	e5c32000 	strb	r2, [r3]
   10a54:	e59f3074 	ldr	r3, [pc, #116]	; 10ad0 <restoreInstr+0xac>
   10a58:	e5933000 	ldr	r3, [r3]
   10a5c:	e2833001 	add	r3, r3, #1
   10a60:	e51b2008 	ldr	r2, [fp, #-8]
   10a64:	e5d22001 	ldrb	r2, [r2, #1]
   10a68:	e5c32000 	strb	r2, [r3]
   10a6c:	e59f305c 	ldr	r3, [pc, #92]	; 10ad0 <restoreInstr+0xac>
   10a70:	e5933000 	ldr	r3, [r3]
   10a74:	e2833002 	add	r3, r3, #2
   10a78:	e51b2008 	ldr	r2, [fp, #-8]
   10a7c:	e5d22002 	ldrb	r2, [r2, #2]
   10a80:	e5c32000 	strb	r2, [r3]
   10a84:	e59f3044 	ldr	r3, [pc, #68]	; 10ad0 <restoreInstr+0xac>
   10a88:	e5933000 	ldr	r3, [r3]
   10a8c:	e2833003 	add	r3, r3, #3
   10a90:	e51b2008 	ldr	r2, [fp, #-8]
   10a94:	e5d22003 	ldrb	r2, [r2, #3]
   10a98:	e5c32000 	strb	r2, [r3]
   10a9c:	e59f302c 	ldr	r3, [pc, #44]	; 10ad0 <restoreInstr+0xac>
   10aa0:	e5932000 	ldr	r2, [r3]
   10aa4:	e59f3024 	ldr	r3, [pc, #36]	; 10ad0 <restoreInstr+0xac>
   10aa8:	e5933000 	ldr	r3, [r3]
   10aac:	e2833008 	add	r3, r3, #8
   10ab0:	e1a01003 	mov	r1, r3
   10ab4:	e1a00002 	mov	r0, r2
   10ab8:	eb00013b 	bl	10fac <__clear_cache>
   10abc:	e1a00000 	nop			; (mov r0, r0)
   10ac0:	e24bd004 	sub	sp, fp, #4
   10ac4:	e8bd8800 	pop	{fp, pc}
   10ac8:	0006c91c 	.word	0x0006c91c
   10acc:	00083b08 	.word	0x00083b08
   10ad0:	00083b0c 	.word	0x00083b0c

00010ad4 <patchNextCFlow>:
   10ad4:	e92d4800 	push	{fp, lr}
   10ad8:	e28db004 	add	fp, sp, #4
   10adc:	e24dd018 	sub	sp, sp, #24
   10ae0:	e50b0018 	str	r0, [fp, #-24]	; 0xffffffe8
   10ae4:	e3a03001 	mov	r3, #1
   10ae8:	e50b3008 	str	r3, [fp, #-8]
   10aec:	e24b3010 	sub	r3, fp, #16
   10af0:	e1a01003 	mov	r1, r3
   10af4:	e51b0018 	ldr	r0, [fp, #-24]	; 0xffffffe8
   10af8:	eb000036 	bl	10bd8 <armDecode>
   10afc:	e15b30be 	ldrh	r3, [fp, #-14]
   10b00:	e51b2008 	ldr	r2, [fp, #-8]
   10b04:	e1a01003 	mov	r1, r3
   10b08:	e59f00b8 	ldr	r0, [pc, #184]	; 10bc8 <patchNextCFlow+0xf4>
   10b0c:	eb001b55 	bl	17868 <_IO_printf>
   10b10:	e15b30be 	ldrh	r3, [fp, #-14]
   10b14:	e35300ea 	cmp	r3, #234	; 0xea
   10b18:	0a00000a 	beq	10b48 <patchNextCFlow+0x74>
   10b1c:	e15b30be 	ldrh	r3, [fp, #-14]
   10b20:	e35300eb 	cmp	r3, #235	; 0xeb
   10b24:	0a000007 	beq	10b48 <patchNextCFlow+0x74>
   10b28:	e15b30be 	ldrh	r3, [fp, #-14]
   10b2c:	e35300ca 	cmp	r3, #202	; 0xca
   10b30:	0a000004 	beq	10b48 <patchNextCFlow+0x74>
   10b34:	e51b3018 	ldr	r3, [fp, #-24]	; 0xffffffe8
   10b38:	e5933000 	ldr	r3, [r3]
   10b3c:	e59f2088 	ldr	r2, [pc, #136]	; 10bcc <patchNextCFlow+0xf8>
   10b40:	e1530002 	cmp	r3, r2
   10b44:	1a00000b 	bne	10b78 <patchNextCFlow+0xa4>
   10b48:	e59f3080 	ldr	r3, [pc, #128]	; 10bd0 <patchNextCFlow+0xfc>
   10b4c:	e5931004 	ldr	r1, [r3, #4]
   10b50:	e15b30be 	ldrh	r3, [fp, #-14]
   10b54:	e1a02003 	mov	r2, r3
   10b58:	e59f3070 	ldr	r3, [pc, #112]	; 10bd0 <patchNextCFlow+0xfc>
   10b5c:	e5933000 	ldr	r3, [r3]
   10b60:	e59f006c 	ldr	r0, [pc, #108]	; 10bd4 <patchNextCFlow+0x100>
   10b64:	eb001b3f 	bl	17868 <_IO_printf>
   10b68:	e59f3060 	ldr	r3, [pc, #96]	; 10bd0 <patchNextCFlow+0xfc>
   10b6c:	e3a02001 	mov	r2, #1
   10b70:	e5832000 	str	r2, [r3]
   10b74:	ea00000b 	b	10ba8 <patchNextCFlow+0xd4>
   10b78:	e51b3008 	ldr	r3, [fp, #-8]
   10b7c:	e2833001 	add	r3, r3, #1
   10b80:	e50b3008 	str	r3, [fp, #-8]
   10b84:	e59f2044 	ldr	r2, [pc, #68]	; 10bd0 <patchNextCFlow+0xfc>
   10b88:	e51b3008 	ldr	r3, [fp, #-8]
   10b8c:	e5823000 	str	r3, [r2]
   10b90:	e55b300c 	ldrb	r3, [fp, #-12]
   10b94:	e1a02003 	mov	r2, r3
   10b98:	e51b3018 	ldr	r3, [fp, #-24]	; 0xffffffe8
   10b9c:	e0833002 	add	r3, r3, r2
   10ba0:	e50b3018 	str	r3, [fp, #-24]	; 0xffffffe8
   10ba4:	eaffffd0 	b	10aec <patchNextCFlow+0x18>
   10ba8:	e24b3010 	sub	r3, fp, #16
   10bac:	e8930006 	ldm	r3, {r1, r2}
   10bb0:	e51b0018 	ldr	r0, [fp, #-24]	; 0xffffffe8
   10bb4:	ebfffef4 	bl	1078c <__patchToCallout>
   10bb8:	e51b3008 	ldr	r3, [fp, #-8]
   10bbc:	e1a00003 	mov	r0, r3
   10bc0:	e24bd004 	sub	sp, fp, #4
   10bc4:	e8bd8800 	pop	{fp, pc}
   10bc8:	0006c930 	.word	0x0006c930
   10bcc:	e12fff1e 	.word	0xe12fff1e
   10bd0:	00083b00 	.word	0x00083b00
   10bd4:	0006c944 	.word	0x0006c944

00010bd8 <armDecode>:
   10bd8:	e52db004 	push	{fp}		; (str fp, [sp, #-4]!)
   10bdc:	e28db000 	add	fp, sp, #0
   10be0:	e24dd014 	sub	sp, sp, #20
   10be4:	e50b0010 	str	r0, [fp, #-16]
   10be8:	e50b1014 	str	r1, [fp, #-20]	; 0xffffffec
   10bec:	e51b3010 	ldr	r3, [fp, #-16]
   10bf0:	e5933000 	ldr	r3, [r3]
   10bf4:	e50b3008 	str	r3, [fp, #-8]
   10bf8:	e51b3008 	ldr	r3, [fp, #-8]
   10bfc:	e1a03e23 	lsr	r3, r3, #28
   10c00:	e6ef2073 	uxtb	r2, r3
   10c04:	e51b3014 	ldr	r3, [fp, #-20]	; 0xffffffec
   10c08:	e5c32000 	strb	r2, [r3]
   10c0c:	e51b3008 	ldr	r3, [fp, #-8]
   10c10:	e1a03c23 	lsr	r3, r3, #24
   10c14:	e6ef3073 	uxtb	r3, r3
   10c18:	e6ff2073 	uxth	r2, r3
   10c1c:	e51b3014 	ldr	r3, [fp, #-20]	; 0xffffffec
   10c20:	e1c320b2 	strh	r2, [r3, #2]
   10c24:	e51b3014 	ldr	r3, [fp, #-20]	; 0xffffffec
   10c28:	e3a02004 	mov	r2, #4
   10c2c:	e5c32004 	strb	r2, [r3, #4]
   10c30:	e1a00000 	nop			; (mov r0, r0)
   10c34:	e28bd000 	add	sp, fp, #0
   10c38:	e49db004 	pop	{fp}		; (ldr fp, [sp], #4)
   10c3c:	e12fff1e 	bx	lr

00010c40 <StartProfiling>:
   10c40:	e92d4800 	push	{fp, lr}
   10c44:	e28db004 	add	fp, sp, #4
   10c48:	e24dd008 	sub	sp, sp, #8
   10c4c:	e50b0008 	str	r0, [fp, #-8]
   10c50:	e59f2020 	ldr	r2, [pc, #32]	; 10c78 <StartProfiling+0x38>
   10c54:	e51b3008 	ldr	r3, [fp, #-8]
   10c58:	e5823000 	str	r3, [r2]
   10c5c:	e59f0018 	ldr	r0, [pc, #24]	; 10c7c <StartProfiling+0x3c>
   10c60:	eb001ee7 	bl	18804 <_IO_puts>
   10c64:	e51b0008 	ldr	r0, [fp, #-8]
   10c68:	ebffff99 	bl	10ad4 <patchNextCFlow>
   10c6c:	e1a00000 	nop			; (mov r0, r0)
   10c70:	e24bd004 	sub	sp, fp, #4
   10c74:	e8bd8800 	pop	{fp, pc}
   10c78:	00083b10 	.word	0x00083b10
   10c7c:	0006c96c 	.word	0x0006c96c

00010c80 <StopProfiling>:
   10c80:	e92d4800 	push	{fp, lr}
   10c84:	e28db004 	add	fp, sp, #4
   10c88:	e24dd008 	sub	sp, sp, #8
   10c8c:	ebffff64 	bl	10a24 <restoreInstr>
   10c90:	e59f305c 	ldr	r3, [pc, #92]	; 10cf4 <StopProfiling+0x74>
   10c94:	e5931004 	ldr	r1, [r3, #4]
   10c98:	e59f3054 	ldr	r3, [pc, #84]	; 10cf4 <StopProfiling+0x74>
   10c9c:	e5933000 	ldr	r3, [r3]
   10ca0:	e1a02003 	mov	r2, r3
   10ca4:	e59f004c 	ldr	r0, [pc, #76]	; 10cf8 <StopProfiling+0x78>
   10ca8:	eb001aee 	bl	17868 <_IO_printf>
   10cac:	e59f3048 	ldr	r3, [pc, #72]	; 10cfc <StopProfiling+0x7c>
   10cb0:	e5931000 	ldr	r1, [r3]
   10cb4:	e59f3044 	ldr	r3, [pc, #68]	; 10d00 <StopProfiling+0x80>
   10cb8:	e5932000 	ldr	r2, [r3]
   10cbc:	e59f3040 	ldr	r3, [pc, #64]	; 10d04 <StopProfiling+0x84>
   10cc0:	e5933000 	ldr	r3, [r3]
   10cc4:	e1a00083 	lsl	r0, r3, #1
   10cc8:	e59f3038 	ldr	r3, [pc, #56]	; 10d08 <StopProfiling+0x88>
   10ccc:	e5933000 	ldr	r3, [r3]
   10cd0:	e58d3000 	str	r3, [sp]
   10cd4:	e1a03000 	mov	r3, r0
   10cd8:	e59f002c 	ldr	r0, [pc, #44]	; 10d0c <StopProfiling+0x8c>
   10cdc:	eb001ae1 	bl	17868 <_IO_printf>
   10ce0:	e59f0028 	ldr	r0, [pc, #40]	; 10d10 <StopProfiling+0x90>
   10ce4:	eb001ec6 	bl	18804 <_IO_puts>
   10ce8:	e1a00000 	nop			; (mov r0, r0)
   10cec:	e24bd004 	sub	sp, fp, #4
   10cf0:	e8bd8800 	pop	{fp, pc}
   10cf4:	00083b00 	.word	0x00083b00
   10cf8:	0006c984 	.word	0x0006c984
   10cfc:	00083364 	.word	0x00083364
   10d00:	0008336c 	.word	0x0008336c
   10d04:	00083370 	.word	0x00083370
   10d08:	00083368 	.word	0x00083368
   10d0c:	0006c99c 	.word	0x0006c99c
   10d10:	0006c9d0 	.word	0x0006c9d0

00010d14 <main>:
   10d14:	e92d4800 	push	{fp, lr}
   10d18:	e28db004 	add	fp, sp, #4
   10d1c:	e24dd020 	sub	sp, sp, #32
   10d20:	e50b0020 	str	r0, [fp, #-32]	; 0xffffffe0
   10d24:	e50b1024 	str	r1, [fp, #-36]	; 0xffffffdc
   10d28:	e51b3020 	ldr	r3, [fp, #-32]	; 0xffffffe0
   10d2c:	e3530001 	cmp	r3, #1
   10d30:	0a000008 	beq	10d58 <main+0x44>
   10d34:	e59f3134 	ldr	r3, [pc, #308]	; 10e70 <main+0x15c>
   10d38:	e5930000 	ldr	r0, [r3]
   10d3c:	e51b3024 	ldr	r3, [fp, #-36]	; 0xffffffdc
   10d40:	e5933000 	ldr	r3, [r3]
   10d44:	e1a02003 	mov	r2, r3
   10d48:	e59f1124 	ldr	r1, [pc, #292]	; 10e74 <main+0x160>
   10d4c:	eb001ab0 	bl	17814 <__fprintf>
   10d50:	e3a00001 	mov	r0, #1
   10d54:	eb0016a9 	bl	16800 <exit>
   10d58:	e59f0118 	ldr	r0, [pc, #280]	; 10e78 <main+0x164>
   10d5c:	eb001ac1 	bl	17868 <_IO_printf>
   10d60:	e24b301c 	sub	r3, fp, #28
   10d64:	e1a01003 	mov	r1, r3
   10d68:	e59f010c 	ldr	r0, [pc, #268]	; 10e7c <main+0x168>
   10d6c:	eb001b40 	bl	17a74 <__isoc99_scanf>
   10d70:	e24b100c 	sub	r1, fp, #12
   10d74:	e24b301c 	sub	r3, fp, #28
   10d78:	e3a0200a 	mov	r2, #10
   10d7c:	e1a00003 	mov	r0, r3
   10d80:	eb001748 	bl	16aa8 <__strtol>
   10d84:	e50b0008 	str	r0, [fp, #-8]
   10d88:	eb000289 	bl	117b4 <__errno_location>
   10d8c:	e1a03000 	mov	r3, r0
   10d90:	e5933000 	ldr	r3, [r3]
   10d94:	e3530022 	cmp	r3, #34	; 0x22
   10d98:	1a000005 	bne	10db4 <main+0xa0>
   10d9c:	e51b3008 	ldr	r3, [fp, #-8]
   10da0:	e3730106 	cmn	r3, #-2147483647	; 0x80000001
   10da4:	0a00000a 	beq	10dd4 <main+0xc0>
   10da8:	e51b3008 	ldr	r3, [fp, #-8]
   10dac:	e3530102 	cmp	r3, #-2147483648	; 0x80000000
   10db0:	0a000007 	beq	10dd4 <main+0xc0>
   10db4:	eb00027e 	bl	117b4 <__errno_location>
   10db8:	e1a03000 	mov	r3, r0
   10dbc:	e5933000 	ldr	r3, [r3]
   10dc0:	e3530000 	cmp	r3, #0
   10dc4:	0a000006 	beq	10de4 <main+0xd0>
   10dc8:	e51b3008 	ldr	r3, [fp, #-8]
   10dcc:	e3530000 	cmp	r3, #0
   10dd0:	1a000003 	bne	10de4 <main+0xd0>
   10dd4:	e59f00a4 	ldr	r0, [pc, #164]	; 10e80 <main+0x16c>
   10dd8:	eb001af5 	bl	179b4 <perror>
   10ddc:	e3a00001 	mov	r0, #1
   10de0:	eb001686 	bl	16800 <exit>
   10de4:	e51b200c 	ldr	r2, [fp, #-12]
   10de8:	e24b301c 	sub	r3, fp, #28
   10dec:	e1520003 	cmp	r2, r3
   10df0:	1a000007 	bne	10e14 <main+0x100>
   10df4:	e59f3074 	ldr	r3, [pc, #116]	; 10e70 <main+0x15c>
   10df8:	e5933000 	ldr	r3, [r3]
   10dfc:	e24b201c 	sub	r2, fp, #28
   10e00:	e59f107c 	ldr	r1, [pc, #124]	; 10e84 <main+0x170>
   10e04:	e1a00003 	mov	r0, r3
   10e08:	eb001a81 	bl	17814 <__fprintf>
   10e0c:	e3a00001 	mov	r0, #1
   10e10:	eb00167a 	bl	16800 <exit>
   10e14:	e51b300c 	ldr	r3, [fp, #-12]
   10e18:	e5d33000 	ldrb	r3, [r3]
   10e1c:	e3530000 	cmp	r3, #0
   10e20:	0a000007 	beq	10e44 <main+0x130>
   10e24:	e59f3044 	ldr	r3, [pc, #68]	; 10e70 <main+0x15c>
   10e28:	e5933000 	ldr	r3, [r3]
   10e2c:	e51b200c 	ldr	r2, [fp, #-12]
   10e30:	e59f1050 	ldr	r1, [pc, #80]	; 10e88 <main+0x174>
   10e34:	e1a00003 	mov	r0, r3
   10e38:	eb001a75 	bl	17814 <__fprintf>
   10e3c:	e3a00001 	mov	r0, #1
   10e40:	eb00166e 	bl	16800 <exit>
   10e44:	e59f0040 	ldr	r0, [pc, #64]	; 10e8c <main+0x178>
   10e48:	ebffff7c 	bl	10c40 <StartProfiling>
   10e4c:	e51b0008 	ldr	r0, [fp, #-8]
   10e50:	eb00003d 	bl	10f4c <fib>
   10e54:	e50b0008 	str	r0, [fp, #-8]
   10e58:	ebffff88 	bl	10c80 <StopProfiling>
   10e5c:	e51b1008 	ldr	r1, [fp, #-8]
   10e60:	e59f0028 	ldr	r0, [pc, #40]	; 10e90 <main+0x17c>
   10e64:	eb001a7f 	bl	17868 <_IO_printf>
   10e68:	e3a00000 	mov	r0, #0
   10e6c:	eb001663 	bl	16800 <exit>
   10e70:	0008290c 	.word	0x0008290c
   10e74:	0006c9e4 	.word	0x0006c9e4
   10e78:	0006c9f0 	.word	0x0006c9f0
   10e7c:	0006ca00 	.word	0x0006ca00
   10e80:	0006ca08 	.word	0x0006ca08
   10e84:	0006ca10 	.word	0x0006ca10
   10e88:	0006ca30 	.word	0x0006ca30
   10e8c:	00010f4c 	.word	0x00010f4c
   10e90:	0006ca58 	.word	0x0006ca58

00010e94 <bCallout>:
   10e94:	e92de000 	push	{sp, lr, pc}
   10e98:	e92d1fff 	push	{r0, r1, r2, r3, r4, r5, r6, r7, r8, r9, sl, fp, ip}
   10e9c:	e10f0000 	mrs	r0, CPSR
   10ea0:	e52d0004 	push	{r0}		; (str r0, [sp, #-4]!)
   10ea4:	e1a0000d 	mov	r0, sp
   10ea8:	ebfffd77 	bl	1048c <handleBCallout>
   10eac:	e49d0004 	pop	{r0}		; (ldr r0, [sp], #4)
   10eb0:	e129f000 	msr	CPSR_fc, r0
   10eb4:	e8bd1fff 	pop	{r0, r1, r2, r3, r4, r5, r6, r7, r8, r9, sl, fp, ip}
   10eb8:	e28dd004 	add	sp, sp, #4
   10ebc:	e8bdc000 	pop	{lr, pc}

00010ec0 <bgtCallout>:
   10ec0:	e92de000 	push	{sp, lr, pc}
   10ec4:	e92d1fff 	push	{r0, r1, r2, r3, r4, r5, r6, r7, r8, r9, sl, fp, ip}
   10ec8:	e10f0000 	mrs	r0, CPSR
   10ecc:	e52d0004 	push	{r0}		; (str r0, [sp, #-4]!)
   10ed0:	e1a0000d 	mov	r0, sp
   10ed4:	ebfffdb9 	bl	105c0 <handleBgtCallout>
   10ed8:	e49d0004 	pop	{r0}		; (ldr r0, [sp], #4)
   10edc:	e129f000 	msr	CPSR_fc, r0
   10ee0:	e8bd1fff 	pop	{r0, r1, r2, r3, r4, r5, r6, r7, r8, r9, sl, fp, ip}
   10ee4:	e28dd004 	add	sp, sp, #4
   10ee8:	e8bdc000 	pop	{lr, pc}

00010eec <blCallout>:
   10eec:	e92de000 	push	{sp, lr, pc}
   10ef0:	e92d1fff 	push	{r0, r1, r2, r3, r4, r5, r6, r7, r8, r9, sl, fp, ip}
   10ef4:	e10f0000 	mrs	r0, CPSR
   10ef8:	e52d0004 	push	{r0}		; (str r0, [sp, #-4]!)
   10efc:	e1a0000d 	mov	r0, sp
   10f00:	ebfffdf1 	bl	106cc <handleBlCallout>
   10f04:	e49d0004 	pop	{r0}		; (ldr r0, [sp], #4)
   10f08:	e129f000 	msr	CPSR_fc, r0
   10f0c:	e8bd1fff 	pop	{r0, r1, r2, r3, r4, r5, r6, r7, r8, r9, sl, fp, ip}
   10f10:	e28dd004 	add	sp, sp, #4
   10f14:	e8bdc000 	pop	{lr, pc}

00010f18 <bxCallout>:
   10f18:	e92de000 	push	{sp, lr, pc}
   10f1c:	e92d1fff 	push	{r0, r1, r2, r3, r4, r5, r6, r7, r8, r9, sl, fp, ip}
   10f20:	e10f0000 	mrs	r0, CPSR
   10f24:	e52d0004 	push	{r0}		; (str r0, [sp, #-4]!)
   10f28:	e1a0000d 	mov	r0, sp
   10f2c:	ebfffd84 	bl	10544 <handleBxCallout>
   10f30:	e49d0004 	pop	{r0}		; (ldr r0, [sp], #4)
   10f34:	e129f000 	msr	CPSR_fc, r0
   10f38:	e8bd1fff 	pop	{r0, r1, r2, r3, r4, r5, r6, r7, r8, r9, sl, fp, ip}
   10f3c:	e28dd004 	add	sp, sp, #4
   10f40:	e49de004 	pop	{lr}		; (ldr lr, [sp], #4)
   10f44:	e28dd004 	add	sp, sp, #4
   10f48:	e12fff1e 	bx	lr

00010f4c <fib>:
   10f4c:	e92d4810 	push	{r4, fp, lr}
   10f50:	e28db008 	add	fp, sp, #8
   10f54:	e24dd00c 	sub	sp, sp, #12
   10f58:	e50b0010 	str	r0, [fp, #-16]
   10f5c:	e51b3010 	ldr	r3, [fp, #-16]
   10f60:	e3530001 	cmp	r3, #1
   10f64:	ca000001 	bgt	10f70 <fib+0x24>
   10f68:	e3a03001 	mov	r3, #1
   10f6c:	ea00000a 	b	10f9c <fib+0x50>
   10f70:	e51b3010 	ldr	r3, [fp, #-16]
   10f74:	e2433001 	sub	r3, r3, #1
   10f78:	e1a00003 	mov	r0, r3
   10f7c:	ebfffff2 	bl	10f4c <fib>
   10f80:	e1a04000 	mov	r4, r0
   10f84:	e51b3010 	ldr	r3, [fp, #-16]
   10f88:	e2433002 	sub	r3, r3, #2
   10f8c:	e1a00003 	mov	r0, r3
   10f90:	ebffffed 	bl	10f4c <fib>
   10f94:	e1a03000 	mov	r3, r0
   10f98:	e0843003 	add	r3, r4, r3
   10f9c:	e1a00003 	mov	r0, r3
   10fa0:	e24bd008 	sub	sp, fp, #8
   10fa4:	e8bd4810 	pop	{r4, fp, lr}
   10fa8:	e12fff1e 	bx	lr

00010fac <__clear_cache>:
   10fac:	e92d0080 	stmfd	sp!, {r7}
   10fb0:	e3a0780f 	mov	r7, #983040	; 0xf0000
   10fb4:	e2877002 	add	r7, r7, #2
   10fb8:	e3a02000 	mov	r2, #0
   10fbc:	ef000000 	svc	0x00000000
   10fc0:	e8bd0080 	ldmfd	sp!, {r7}
   10fc4:	e12fff1e 	bx	lr

00010fc8 <__libc_start_main>:
   10fc8:	e59fc2dc 	ldr	ip, [pc, #732]	; 112ac <__libc_start_main+0x2e4>
   10fcc:	e92d4080 	push	{r7, lr}
   10fd0:	e24ddf4a 	sub	sp, sp, #296	; 0x128
   10fd4:	e35c0000 	cmp	ip, #0
   10fd8:	e98d0006 	stmib	sp, {r1, r2}
   10fdc:	e59d2004 	ldr	r2, [sp, #4]
   10fe0:	e1a04003 	mov	r4, r3
   10fe4:	159c3000 	ldrne	r3, [ip]
   10fe8:	01a0300c 	moveq	r3, ip
   10fec:	e58d000c 	str	r0, [sp, #12]
   10ff0:	e59fe2b8 	ldr	lr, [pc, #696]	; 112b0 <__libc_start_main+0x2e8>
   10ff4:	e2820001 	add	r0, r2, #1
   10ff8:	e59fc2b4 	ldr	ip, [pc, #692]	; 112b4 <__libc_start_main+0x2ec>
   10ffc:	e59f22b4 	ldr	r2, [pc, #692]	; 112b8 <__libc_start_main+0x2f0>
   11000:	e59d5008 	ldr	r5, [sp, #8]
   11004:	e59d1138 	ldr	r1, [sp, #312]	; 0x138
   11008:	116f3f13 	clzne	r3, r3
   1100c:	e0850100 	add	r0, r5, r0, lsl #2
   11010:	11a032a3 	lsrne	r3, r3, #5
   11014:	e58e0000 	str	r0, [lr]
   11018:	e58c3000 	str	r3, [ip]
   1101c:	e5821000 	str	r1, [r2]
   11020:	e4903004 	ldr	r3, [r0], #4
   11024:	e3530000 	cmp	r3, #0
   11028:	1afffffc 	bne	11020 <__libc_start_main+0x58>
   1102c:	eb006acc 	bl	2bb64 <_dl_aux_init>
   11030:	e59f1284 	ldr	r1, [pc, #644]	; 112bc <__libc_start_main+0x2f4>
   11034:	e59f2284 	ldr	r2, [pc, #644]	; 112c0 <__libc_start_main+0x2f8>
   11038:	e5910000 	ldr	r0, [r1]
   1103c:	e3520000 	cmp	r2, #0
   11040:	01a03002 	moveq	r3, r2
   11044:	13a03001 	movne	r3, #1
   11048:	e3500000 	cmp	r0, #0
   1104c:	13a03000 	movne	r3, #0
   11050:	02033001 	andeq	r3, r3, #1
   11054:	e3530000 	cmp	r3, #0
   11058:	1a000014 	bne	110b0 <__libc_start_main+0xe8>
   1105c:	eb006dea 	bl	2c80c <__libc_init_secure>
   11060:	e59f3248 	ldr	r3, [pc, #584]	; 112b0 <__libc_start_main+0x2e8>
   11064:	e59f5258 	ldr	r5, [pc, #600]	; 112c4 <__libc_start_main+0x2fc>
   11068:	e59f7258 	ldr	r7, [pc, #600]	; 112c8 <__libc_start_main+0x300>
   1106c:	e5930000 	ldr	r0, [r3]
   11070:	eb006939 	bl	2b55c <__tunables_init>
   11074:	e59f6250 	ldr	r6, [pc, #592]	; 112cc <__libc_start_main+0x304>
   11078:	ea000004 	b	11090 <__libc_start_main+0xc8>
   1107c:	e5983000 	ldr	r3, [r8]
   11080:	e5960000 	ldr	r0, [r6]
   11084:	e12fff33 	blx	r3
   11088:	e2855008 	add	r5, r5, #8
   1108c:	e5880000 	str	r0, [r8]
   11090:	e1550007 	cmp	r5, r7
   11094:	2a000014 	bcs	110ec <__libc_start_main+0x124>
   11098:	e5d53004 	ldrb	r3, [r5, #4]
   1109c:	e5958000 	ldr	r8, [r5]
   110a0:	e35300a0 	cmp	r3, #160	; 0xa0
   110a4:	0afffff4 	beq	1107c <__libc_start_main+0xb4>
   110a8:	e59f0220 	ldr	r0, [pc, #544]	; 112d0 <__libc_start_main+0x308>
   110ac:	eb002616 	bl	1a90c <__libc_fatal>
   110b0:	e1d232ba 	ldrh	r3, [r2, #42]	; 0x2a
   110b4:	e3530020 	cmp	r3, #32
   110b8:	0a000004 	beq	110d0 <__libc_start_main+0x108>
   110bc:	e59f3210 	ldr	r3, [pc, #528]	; 112d4 <__libc_start_main+0x30c>
   110c0:	e3a020b4 	mov	r2, #180	; 0xb4
   110c4:	e59f120c 	ldr	r1, [pc, #524]	; 112d8 <__libc_start_main+0x310>
   110c8:	e59f020c 	ldr	r0, [pc, #524]	; 112dc <__libc_start_main+0x314>
   110cc:	eb000220 	bl	11954 <__assert_fail>
   110d0:	e592301c 	ldr	r3, [r2, #28]
   110d4:	e1d202bc 	ldrh	r0, [r2, #44]	; 0x2c
   110d8:	e0832002 	add	r2, r3, r2
   110dc:	e59f31fc 	ldr	r3, [pc, #508]	; 112e0 <__libc_start_main+0x318>
   110e0:	e5812000 	str	r2, [r1]
   110e4:	e5830000 	str	r0, [r3]
   110e8:	eaffffdb 	b	1105c <__libc_start_main+0x94>
   110ec:	eb0000c1 	bl	113f8 <__libc_setup_tls>
   110f0:	e59f31ec 	ldr	r3, [pc, #492]	; 112e4 <__libc_start_main+0x31c>
   110f4:	e59f11b8 	ldr	r1, [pc, #440]	; 112b4 <__libc_start_main+0x2ec>
   110f8:	e59f21e8 	ldr	r2, [pc, #488]	; 112e8 <__libc_start_main+0x320>
   110fc:	e5933000 	ldr	r3, [r3]
   11100:	e5911000 	ldr	r1, [r1]
   11104:	e5933000 	ldr	r3, [r3]
   11108:	e3510000 	cmp	r1, #0
   1110c:	e3c330ff 	bic	r3, r3, #255	; 0xff
   11110:	e5823000 	str	r3, [r2]
   11114:	0a000051 	beq	11260 <__libc_start_main+0x298>
   11118:	e59f31cc 	ldr	r3, [pc, #460]	; 112ec <__libc_start_main+0x324>
   1111c:	e3530000 	cmp	r3, #0
   11120:	0a000000 	beq	11128 <__libc_start_main+0x160>
   11124:	e1a00000 	nop			; (mov r0, r0)
   11128:	e59f21b4 	ldr	r2, [pc, #436]	; 112e4 <__libc_start_main+0x31c>
   1112c:	e59f31b4 	ldr	r3, [pc, #436]	; 112e8 <__libc_start_main+0x320>
   11130:	e59d1134 	ldr	r1, [sp, #308]	; 0x134
   11134:	e5922000 	ldr	r2, [r2]
   11138:	e3510000 	cmp	r1, #0
   1113c:	e5922004 	ldr	r2, [r2, #4]
   11140:	e5832004 	str	r2, [r3, #4]
   11144:	0a000003 	beq	11158 <__libc_start_main+0x190>
   11148:	e3a02000 	mov	r2, #0
   1114c:	e1a01002 	mov	r1, r2
   11150:	e59d0134 	ldr	r0, [sp, #308]	; 0x134
   11154:	eb001643 	bl	16a68 <__cxa_atexit>
   11158:	e59f3150 	ldr	r3, [pc, #336]	; 112b0 <__libc_start_main+0x2e8>
   1115c:	e1cd00d4 	ldrd	r0, [sp, #4]
   11160:	e5932000 	ldr	r2, [r3]
   11164:	eb006e10 	bl	2c9ac <__libc_init_first>
   11168:	e59d3130 	ldr	r3, [sp, #304]	; 0x130
   1116c:	e3530000 	cmp	r3, #0
   11170:	0a000003 	beq	11184 <__libc_start_main+0x1bc>
   11174:	e3a02000 	mov	r2, #0
   11178:	e1a01002 	mov	r1, r2
   1117c:	e59d0130 	ldr	r0, [sp, #304]	; 0x130
   11180:	eb001638 	bl	16a68 <__cxa_atexit>
   11184:	e59f3164 	ldr	r3, [pc, #356]	; 112f0 <__libc_start_main+0x328>
   11188:	e5933000 	ldr	r3, [r3]
   1118c:	e3530000 	cmp	r3, #0
   11190:	1a000030 	bne	11258 <__libc_start_main+0x290>
   11194:	e3540000 	cmp	r4, #0
   11198:	0a000003 	beq	111ac <__libc_start_main+0x1e4>
   1119c:	e59f310c 	ldr	r3, [pc, #268]	; 112b0 <__libc_start_main+0x2e8>
   111a0:	e1cd00d4 	ldrd	r0, [sp, #4]
   111a4:	e5932000 	ldr	r2, [r3]
   111a8:	e12fff34 	blx	r4
   111ac:	e3a01000 	mov	r1, #0
   111b0:	e1a00001 	mov	r0, r1
   111b4:	eb00687b 	bl	2b3a8 <_dl_debug_initialize>
   111b8:	e28d0010 	add	r0, sp, #16
   111bc:	eb001343 	bl	15ed0 <_setjmp>
   111c0:	e3500000 	cmp	r0, #0
   111c4:	1a00000d 	bne	11200 <__libc_start_main+0x238>
   111c8:	eb000180 	bl	117d0 <__aeabi_read_tp>
   111cc:	e59f20dc 	ldr	r2, [pc, #220]	; 112b0 <__libc_start_main+0x2e8>
   111d0:	e510c440 	ldr	ip, [r0, #-1088]	; 0xfffffbc0
   111d4:	e1a03000 	mov	r3, r0
   111d8:	e58dc118 	str	ip, [sp, #280]	; 0x118
   111dc:	e28dc010 	add	ip, sp, #16
   111e0:	e5922000 	ldr	r2, [r2]
   111e4:	e503c440 	str	ip, [r3, #-1088]	; 0xfffffbc0
   111e8:	e5133444 	ldr	r3, [r3, #-1092]	; 0xfffffbbc
   111ec:	e1cd00d4 	ldrd	r0, [sp, #4]
   111f0:	e58d311c 	str	r3, [sp, #284]	; 0x11c
   111f4:	e59d300c 	ldr	r3, [sp, #12]
   111f8:	e12fff33 	blx	r3
   111fc:	eb00157f 	bl	16800 <exit>
   11200:	e1a00000 	nop			; (mov r0, r0)
   11204:	e59f20e8 	ldr	r2, [pc, #232]	; 112f4 <__libc_start_main+0x32c>
   11208:	e5923000 	ldr	r3, [r2]
   1120c:	e2431001 	sub	r1, r3, #1
   11210:	e1920f9f 	ldrex	r0, [r2]
   11214:	e1500003 	cmp	r0, r3
   11218:	1a000003 	bne	1122c <__libc_start_main+0x264>
   1121c:	e182cf91 	strex	ip, r1, [r2]
   11220:	e35c0000 	cmp	ip, #0
   11224:	1afffff9 	bne	11210 <__libc_start_main+0x248>
   11228:	ee070fba 	mcr	15, 0, r0, cr7, cr10, {5}
   1122c:	1afffff5 	bne	11208 <__libc_start_main+0x240>
   11230:	e3530001 	cmp	r3, #1
   11234:	0a000005 	beq	11250 <__libc_start_main+0x288>
   11238:	e3a02000 	mov	r2, #0
   1123c:	e3a03001 	mov	r3, #1
   11240:	e1a00002 	mov	r0, r2
   11244:	e1a07003 	mov	r7, r3
   11248:	ef000000 	svc	0x00000000
   1124c:	eafffffb 	b	11240 <__libc_start_main+0x278>
   11250:	e3a00000 	mov	r0, #0
   11254:	eaffffe8 	b	111fc <__libc_start_main+0x234>
   11258:	eb00005a 	bl	113c8 <__libc_check_standard_fds>
   1125c:	eaffffcc 	b	11194 <__libc_start_main+0x1cc>
   11260:	eb006d8e 	bl	2c8a0 <_dl_discover_osversion>
   11264:	e3500000 	cmp	r0, #0
   11268:	ba00000a 	blt	11298 <__libc_start_main+0x2d0>
   1126c:	e59f3084 	ldr	r3, [pc, #132]	; 112f8 <__libc_start_main+0x330>
   11270:	e5933000 	ldr	r3, [r3]
   11274:	e3530000 	cmp	r3, #0
   11278:	1a000008 	bne	112a0 <__libc_start_main+0x2d8>
   1127c:	e59f3074 	ldr	r3, [pc, #116]	; 112f8 <__libc_start_main+0x330>
   11280:	e5830000 	str	r0, [r3]
   11284:	e59f3070 	ldr	r3, [pc, #112]	; 112fc <__libc_start_main+0x334>
   11288:	e1500003 	cmp	r0, r3
   1128c:	caffffa1 	bgt	11118 <__libc_start_main+0x150>
   11290:	e59f0068 	ldr	r0, [pc, #104]	; 11300 <__libc_start_main+0x338>
   11294:	eb00259c 	bl	1a90c <__libc_fatal>
   11298:	e59f0064 	ldr	r0, [pc, #100]	; 11304 <__libc_start_main+0x33c>
   1129c:	eb00259a 	bl	1a90c <__libc_fatal>
   112a0:	e1530000 	cmp	r3, r0
   112a4:	9afffff6 	bls	11284 <__libc_start_main+0x2bc>
   112a8:	eafffff3 	b	1127c <__libc_start_main+0x2b4>
   112ac:	00000000 	.word	0x00000000
   112b0:	000838bc 	.word	0x000838bc
   112b4:	00083104 	.word	0x00083104
   112b8:	0008243c 	.word	0x0008243c
   112bc:	00083d94 	.word	0x00083d94
   112c0:	00000000 	.word	0x00000000
   112c4:	00010118 	.word	0x00010118
   112c8:	00010118 	.word	0x00010118
   112cc:	000838d8 	.word	0x000838d8
   112d0:	0006cab0 	.word	0x0006cab0
   112d4:	0006cb1c 	.word	0x0006cb1c
   112d8:	0006ca70 	.word	0x0006ca70
   112dc:	0006ca80 	.word	0x0006ca80
   112e0:	00083db4 	.word	0x00083db4
   112e4:	000823f8 	.word	0x000823f8
   112e8:	00082000 	.word	0x00082000
   112ec:	00000000 	.word	0x00000000
   112f0:	00082440 	.word	0x00082440
   112f4:	00000000 	.word	0x00000000
   112f8:	00083dc4 	.word	0x00083dc4
   112fc:	000301ff 	.word	0x000301ff
   11300:	0006cadc 	.word	0x0006cadc
   11304:	0006caf4 	.word	0x0006caf4

00011308 <check_one_fd>:
   11308:	e92d40f0 	push	{r4, r5, r6, r7, lr}
   1130c:	e1a04001 	mov	r4, r1
   11310:	e24dd06c 	sub	sp, sp, #108	; 0x6c
   11314:	e3a01001 	mov	r1, #1
   11318:	e1a05000 	mov	r5, r0
   1131c:	eb006218 	bl	29b84 <__fcntl64_nocancel>
   11320:	e3700001 	cmn	r0, #1
   11324:	0a000001 	beq	11330 <check_one_fd+0x28>
   11328:	e28dd06c 	add	sp, sp, #108	; 0x6c
   1132c:	e8bd80f0 	pop	{r4, r5, r6, r7, pc}
   11330:	e59f307c 	ldr	r3, [pc, #124]	; 113b4 <check_one_fd+0xac>
   11334:	eb000125 	bl	117d0 <__aeabi_read_tp>
   11338:	e79f3003 	ldr	r3, [pc, r3]
   1133c:	e7903003 	ldr	r3, [r0, r3]
   11340:	e3530009 	cmp	r3, #9
   11344:	1afffff7 	bne	11328 <check_one_fd+0x20>
   11348:	e3540902 	cmp	r4, #32768	; 0x8000
   1134c:	e1a01004 	mov	r1, r4
   11350:	059f0060 	ldreq	r0, [pc, #96]	; 113b8 <check_one_fd+0xb0>
   11354:	159f0060 	ldrne	r0, [pc, #96]	; 113bc <check_one_fd+0xb4>
   11358:	e3a02000 	mov	r2, #0
   1135c:	059f605c 	ldreq	r6, [pc, #92]	; 113c0 <check_one_fd+0xb8>
   11360:	03a07000 	moveq	r7, #0
   11364:	159f6058 	ldrne	r6, [pc, #88]	; 113c4 <check_one_fd+0xbc>
   11368:	13a07000 	movne	r7, #0
   1136c:	eb006219 	bl	29bd8 <__open_nocancel>
   11370:	e1550000 	cmp	r5, r0
   11374:	1a00000d 	bne	113b0 <check_one_fd+0xa8>
   11378:	e1a01005 	mov	r1, r5
   1137c:	e1a0200d 	mov	r2, sp
   11380:	e3a00003 	mov	r0, #3
   11384:	eb005e03 	bl	28b98 <___fxstat64>
   11388:	e3500000 	cmp	r0, #0
   1138c:	1a000007 	bne	113b0 <check_one_fd+0xa8>
   11390:	e59d3010 	ldr	r3, [sp, #16]
   11394:	e2033a0f 	and	r3, r3, #61440	; 0xf000
   11398:	e3530a02 	cmp	r3, #8192	; 0x2000
   1139c:	1a000003 	bne	113b0 <check_one_fd+0xa8>
   113a0:	e1cd22d0 	ldrd	r2, [sp, #32]
   113a4:	e1530007 	cmp	r3, r7
   113a8:	01520006 	cmpeq	r2, r6
   113ac:	0affffdd 	beq	11328 <check_one_fd+0x20>
   113b0:	e7f000f0 	udf	#0
   113b4:	0007116c 	.word	0x0007116c
   113b8:	0006cb3c 	.word	0x0006cb3c
   113bc:	0006cb30 	.word	0x0006cb30
   113c0:	00000103 	.word	0x00000103
   113c4:	00000107 	.word	0x00000107

000113c8 <__libc_check_standard_fds>:
   113c8:	e92d4010 	push	{r4, lr}
   113cc:	e3a00000 	mov	r0, #0
   113d0:	e59f101c 	ldr	r1, [pc, #28]	; 113f4 <__libc_check_standard_fds+0x2c>
   113d4:	ebffffcb 	bl	11308 <check_one_fd>
   113d8:	e3a01902 	mov	r1, #32768	; 0x8000
   113dc:	e3a00001 	mov	r0, #1
   113e0:	ebffffc8 	bl	11308 <check_one_fd>
   113e4:	e3a01902 	mov	r1, #32768	; 0x8000
   113e8:	e3a00002 	mov	r0, #2
   113ec:	e8bd4010 	pop	{r4, lr}
   113f0:	eaffffc4 	b	11308 <check_one_fd>
   113f4:	00008001 	.word	0x00008001

000113f8 <__libc_setup_tls>:
   113f8:	e59f2278 	ldr	r2, [pc, #632]	; 11678 <__libc_setup_tls+0x280>
   113fc:	e92d4ff0 	push	{r4, r5, r6, r7, r8, r9, sl, fp, lr}
   11400:	e24dd01c 	sub	sp, sp, #28
   11404:	e59f3270 	ldr	r3, [pc, #624]	; 1167c <__libc_setup_tls+0x284>
   11408:	e5924000 	ldr	r4, [r2]
   1140c:	e3540000 	cmp	r4, #0
   11410:	e5936000 	ldr	r6, [r3]
   11414:	0a00007a 	beq	11604 <__libc_setup_tls+0x20c>
   11418:	e59f3260 	ldr	r3, [pc, #608]	; 11680 <__libc_setup_tls+0x288>
   1141c:	e5932000 	ldr	r2, [r3]
   11420:	e0842282 	add	r2, r4, r2, lsl #5
   11424:	e1540002 	cmp	r4, r2
   11428:	3a000003 	bcc	1143c <__libc_setup_tls+0x44>
   1142c:	ea000086 	b	1164c <__libc_setup_tls+0x254>
   11430:	e2844020 	add	r4, r4, #32
   11434:	e1540002 	cmp	r4, r2
   11438:	2a000063 	bcs	115cc <__libc_setup_tls+0x1d4>
   1143c:	e5943000 	ldr	r3, [r4]
   11440:	e3530007 	cmp	r3, #7
   11444:	1afffff9 	bne	11430 <__libc_setup_tls+0x38>
   11448:	e5943008 	ldr	r3, [r4, #8]
   1144c:	e5967000 	ldr	r7, [r6]
   11450:	e594801c 	ldr	r8, [r4, #28]
   11454:	e0877003 	add	r7, r7, r3
   11458:	e5943010 	ldr	r3, [r4, #16]
   1145c:	e3580010 	cmp	r8, #16
   11460:	e594b014 	ldr	fp, [r4, #20]
   11464:	e58d3008 	str	r3, [sp, #8]
   11468:	8a000072 	bhi	11638 <__libc_setup_tls+0x240>
   1146c:	e3580000 	cmp	r8, #0
   11470:	0a00007c 	beq	11668 <__libc_setup_tls+0x270>
   11474:	e3e0300f 	mvn	r3, #15
   11478:	e3a0500f 	mov	r5, #15
   1147c:	e58d300c 	str	r3, [sp, #12]
   11480:	e3a03010 	mov	r3, #16
   11484:	e58d3004 	str	r3, [sp, #4]
   11488:	e1a01008 	mov	r1, r8
   1148c:	e2880007 	add	r0, r8, #7
   11490:	eb01618c 	bl	69ac8 <__udivsi3>
   11494:	e1a04007 	mov	r4, r7
   11498:	e58d8010 	str	r8, [sp, #16]
   1149c:	e00a0098 	mul	sl, r8, r0
   114a0:	e1a0200a 	mov	r2, sl
   114a4:	e59f31d8 	ldr	r3, [pc, #472]	; 11684 <__libc_setup_tls+0x28c>
   114a8:	e58d2014 	str	r2, [sp, #20]
   114ac:	e59f91d4 	ldr	r9, [pc, #468]	; 11688 <__libc_setup_tls+0x290>
   114b0:	e5930000 	ldr	r0, [r3]
   114b4:	e59d3004 	ldr	r3, [sp, #4]
   114b8:	e2800d13 	add	r0, r0, #1216	; 0x4c0
   114bc:	e080000a 	add	r0, r0, sl
   114c0:	e080000b 	add	r0, r0, fp
   114c4:	e0800003 	add	r0, r0, r3
   114c8:	eb006249 	bl	29df4 <__sbrk>
   114cc:	e59d2014 	ldr	r2, [sp, #20]
   114d0:	e59d300c 	ldr	r3, [sp, #12]
   114d4:	e5862244 	str	r2, [r6, #580]	; 0x244
   114d8:	e3a0203e 	mov	r2, #62	; 0x3e
   114dc:	e5892000 	str	r2, [r9]
   114e0:	e3a02000 	mov	r2, #0
   114e4:	e5892014 	str	r2, [r9, #20]
   114e8:	e1a01004 	mov	r1, r4
   114ec:	e59d2008 	ldr	r2, [sp, #8]
   114f0:	e2899008 	add	r9, r9, #8
   114f4:	e59f7190 	ldr	r7, [pc, #400]	; 1168c <__libc_setup_tls+0x294>
   114f8:	e2800d13 	add	r0, r0, #1216	; 0x4c0
   114fc:	e0805005 	add	r5, r0, r5
   11500:	e0055003 	and	r5, r5, r3
   11504:	e085c00a 	add	ip, r5, sl
   11508:	e589c008 	str	ip, [r9, #8]
   1150c:	e1a0000c 	mov	r0, ip
   11510:	eb00589a 	bl	27780 <memcpy>
   11514:	e5859000 	str	r9, [r5]
   11518:	e1a00005 	mov	r0, r5
   1151c:	ef000000 	svc	0x00000000
   11520:	e3700a01 	cmn	r0, #4096	; 0x1000
   11524:	9a000001 	bls	11530 <__libc_setup_tls+0x138>
   11528:	e59f0160 	ldr	r0, [pc, #352]	; 11690 <__libc_setup_tls+0x298>
   1152c:	eb0024f6 	bl	1a90c <__libc_fatal>
   11530:	e59f215c 	ldr	r2, [pc, #348]	; 11694 <__libc_setup_tls+0x29c>
   11534:	e59dc008 	ldr	ip, [sp, #8]
   11538:	e59f0158 	ldr	r0, [pc, #344]	; 11698 <__libc_setup_tls+0x2a0>
   1153c:	e3580000 	cmp	r8, #0
   11540:	e59f1154 	ldr	r1, [pc, #340]	; 1169c <__libc_setup_tls+0x2a4>
   11544:	e586b238 	str	fp, [r6, #568]	; 0x238
   11548:	e5864230 	str	r4, [r6, #560]	; 0x230
   1154c:	108bb008 	addne	fp, fp, r8
   11550:	e586c234 	str	ip, [r6, #564]	; 0x234
   11554:	e59d4010 	ldr	r4, [sp, #16]
   11558:	e3a0c040 	mov	ip, #64	; 0x40
   1155c:	e5826014 	str	r6, [r2, #20]
   11560:	e582c000 	str	ip, [r2]
   11564:	e5802000 	str	r2, [r0]
   11568:	124bb001 	subne	fp, fp, #1
   1156c:	e3a02001 	mov	r2, #1
   11570:	e5812000 	str	r2, [r1]
   11574:	e5862248 	str	r2, [r6, #584]	; 0x248
   11578:	e1a01004 	mov	r1, r4
   1157c:	e586823c 	str	r8, [r6, #572]	; 0x23c
   11580:	e1a0000b 	mov	r0, fp
   11584:	eb01614f 	bl	69ac8 <__udivsi3>
   11588:	e59f30f4 	ldr	r3, [pc, #244]	; 11684 <__libc_setup_tls+0x28c>
   1158c:	e59fe10c 	ldr	lr, [pc, #268]	; 116a0 <__libc_setup_tls+0x2a8>
   11590:	e59f110c 	ldr	r1, [pc, #268]	; 116a4 <__libc_setup_tls+0x2ac>
   11594:	e5932000 	ldr	r2, [r3]
   11598:	e59fc108 	ldr	ip, [pc, #264]	; 116a8 <__libc_setup_tls+0x2b0>
   1159c:	e59d5004 	ldr	r5, [sp, #4]
   115a0:	e282200f 	add	r2, r2, #15
   115a4:	e58e5000 	str	r5, [lr]
   115a8:	e3a0e001 	mov	lr, #1
   115ac:	e58ce000 	str	lr, [ip]
   115b0:	e020a094 	mla	r0, r4, r0, sl
   115b4:	e0822000 	add	r2, r2, r0
   115b8:	e3c2200f 	bic	r2, r2, #15
   115bc:	e5810000 	str	r0, [r1]
   115c0:	e5832000 	str	r2, [r3]
   115c4:	e28dd01c 	add	sp, sp, #28
   115c8:	e8bd8ff0 	pop	{r4, r5, r6, r7, r8, r9, sl, fp, pc}
   115cc:	e3a04000 	mov	r4, #0
   115d0:	e3a0a008 	mov	sl, #8
   115d4:	e1a0200a 	mov	r2, sl
   115d8:	e1a08004 	mov	r8, r4
   115dc:	e1a0b004 	mov	fp, r4
   115e0:	e58d4008 	str	r4, [sp, #8]
   115e4:	e3e0300f 	mvn	r3, #15
   115e8:	e58d300c 	str	r3, [sp, #12]
   115ec:	e3a03010 	mov	r3, #16
   115f0:	e58d3004 	str	r3, [sp, #4]
   115f4:	e3a03001 	mov	r3, #1
   115f8:	e3a0500f 	mov	r5, #15
   115fc:	e58d3010 	str	r3, [sp, #16]
   11600:	eaffffa7 	b	114a4 <__libc_setup_tls+0xac>
   11604:	e3e0300f 	mvn	r3, #15
   11608:	e58d300c 	str	r3, [sp, #12]
   1160c:	e3a03010 	mov	r3, #16
   11610:	e3a0a008 	mov	sl, #8
   11614:	e58d3004 	str	r3, [sp, #4]
   11618:	e3a03001 	mov	r3, #1
   1161c:	e1a0200a 	mov	r2, sl
   11620:	e3a0500f 	mov	r5, #15
   11624:	e1a08004 	mov	r8, r4
   11628:	e58d4008 	str	r4, [sp, #8]
   1162c:	e1a0b004 	mov	fp, r4
   11630:	e58d3010 	str	r3, [sp, #16]
   11634:	eaffff9a 	b	114a4 <__libc_setup_tls+0xac>
   11638:	e2683000 	rsb	r3, r8, #0
   1163c:	e58d300c 	str	r3, [sp, #12]
   11640:	e2485001 	sub	r5, r8, #1
   11644:	e58d8004 	str	r8, [sp, #4]
   11648:	eaffff8e 	b	11488 <__libc_setup_tls+0x90>
   1164c:	e3a08000 	mov	r8, #0
   11650:	e3a0a008 	mov	sl, #8
   11654:	e1a0200a 	mov	r2, sl
   11658:	e1a04008 	mov	r4, r8
   1165c:	e58d8008 	str	r8, [sp, #8]
   11660:	e1a0b008 	mov	fp, r8
   11664:	eaffffde 	b	115e4 <__libc_setup_tls+0x1ec>
   11668:	e3a0a008 	mov	sl, #8
   1166c:	e1a04007 	mov	r4, r7
   11670:	e1a0200a 	mov	r2, sl
   11674:	eaffffda 	b	115e4 <__libc_setup_tls+0x1ec>
   11678:	00083d94 	.word	0x00083d94
   1167c:	000830a0 	.word	0x000830a0
   11680:	00083db4 	.word	0x00083db4
   11684:	000824f0 	.word	0x000824f0
   11688:	00083b28 	.word	0x00083b28
   1168c:	000f0005 	.word	0x000f0005
   11690:	0006cb48 	.word	0x0006cb48
   11694:	00083374 	.word	0x00083374
   11698:	00083d28 	.word	0x00083d28
   1169c:	00083b24 	.word	0x00083b24
   116a0:	00083b20 	.word	0x00083b20
   116a4:	00083b1c 	.word	0x00083b1c
   116a8:	00083d34 	.word	0x00083d34

000116ac <__tls_get_addr>:
   116ac:	e52de004 	push	{lr}		; (str lr, [sp, #-4]!)
   116b0:	e1a03000 	mov	r3, r0
   116b4:	eb000045 	bl	117d0 <__aeabi_read_tp>
   116b8:	e5902000 	ldr	r2, [r0]
   116bc:	e5933004 	ldr	r3, [r3, #4]
   116c0:	e5920008 	ldr	r0, [r2, #8]
   116c4:	e0800003 	add	r0, r0, r3
   116c8:	e49df004 	pop	{pc}		; (ldr pc, [sp], #4)

000116cc <__libc_csu_init>:
   116cc:	e92d47f0 	push	{r4, r5, r6, r7, r8, r9, sl, lr}
   116d0:	e1a06000 	mov	r6, r0
   116d4:	e59f9080 	ldr	r9, [pc, #128]	; 1175c <__libc_csu_init+0x90>
   116d8:	e59f5080 	ldr	r5, [pc, #128]	; 11760 <__libc_csu_init+0x94>
   116dc:	e1a07001 	mov	r7, r1
   116e0:	e0499005 	sub	r9, r9, r5
   116e4:	e1a08002 	mov	r8, r2
   116e8:	e1b09149 	asrs	r9, r9, #2
   116ec:	0a000009 	beq	11718 <__libc_csu_init+0x4c>
   116f0:	e2455004 	sub	r5, r5, #4
   116f4:	e3a04000 	mov	r4, #0
   116f8:	e2844001 	add	r4, r4, #1
   116fc:	e5b53004 	ldr	r3, [r5, #4]!
   11700:	e1a02008 	mov	r2, r8
   11704:	e1a01007 	mov	r1, r7
   11708:	e1a00006 	mov	r0, r6
   1170c:	e12fff33 	blx	r3
   11710:	e1590004 	cmp	r9, r4
   11714:	1afffff7 	bne	116f8 <__libc_csu_init+0x2c>
   11718:	e59f9044 	ldr	r9, [pc, #68]	; 11764 <__libc_csu_init+0x98>
   1171c:	e59f5044 	ldr	r5, [pc, #68]	; 11768 <__libc_csu_init+0x9c>
   11720:	ebfffa7c 	bl	10118 <__rel_iplt_end>
   11724:	e0499005 	sub	r9, r9, r5
   11728:	e1b09149 	asrs	r9, r9, #2
   1172c:	08bd87f0 	popeq	{r4, r5, r6, r7, r8, r9, sl, pc}
   11730:	e2455004 	sub	r5, r5, #4
   11734:	e3a04000 	mov	r4, #0
   11738:	e2844001 	add	r4, r4, #1
   1173c:	e5b53004 	ldr	r3, [r5, #4]!
   11740:	e1a02008 	mov	r2, r8
   11744:	e1a01007 	mov	r1, r7
   11748:	e1a00006 	mov	r0, r6
   1174c:	e12fff33 	blx	r3
   11750:	e1590004 	cmp	r9, r4
   11754:	1afffff7 	bne	11738 <__libc_csu_init+0x6c>
   11758:	e8bd87f0 	pop	{r4, r5, r6, r7, r8, r9, sl, pc}
   1175c:	00081ff4 	.word	0x00081ff4
   11760:	00081ff4 	.word	0x00081ff4
   11764:	00081ff8 	.word	0x00081ff8
   11768:	00081ff4 	.word	0x00081ff4

0001176c <__libc_csu_fini>:
   1176c:	e92d4070 	push	{r4, r5, r6, lr}
   11770:	e59f3034 	ldr	r3, [pc, #52]	; 117ac <__libc_csu_fini+0x40>
   11774:	e59f5034 	ldr	r5, [pc, #52]	; 117b0 <__libc_csu_fini+0x44>
   11778:	e0433005 	sub	r3, r3, r5
   1177c:	e1a03143 	asr	r3, r3, #2
   11780:	e3530000 	cmp	r3, #0
   11784:	0a000006 	beq	117a4 <__libc_csu_fini+0x38>
   11788:	e2434001 	sub	r4, r3, #1
   1178c:	e0855103 	add	r5, r5, r3, lsl #2
   11790:	e2444001 	sub	r4, r4, #1
   11794:	e5353004 	ldr	r3, [r5, #-4]!
   11798:	e12fff33 	blx	r3
   1179c:	e3740001 	cmn	r4, #1
   117a0:	1afffffa 	bne	11790 <__libc_csu_fini+0x24>
   117a4:	e8bd4070 	pop	{r4, r5, r6, lr}
   117a8:	ea016c14 	b	6c800 <_fini>
   117ac:	00082000 	.word	0x00082000
   117b0:	00081ff8 	.word	0x00081ff8

000117b4 <__errno_location>:
   117b4:	e59f3010 	ldr	r3, [pc, #16]	; 117cc <__errno_location+0x18>
   117b8:	e52de004 	push	{lr}		; (str lr, [sp, #-4]!)
   117bc:	eb000003 	bl	117d0 <__aeabi_read_tp>
   117c0:	e79f3003 	ldr	r3, [pc, r3]
   117c4:	e0800003 	add	r0, r0, r3
   117c8:	e49df004 	pop	{pc}		; (ldr pc, [sp], #4)
   117cc:	00070ce4 	.word	0x00070ce4

000117d0 <__aeabi_read_tp>:
   117d0:	e3e00a0f 	mvn	r0, #61440	; 0xf000
   117d4:	e240f01f 	sub	pc, r0, #31

000117d8 <__assert_fail_base>:
   117d8:	e92d4080 	push	{r7, lr}
   117dc:	e1a05000 	mov	r5, r0
   117e0:	e59fe144 	ldr	lr, [pc, #324]	; 1192c <__assert_fail_base+0x154>
   117e4:	e59fc144 	ldr	ip, [pc, #324]	; 11930 <__assert_fail_base+0x158>
   117e8:	e24dd028 	sub	sp, sp, #40	; 0x28
   117ec:	e59e0000 	ldr	r0, [lr]
   117f0:	e35c0000 	cmp	ip, #0
   117f4:	e1a06001 	mov	r6, r1
   117f8:	e1a07002 	mov	r7, r2
   117fc:	e1a08003 	mov	r8, r3
   11800:	e58d0024 	str	r0, [sp, #36]	; 0x24
   11804:	e59d4030 	ldr	r4, [sp, #48]	; 0x30
   11808:	0a000002 	beq	11818 <__assert_fail_base+0x40>
   1180c:	e3a01000 	mov	r1, #0
   11810:	e3a00001 	mov	r0, #1
   11814:	e1a00000 	nop			; (mov r0, r0)
   11818:	e59f3114 	ldr	r3, [pc, #276]	; 11934 <__assert_fail_base+0x15c>
   1181c:	e59f1114 	ldr	r1, [pc, #276]	; 11938 <__assert_fail_base+0x160>
   11820:	e59fc114 	ldr	ip, [pc, #276]	; 1193c <__assert_fail_base+0x164>
   11824:	e5932000 	ldr	r2, [r3]
   11828:	e5d20000 	ldrb	r0, [r2]
   1182c:	e58d6010 	str	r6, [sp, #16]
   11830:	e88d0180 	stm	sp, {r7, r8}
   11834:	e3500000 	cmp	r0, #0
   11838:	11a03001 	movne	r3, r1
   1183c:	01a0300c 	moveq	r3, ip
   11840:	e3540000 	cmp	r4, #0
   11844:	01a0400c 	moveq	r4, ip
   11848:	01a01004 	moveq	r1, r4
   1184c:	e28d0020 	add	r0, sp, #32
   11850:	e58d100c 	str	r1, [sp, #12]
   11854:	e58d0014 	str	r0, [sp, #20]
   11858:	e58d4008 	str	r4, [sp, #8]
   1185c:	e1a01005 	mov	r1, r5
   11860:	e28d001c 	add	r0, sp, #28
   11864:	eb001817 	bl	178c8 <___asprintf>
   11868:	e3500000 	cmp	r0, #0
   1186c:	ba000029 	blt	11918 <__assert_fail_base+0x140>
   11870:	e59d201c 	ldr	r2, [sp, #28]
   11874:	e59f10c4 	ldr	r1, [pc, #196]	; 11940 <__assert_fail_base+0x168>
   11878:	e3a00000 	mov	r0, #0
   1187c:	eb001948 	bl	17da4 <__fxprintf>
   11880:	e59f30bc 	ldr	r3, [pc, #188]	; 11944 <__assert_fail_base+0x16c>
   11884:	e5930000 	ldr	r0, [r3]
   11888:	eb001b2c 	bl	18540 <_IO_fflush>
   1188c:	e59f30b4 	ldr	r3, [pc, #180]	; 11948 <__assert_fail_base+0x170>
   11890:	e59dc020 	ldr	ip, [sp, #32]
   11894:	e3a00000 	mov	r0, #0
   11898:	e5933000 	ldr	r3, [r3]
   1189c:	e3e02000 	mvn	r2, #0
   118a0:	e083c00c 	add	ip, r3, ip
   118a4:	e2633000 	rsb	r3, r3, #0
   118a8:	e00cc003 	and	ip, ip, r3
   118ac:	e58d2000 	str	r2, [sp]
   118b0:	e1a0100c 	mov	r1, ip
   118b4:	e58d0004 	str	r0, [sp, #4]
   118b8:	e3a03022 	mov	r3, #34	; 0x22
   118bc:	e3a02003 	mov	r2, #3
   118c0:	e58dc020 	str	ip, [sp, #32]
   118c4:	eb00619c 	bl	29f3c <__mmap>
   118c8:	e3700001 	cmn	r0, #1
   118cc:	e1a04000 	mov	r4, r0
   118d0:	0a00000d 	beq	1190c <__assert_fail_base+0x134>
   118d4:	e59d3020 	ldr	r3, [sp, #32]
   118d8:	e59d101c 	ldr	r1, [sp, #28]
   118dc:	e4803004 	str	r3, [r0], #4
   118e0:	eb005172 	bl	25eb0 <strcpy>
   118e4:	e59f3060 	ldr	r3, [pc, #96]	; 1194c <__assert_fail_base+0x174>
   118e8:	e1930f9f 	ldrex	r0, [r3]
   118ec:	e1832f94 	strex	r2, r4, [r3]
   118f0:	e3520000 	cmp	r2, #0
   118f4:	1afffffb 	bne	118e8 <__assert_fail_base+0x110>
   118f8:	e3500000 	cmp	r0, #0
   118fc:	ee070fba 	mcr	15, 0, r0, cr7, cr10, {5}
   11900:	0a000001 	beq	1190c <__assert_fail_base+0x134>
   11904:	e5901000 	ldr	r1, [r0]
   11908:	eb0061d0 	bl	2a050 <__munmap>
   1190c:	e59d001c 	ldr	r0, [sp, #28]
   11910:	eb004c69 	bl	24abc <__free>
   11914:	ebfffa05 	bl	10130 <abort>
   11918:	e3a02012 	mov	r2, #18
   1191c:	e59f102c 	ldr	r1, [pc, #44]	; 11950 <__assert_fail_base+0x178>
   11920:	e3a00002 	mov	r0, #2
   11924:	eb005d27 	bl	28dc8 <__libc_write>
   11928:	eafffff9 	b	11914 <__assert_fail_base+0x13c>
   1192c:	00082000 	.word	0x00082000
   11930:	00000000 	.word	0x00000000
   11934:	00082dd0 	.word	0x00082dd0
   11938:	0006cb58 	.word	0x0006cb58
   1193c:	00080e24 	.word	0x00080e24
   11940:	00080bf8 	.word	0x00080bf8
   11944:	0008290c 	.word	0x0008290c
   11948:	00082dd8 	.word	0x00082dd8
   1194c:	00083630 	.word	0x00083630
   11950:	0006cb88 	.word	0x0006cb88

00011954 <__assert_fail>:
   11954:	e92d4080 	push	{r7, lr}
   11958:	e24dd008 	sub	sp, sp, #8
   1195c:	e1a07003 	mov	r7, r3
   11960:	e1a04000 	mov	r4, r0
   11964:	e1a05001 	mov	r5, r1
   11968:	e1a06002 	mov	r6, r2
   1196c:	e59f101c 	ldr	r1, [pc, #28]	; 11990 <__assert_fail+0x3c>
   11970:	e3a02005 	mov	r2, #5
   11974:	e59f0018 	ldr	r0, [pc, #24]	; 11994 <__assert_fail+0x40>
   11978:	eb000006 	bl	11998 <__dcgettext>
   1197c:	e58d7000 	str	r7, [sp]
   11980:	e1a03006 	mov	r3, r6
   11984:	e1a02005 	mov	r2, r5
   11988:	e1a01004 	mov	r1, r4
   1198c:	ebffff91 	bl	117d8 <__assert_fail_base>
   11990:	0006cb5c 	.word	0x0006cb5c
   11994:	0007bc3c 	.word	0x0007bc3c

00011998 <__dcgettext>:
   11998:	e52de004 	push	{lr}		; (str lr, [sp, #-4]!)
   1199c:	e24dd00c 	sub	sp, sp, #12
   119a0:	e3a03000 	mov	r3, #0
   119a4:	e58d2004 	str	r2, [sp, #4]
   119a8:	e58d3000 	str	r3, [sp]
   119ac:	e1a02003 	mov	r2, r3
   119b0:	eb000342 	bl	126c0 <__dcigettext>
   119b4:	e28dd00c 	add	sp, sp, #12
   119b8:	e49df004 	pop	{pc}		; (ldr pc, [sp], #4)

000119bc <plural_eval>:
   119bc:	e92d41f0 	push	{r4, r5, r6, r7, r8, lr}
   119c0:	e1a04000 	mov	r4, r0
   119c4:	e1a06001 	mov	r6, r1
   119c8:	e5943000 	ldr	r3, [r4]
   119cc:	e3530003 	cmp	r3, #3
   119d0:	979ff103 	ldrls	pc, [pc, r3, lsl #2]
   119d4:	ea000033 	b	11aa8 <plural_eval+0xec>
   119d8:	00011a90 	.word	0x00011a90
   119dc:	00011a74 	.word	0x00011a74
   119e0:	00011a08 	.word	0x00011a08
   119e4:	000119e8 	.word	0x000119e8
   119e8:	e5940008 	ldr	r0, [r4, #8]
   119ec:	e1a01006 	mov	r1, r6
   119f0:	ebfffff1 	bl	119bc <plural_eval>
   119f4:	e3500000 	cmp	r0, #0
   119f8:	13a03003 	movne	r3, #3
   119fc:	03a03004 	moveq	r3, #4
   11a00:	e7944103 	ldr	r4, [r4, r3, lsl #2]
   11a04:	eaffffef 	b	119c8 <plural_eval+0xc>
   11a08:	e1a01006 	mov	r1, r6
   11a0c:	e5940008 	ldr	r0, [r4, #8]
   11a10:	ebffffe9 	bl	119bc <plural_eval>
   11a14:	e5947004 	ldr	r7, [r4, #4]
   11a18:	e357000f 	cmp	r7, #15
   11a1c:	e1a05000 	mov	r5, r0
   11a20:	0a000025 	beq	11abc <plural_eval+0x100>
   11a24:	e357000e 	cmp	r7, #14
   11a28:	0a00002c 	beq	11ae0 <plural_eval+0x124>
   11a2c:	e1a01006 	mov	r1, r6
   11a30:	e594000c 	ldr	r0, [r4, #12]
   11a34:	e2477003 	sub	r7, r7, #3
   11a38:	ebffffdf 	bl	119bc <plural_eval>
   11a3c:	e357000a 	cmp	r7, #10
   11a40:	979ff107 	ldrls	pc, [pc, r7, lsl #2]
   11a44:	ea000017 	b	11aa8 <plural_eval+0xec>
   11a48:	00011b80 	.word	0x00011b80
   11a4c:	00011b6c 	.word	0x00011b6c
   11a50:	00011b58 	.word	0x00011b58
   11a54:	00011b50 	.word	0x00011b50
   11a58:	00011b48 	.word	0x00011b48
   11a5c:	00011b38 	.word	0x00011b38
   11a60:	00011b28 	.word	0x00011b28
   11a64:	00011b18 	.word	0x00011b18
   11a68:	00011b08 	.word	0x00011b08
   11a6c:	00011af8 	.word	0x00011af8
   11a70:	00011aec 	.word	0x00011aec
   11a74:	e1a01006 	mov	r1, r6
   11a78:	e5940008 	ldr	r0, [r4, #8]
   11a7c:	ebffffce 	bl	119bc <plural_eval>
   11a80:	e16f5f10 	clz	r5, r0
   11a84:	e1a052a5 	lsr	r5, r5, #5
   11a88:	e1a00005 	mov	r0, r5
   11a8c:	e8bd81f0 	pop	{r4, r5, r6, r7, r8, pc}
   11a90:	e5943004 	ldr	r3, [r4, #4]
   11a94:	e3530000 	cmp	r3, #0
   11a98:	01a05006 	moveq	r5, r6
   11a9c:	0afffff9 	beq	11a88 <plural_eval+0xcc>
   11aa0:	e3530001 	cmp	r3, #1
   11aa4:	0a000002 	beq	11ab4 <plural_eval+0xf8>
   11aa8:	e3a05000 	mov	r5, #0
   11aac:	e1a00005 	mov	r0, r5
   11ab0:	e8bd81f0 	pop	{r4, r5, r6, r7, r8, pc}
   11ab4:	e5945008 	ldr	r5, [r4, #8]
   11ab8:	eafffff2 	b	11a88 <plural_eval+0xcc>
   11abc:	e3500000 	cmp	r0, #0
   11ac0:	13a05001 	movne	r5, #1
   11ac4:	1affffef 	bne	11a88 <plural_eval+0xcc>
   11ac8:	e1a01006 	mov	r1, r6
   11acc:	e594000c 	ldr	r0, [r4, #12]
   11ad0:	ebffffb9 	bl	119bc <plural_eval>
   11ad4:	e2905000 	adds	r5, r0, #0
   11ad8:	13a05001 	movne	r5, #1
   11adc:	eaffffe9 	b	11a88 <plural_eval+0xcc>
   11ae0:	e3500000 	cmp	r0, #0
   11ae4:	0affffe7 	beq	11a88 <plural_eval+0xcc>
   11ae8:	eafffff6 	b	11ac8 <plural_eval+0x10c>
   11aec:	e0555000 	subs	r5, r5, r0
   11af0:	13a05001 	movne	r5, #1
   11af4:	eaffffe3 	b	11a88 <plural_eval+0xcc>
   11af8:	e0455000 	sub	r5, r5, r0
   11afc:	e16f5f15 	clz	r5, r5
   11b00:	e1a052a5 	lsr	r5, r5, #5
   11b04:	eaffffdf 	b	11a88 <plural_eval+0xcc>
   11b08:	e1550000 	cmp	r5, r0
   11b0c:	33a05000 	movcc	r5, #0
   11b10:	23a05001 	movcs	r5, #1
   11b14:	eaffffdb 	b	11a88 <plural_eval+0xcc>
   11b18:	e1550000 	cmp	r5, r0
   11b1c:	83a05000 	movhi	r5, #0
   11b20:	93a05001 	movls	r5, #1
   11b24:	eaffffd7 	b	11a88 <plural_eval+0xcc>
   11b28:	e1550000 	cmp	r5, r0
   11b2c:	93a05000 	movls	r5, #0
   11b30:	83a05001 	movhi	r5, #1
   11b34:	eaffffd3 	b	11a88 <plural_eval+0xcc>
   11b38:	e1550000 	cmp	r5, r0
   11b3c:	23a05000 	movcs	r5, #0
   11b40:	33a05001 	movcc	r5, #1
   11b44:	eaffffcf 	b	11a88 <plural_eval+0xcc>
   11b48:	e0455000 	sub	r5, r5, r0
   11b4c:	eaffffcd 	b	11a88 <plural_eval+0xcc>
   11b50:	e0855000 	add	r5, r5, r0
   11b54:	eaffffcb 	b	11a88 <plural_eval+0xcc>
   11b58:	e1a01000 	mov	r1, r0
   11b5c:	e1a00005 	mov	r0, r5
   11b60:	eb016053 	bl	69cb4 <__aeabi_uidivmod>
   11b64:	e1a05001 	mov	r5, r1
   11b68:	eaffffc6 	b	11a88 <plural_eval+0xcc>
   11b6c:	e1a01000 	mov	r1, r0
   11b70:	e1a00005 	mov	r0, r5
   11b74:	eb015fd3 	bl	69ac8 <__udivsi3>
   11b78:	e1a05000 	mov	r5, r0
   11b7c:	eaffffc1 	b	11a88 <plural_eval+0xcc>
   11b80:	e0050590 	mul	r5, r0, r5
   11b84:	eaffffbf 	b	11a88 <plural_eval+0xcc>

00011b88 <transcmp>:
   11b88:	e5903010 	ldr	r3, [r0, #16]
   11b8c:	e92d4070 	push	{r4, r5, r6, lr}
   11b90:	e3530000 	cmp	r3, #0
   11b94:	e1a05000 	mov	r5, r0
   11b98:	e5913010 	ldr	r3, [r1, #16]
   11b9c:	e1a04001 	mov	r4, r1
   11ba0:	1280001c 	addne	r0, r0, #28
   11ba4:	0595001c 	ldreq	r0, [r5, #28]
   11ba8:	e3530000 	cmp	r3, #0
   11bac:	1281101c 	addne	r1, r1, #28
   11bb0:	0594101c 	ldreq	r1, [r4, #28]
   11bb4:	eb0050ac 	bl	25e6c <strcmp>
   11bb8:	e3500000 	cmp	r0, #0
   11bbc:	18bd8070 	popne	{r4, r5, r6, pc}
   11bc0:	e5941000 	ldr	r1, [r4]
   11bc4:	e5950000 	ldr	r0, [r5]
   11bc8:	eb0050a7 	bl	25e6c <strcmp>
   11bcc:	e3500000 	cmp	r0, #0
   11bd0:	18bd8070 	popne	{r4, r5, r6, pc}
   11bd4:	e5941008 	ldr	r1, [r4, #8]
   11bd8:	e5950008 	ldr	r0, [r5, #8]
   11bdc:	eb0050a2 	bl	25e6c <strcmp>
   11be0:	e3500000 	cmp	r0, #0
   11be4:	05943004 	ldreq	r3, [r4, #4]
   11be8:	05950004 	ldreq	r0, [r5, #4]
   11bec:	00400003 	subeq	r0, r0, r3
   11bf0:	e8bd8070 	pop	{r4, r5, r6, pc}

00011bf4 <plural_lookup.isra.2>:
   11bf4:	e92d41f0 	push	{r4, r5, r6, r7, r8, lr}
   11bf8:	e1a07000 	mov	r7, r0
   11bfc:	e5900060 	ldr	r0, [r0, #96]	; 0x60
   11c00:	e1a05003 	mov	r5, r3
   11c04:	e1a06002 	mov	r6, r2
   11c08:	ebffff6b 	bl	119bc <plural_eval>
   11c0c:	e5973064 	ldr	r3, [r7, #100]	; 0x64
   11c10:	e1500003 	cmp	r0, r3
   11c14:	2a00000a 	bcs	11c44 <plural_lookup.isra.2+0x50>
   11c18:	e1a04000 	mov	r4, r0
   11c1c:	e0865005 	add	r5, r6, r5
   11c20:	e1a02006 	mov	r2, r6
   11c24:	e2544001 	subs	r4, r4, #1
   11c28:	e1a00002 	mov	r0, r2
   11c2c:	e3a01000 	mov	r1, #0
   11c30:	3a000005 	bcc	11c4c <plural_lookup.isra.2+0x58>
   11c34:	eb00579d 	bl	27ab0 <__rawmemchr>
   11c38:	e2802001 	add	r2, r0, #1
   11c3c:	e1520005 	cmp	r2, r5
   11c40:	3afffff7 	bcc	11c24 <plural_lookup.isra.2+0x30>
   11c44:	e1a00006 	mov	r0, r6
   11c48:	e8bd81f0 	pop	{r4, r5, r6, r7, r8, pc}
   11c4c:	e1a06002 	mov	r6, r2
   11c50:	eafffffb 	b	11c44 <plural_lookup.isra.2+0x50>

00011c54 <_nl_find_msg>:
   11c54:	e92d4ff0 	push	{r4, r5, r6, r7, r8, r9, sl, fp, lr}
   11c58:	e28db020 	add	fp, sp, #32
   11c5c:	e24dd04c 	sub	sp, sp, #76	; 0x4c
   11c60:	e50b2038 	str	r2, [fp, #-56]	; 0xffffffc8
   11c64:	e59f2a1c 	ldr	r2, [pc, #2588]	; 12688 <_nl_find_msg+0xa34>
   11c68:	e590c004 	ldr	ip, [r0, #4]
   11c6c:	e50b3058 	str	r3, [fp, #-88]	; 0xffffffa8
   11c70:	e5922000 	ldr	r2, [r2]
   11c74:	e59b3004 	ldr	r3, [fp, #4]
   11c78:	e35c0000 	cmp	ip, #0
   11c7c:	e50b0054 	str	r0, [fp, #-84]	; 0xffffffac
   11c80:	e50b2028 	str	r2, [fp, #-40]	; 0xffffffd8
   11c84:	e50b1060 	str	r1, [fp, #-96]	; 0xffffffa0
   11c88:	e50b305c 	str	r3, [fp, #-92]	; 0xffffffa4
   11c8c:	da00008a 	ble	11ebc <_nl_find_msg+0x268>
   11c90:	e51b3054 	ldr	r3, [fp, #-84]	; 0xffffffac
   11c94:	e5935008 	ldr	r5, [r3, #8]
   11c98:	e3550000 	cmp	r5, #0
   11c9c:	0a000077 	beq	11e80 <_nl_find_msg+0x22c>
   11ca0:	e5953030 	ldr	r3, [r5, #48]	; 0x30
   11ca4:	e5952014 	ldr	r2, [r5, #20]
   11ca8:	e3530000 	cmp	r3, #0
   11cac:	e50b203c 	str	r2, [fp, #-60]	; 0xffffffc4
   11cb0:	0a000057 	beq	11e14 <_nl_find_msg+0x1c0>
   11cb4:	e51b4038 	ldr	r4, [fp, #-56]	; 0xffffffc8
   11cb8:	e1a00004 	mov	r0, r4
   11cbc:	eb0051d7 	bl	26420 <strlen>
   11cc0:	e50b0040 	str	r0, [fp, #-64]	; 0xffffffc0
   11cc4:	e1a00004 	mov	r0, r4
   11cc8:	eb001076 	bl	15ea8 <__hash_string>
   11ccc:	e595a02c 	ldr	sl, [r5, #44]	; 0x2c
   11cd0:	e1a0100a 	mov	r1, sl
   11cd4:	e1a07000 	mov	r7, r0
   11cd8:	eb015ff5 	bl	69cb4 <__aeabi_uidivmod>
   11cdc:	e1a00007 	mov	r0, r7
   11ce0:	e1a06001 	mov	r6, r1
   11ce4:	e24a1002 	sub	r1, sl, #2
   11ce8:	eb015ff1 	bl	69cb4 <__aeabi_uidivmod>
   11cec:	e5952034 	ldr	r2, [r5, #52]	; 0x34
   11cf0:	e5953030 	ldr	r3, [r5, #48]	; 0x30
   11cf4:	e1a08002 	mov	r8, r2
   11cf8:	e1a09003 	mov	r9, r3
   11cfc:	e2811001 	add	r1, r1, #1
   11d00:	e04a0001 	sub	r0, sl, r1
   11d04:	e041a00a 	sub	sl, r1, sl
   11d08:	e50b1048 	str	r1, [fp, #-72]	; 0xffffffb8
   11d0c:	e50b0044 	str	r0, [fp, #-68]	; 0xffffffbc
   11d10:	e1a0200a 	mov	r2, sl
   11d14:	ea00001a 	b	11d84 <_nl_find_msg+0x130>
   11d18:	e5953018 	ldr	r3, [r5, #24]
   11d1c:	e595700c 	ldr	r7, [r5, #12]
   11d20:	e1a0a184 	lsl	sl, r4, #3
   11d24:	e3570000 	cmp	r7, #0
   11d28:	e083100a 	add	r1, r3, sl
   11d2c:	e7933184 	ldr	r3, [r3, r4, lsl #3]
   11d30:	0a00005b 	beq	11ea4 <_nl_find_msg+0x250>
   11d34:	e51b0040 	ldr	r0, [fp, #-64]	; 0xffffffc0
   11d38:	e6bf3f33 	rev	r3, r3
   11d3c:	e1500003 	cmp	r0, r3
   11d40:	8a00000a 	bhi	11d70 <_nl_find_msg+0x11c>
   11d44:	e5911004 	ldr	r1, [r1, #4]
   11d48:	e5953000 	ldr	r3, [r5]
   11d4c:	e6bf1f31 	rev	r1, r1
   11d50:	e0831001 	add	r1, r3, r1
   11d54:	e51b0038 	ldr	r0, [fp, #-56]	; 0xffffffc8
   11d58:	e50b2050 	str	r2, [fp, #-80]	; 0xffffffb0
   11d5c:	e50b304c 	str	r3, [fp, #-76]	; 0xffffffb4
   11d60:	eb005041 	bl	25e6c <strcmp>
   11d64:	e14b25d0 	ldrd	r2, [fp, #-80]	; 0xffffffb0
   11d68:	e3500000 	cmp	r0, #0
   11d6c:	0a000054 	beq	11ec4 <_nl_find_msg+0x270>
   11d70:	e51b3044 	ldr	r3, [fp, #-68]	; 0xffffffbc
   11d74:	e1530006 	cmp	r3, r6
   11d78:	90866002 	addls	r6, r6, r2
   11d7c:	851b3048 	ldrhi	r3, [fp, #-72]	; 0xffffffb8
   11d80:	80866003 	addhi	r6, r6, r3
   11d84:	e7994106 	ldr	r4, [r9, r6, lsl #2]
   11d88:	e3580000 	cmp	r8, #0
   11d8c:	16bf4f34 	revne	r4, r4
   11d90:	e3540000 	cmp	r4, #0
   11d94:	0a000039 	beq	11e80 <_nl_find_msg+0x22c>
   11d98:	e51b303c 	ldr	r3, [fp, #-60]	; 0xffffffc4
   11d9c:	e2444001 	sub	r4, r4, #1
   11da0:	e1530004 	cmp	r3, r4
   11da4:	8affffdb 	bhi	11d18 <_nl_find_msg+0xc4>
   11da8:	e51b103c 	ldr	r1, [fp, #-60]	; 0xffffffc4
   11dac:	e5953024 	ldr	r3, [r5, #36]	; 0x24
   11db0:	e0447001 	sub	r7, r4, r1
   11db4:	e51b0040 	ldr	r0, [fp, #-64]	; 0xffffffc0
   11db8:	e7931187 	ldr	r1, [r3, r7, lsl #3]
   11dbc:	e0833187 	add	r3, r3, r7, lsl #3
   11dc0:	e1510000 	cmp	r1, r0
   11dc4:	9affffe9 	bls	11d70 <_nl_find_msg+0x11c>
   11dc8:	e5931004 	ldr	r1, [r3, #4]
   11dcc:	e51b0038 	ldr	r0, [fp, #-56]	; 0xffffffc8
   11dd0:	e50b204c 	str	r2, [fp, #-76]	; 0xffffffb4
   11dd4:	eb005024 	bl	25e6c <strcmp>
   11dd8:	e51b204c 	ldr	r2, [fp, #-76]	; 0xffffffb4
   11ddc:	e3500000 	cmp	r0, #0
   11de0:	1affffe2 	bne	11d70 <_nl_find_msg+0x11c>
   11de4:	e5953028 	ldr	r3, [r5, #40]	; 0x28
   11de8:	e0832187 	add	r2, r3, r7, lsl #3
   11dec:	e7933187 	ldr	r3, [r3, r7, lsl #3]
   11df0:	e5929004 	ldr	r9, [r2, #4]
   11df4:	e50b3038 	str	r3, [fp, #-56]	; 0xffffffc8
   11df8:	e51b3058 	ldr	r3, [fp, #-88]	; 0xffffffa8
   11dfc:	e3530000 	cmp	r3, #0
   11e00:	1a00003f 	bne	11f04 <_nl_find_msg+0x2b0>
   11e04:	e51b305c 	ldr	r3, [fp, #-92]	; 0xffffffa4
   11e08:	e51b2038 	ldr	r2, [fp, #-56]	; 0xffffffc8
   11e0c:	e5832000 	str	r2, [r3]
   11e10:	ea00001b 	b	11e84 <_nl_find_msg+0x230>
   11e14:	e1a0a003 	mov	sl, r3
   11e18:	e51b603c 	ldr	r6, [fp, #-60]	; 0xffffffc4
   11e1c:	ea000001 	b	11e28 <_nl_find_msg+0x1d4>
   11e20:	0a000096 	beq	12080 <_nl_find_msg+0x42c>
   11e24:	e284a001 	add	sl, r4, #1
   11e28:	e156000a 	cmp	r6, sl
   11e2c:	9a000013 	bls	11e80 <_nl_find_msg+0x22c>
   11e30:	e5959000 	ldr	r9, [r5]
   11e34:	e595800c 	ldr	r8, [r5, #12]
   11e38:	e5953018 	ldr	r3, [r5, #24]
   11e3c:	e50b3040 	str	r3, [fp, #-64]	; 0xffffffc0
   11e40:	e086400a 	add	r4, r6, sl
   11e44:	e51b3040 	ldr	r3, [fp, #-64]	; 0xffffffc0
   11e48:	e1a040a4 	lsr	r4, r4, #1
   11e4c:	e3580000 	cmp	r8, #0
   11e50:	e1a07184 	lsl	r7, r4, #3
   11e54:	e0832007 	add	r2, r3, r7
   11e58:	e51b0038 	ldr	r0, [fp, #-56]	; 0xffffffc8
   11e5c:	e5921004 	ldr	r1, [r2, #4]
   11e60:	16bf1f31 	revne	r1, r1
   11e64:	e0891001 	add	r1, r9, r1
   11e68:	eb004fff 	bl	25e6c <strcmp>
   11e6c:	e3500000 	cmp	r0, #0
   11e70:	aaffffea 	bge	11e20 <_nl_find_msg+0x1cc>
   11e74:	e15a0004 	cmp	sl, r4
   11e78:	e1a06004 	mov	r6, r4
   11e7c:	3affffef 	bcc	11e40 <_nl_find_msg+0x1ec>
   11e80:	e3a09000 	mov	r9, #0
   11e84:	e59f37fc 	ldr	r3, [pc, #2044]	; 12688 <_nl_find_msg+0xa34>
   11e88:	e51b2028 	ldr	r2, [fp, #-40]	; 0xffffffd8
   11e8c:	e1a00009 	mov	r0, r9
   11e90:	e5933000 	ldr	r3, [r3]
   11e94:	e1520003 	cmp	r2, r3
   11e98:	1a0001dc 	bne	12610 <_nl_find_msg+0x9bc>
   11e9c:	e24bd020 	sub	sp, fp, #32
   11ea0:	e8bd8ff0 	pop	{r4, r5, r6, r7, r8, r9, sl, fp, pc}
   11ea4:	e51b0040 	ldr	r0, [fp, #-64]	; 0xffffffc0
   11ea8:	e1500003 	cmp	r0, r3
   11eac:	8affffaf 	bhi	11d70 <_nl_find_msg+0x11c>
   11eb0:	e5911004 	ldr	r1, [r1, #4]
   11eb4:	e5953000 	ldr	r3, [r5]
   11eb8:	eaffffa4 	b	11d50 <_nl_find_msg+0xfc>
   11ebc:	eb000479 	bl	130a8 <_nl_load_domain>
   11ec0:	eaffff72 	b	11c90 <_nl_find_msg+0x3c>
   11ec4:	e1a08007 	mov	r8, r7
   11ec8:	e1a09003 	mov	r9, r3
   11ecc:	e1a0700a 	mov	r7, sl
   11ed0:	e595301c 	ldr	r3, [r5, #28]
   11ed4:	e3580000 	cmp	r8, #0
   11ed8:	e0837007 	add	r7, r3, r7
   11edc:	e7933184 	ldr	r3, [r3, r4, lsl #3]
   11ee0:	e5972004 	ldr	r2, [r7, #4]
   11ee4:	16bf3f33 	revne	r3, r3
   11ee8:	e2833001 	add	r3, r3, #1
   11eec:	e50b3038 	str	r3, [fp, #-56]	; 0xffffffc8
   11ef0:	e51b3058 	ldr	r3, [fp, #-88]	; 0xffffffa8
   11ef4:	16bf2f32 	revne	r2, r2
   11ef8:	e3530000 	cmp	r3, #0
   11efc:	e0899002 	add	r9, r9, r2
   11f00:	0affffbf 	beq	11e04 <_nl_find_msg+0x1b0>
   11f04:	e51b3060 	ldr	r3, [fp, #-96]	; 0xffffffa0
   11f08:	e3530000 	cmp	r3, #0
   11f0c:	0a00002e 	beq	11fcc <_nl_find_msg+0x378>
   11f10:	e5936008 	ldr	r6, [r3, #8]
   11f14:	e3560000 	cmp	r6, #0
   11f18:	0a00002b 	beq	11fcc <_nl_find_msg+0x378>
   11f1c:	e59f3768 	ldr	r3, [pc, #1896]	; 1268c <_nl_find_msg+0xa38>
   11f20:	e3530000 	cmp	r3, #0
   11f24:	0a000001 	beq	11f30 <_nl_find_msg+0x2dc>
   11f28:	e2850040 	add	r0, r5, #64	; 0x40
   11f2c:	e1a00000 	nop			; (mov r0, r0)
   11f30:	e595a03c 	ldr	sl, [r5, #60]	; 0x3c
   11f34:	e35a0000 	cmp	sl, #0
   11f38:	0a000031 	beq	12004 <_nl_find_msg+0x3b0>
   11f3c:	e08a308a 	add	r3, sl, sl, lsl #1
   11f40:	e5957038 	ldr	r7, [r5, #56]	; 0x38
   11f44:	e1a03103 	lsl	r3, r3, #2
   11f48:	e243300c 	sub	r3, r3, #12
   11f4c:	e0877003 	add	r7, r7, r3
   11f50:	ea000002 	b	11f60 <_nl_find_msg+0x30c>
   11f54:	e35a0000 	cmp	sl, #0
   11f58:	e247700c 	sub	r7, r7, #12
   11f5c:	0a000028 	beq	12004 <_nl_find_msg+0x3b0>
   11f60:	e1a01006 	mov	r1, r6
   11f64:	e5970000 	ldr	r0, [r7]
   11f68:	eb004fbf 	bl	25e6c <strcmp>
   11f6c:	e24aa001 	sub	sl, sl, #1
   11f70:	e1a08007 	mov	r8, r7
   11f74:	e3500000 	cmp	r0, #0
   11f78:	1afffff5 	bne	11f54 <_nl_find_msg+0x300>
   11f7c:	e59f370c 	ldr	r3, [pc, #1804]	; 12690 <_nl_find_msg+0xa3c>
   11f80:	e3530000 	cmp	r3, #0
   11f84:	0a000001 	beq	11f90 <_nl_find_msg+0x33c>
   11f88:	e2850040 	add	r0, r5, #64	; 0x40
   11f8c:	e1a00000 	nop			; (mov r0, r0)
   11f90:	e5983004 	ldr	r3, [r8, #4]
   11f94:	e3730001 	cmn	r3, #1
   11f98:	0affff99 	beq	11e04 <_nl_find_msg+0x1b0>
   11f9c:	e5983008 	ldr	r3, [r8, #8]
   11fa0:	e3530000 	cmp	r3, #0
   11fa4:	0a00012d 	beq	12460 <_nl_find_msg+0x80c>
   11fa8:	e3730001 	cmn	r3, #1
   11fac:	0a000043 	beq	120c0 <_nl_find_msg+0x46c>
   11fb0:	e7933104 	ldr	r3, [r3, r4, lsl #2]
   11fb4:	e3530000 	cmp	r3, #0
   11fb8:	0a000042 	beq	120c8 <_nl_find_msg+0x474>
   11fbc:	e1a09003 	mov	r9, r3
   11fc0:	e4993004 	ldr	r3, [r9], #4
   11fc4:	e50b3038 	str	r3, [fp, #-56]	; 0xffffffc8
   11fc8:	eaffff8d 	b	11e04 <_nl_find_msg+0x1b0>
   11fcc:	e59f76c0 	ldr	r7, [pc, #1728]	; 12694 <_nl_find_msg+0xa40>
   11fd0:	e5973008 	ldr	r3, [r7, #8]
   11fd4:	e3530000 	cmp	r3, #0
   11fd8:	0a00002d 	beq	12094 <_nl_find_msg+0x440>
   11fdc:	e597600c 	ldr	r6, [r7, #12]
   11fe0:	e3560000 	cmp	r6, #0
   11fe4:	1affffcc 	bne	11f1c <_nl_find_msg+0x2c8>
   11fe8:	e59f36a8 	ldr	r3, [pc, #1704]	; 12698 <_nl_find_msg+0xa44>
   11fec:	ebfffdf7 	bl	117d0 <__aeabi_read_tp>
   11ff0:	e79f3003 	ldr	r3, [pc, r3]
   11ff4:	e7903003 	ldr	r3, [r0, r3]
   11ff8:	e5933000 	ldr	r3, [r3]
   11ffc:	e593605c 	ldr	r6, [r3, #92]	; 0x5c
   12000:	eaffffc5 	b	11f1c <_nl_find_msg+0x2c8>
   12004:	e59f3684 	ldr	r3, [pc, #1668]	; 12690 <_nl_find_msg+0xa3c>
   12008:	e3530000 	cmp	r3, #0
   1200c:	0a000001 	beq	12018 <_nl_find_msg+0x3c4>
   12010:	e2850040 	add	r0, r5, #64	; 0x40
   12014:	e1a00000 	nop			; (mov r0, r0)
   12018:	e59f367c 	ldr	r3, [pc, #1660]	; 1269c <_nl_find_msg+0xa48>
   1201c:	e3530000 	cmp	r3, #0
   12020:	0a000001 	beq	1202c <_nl_find_msg+0x3d8>
   12024:	e2850040 	add	r0, r5, #64	; 0x40
   12028:	e1a00000 	nop			; (mov r0, r0)
   1202c:	e595703c 	ldr	r7, [r5, #60]	; 0x3c
   12030:	e5952038 	ldr	r2, [r5, #56]	; 0x38
   12034:	e3570000 	cmp	r7, #0
   12038:	e50b7040 	str	r7, [fp, #-64]	; 0xffffffc0
   1203c:	e50b2044 	str	r2, [fp, #-68]	; 0xffffffbc
   12040:	0a000066 	beq	121e0 <_nl_find_msg+0x58c>
   12044:	e0873087 	add	r3, r7, r7, lsl #1
   12048:	e0823103 	add	r3, r2, r3, lsl #2
   1204c:	e243a00c 	sub	sl, r3, #12
   12050:	ea000002 	b	12060 <_nl_find_msg+0x40c>
   12054:	e3570000 	cmp	r7, #0
   12058:	e24aa00c 	sub	sl, sl, #12
   1205c:	0a00005f 	beq	121e0 <_nl_find_msg+0x58c>
   12060:	e1a01006 	mov	r1, r6
   12064:	e59a0000 	ldr	r0, [sl]
   12068:	eb004f7f 	bl	25e6c <strcmp>
   1206c:	e2477001 	sub	r7, r7, #1
   12070:	e1a0800a 	mov	r8, sl
   12074:	e3500000 	cmp	r0, #0
   12078:	1afffff5 	bne	12054 <_nl_find_msg+0x400>
   1207c:	eaffffbe 	b	11f7c <_nl_find_msg+0x328>
   12080:	e51b303c 	ldr	r3, [fp, #-60]	; 0xffffffc4
   12084:	e1530004 	cmp	r3, r4
   12088:	90447003 	subls	r7, r4, r3
   1208c:	8affff8f 	bhi	11ed0 <_nl_find_msg+0x27c>
   12090:	eaffff53 	b	11de4 <_nl_find_msg+0x190>
   12094:	e59f0604 	ldr	r0, [pc, #1540]	; 126a0 <_nl_find_msg+0xa4c>
   12098:	eb0010f7 	bl	1647c <getenv>
   1209c:	e2508000 	subs	r8, r0, #0
   120a0:	0a000002 	beq	120b0 <_nl_find_msg+0x45c>
   120a4:	e5d83000 	ldrb	r3, [r8]
   120a8:	e3530000 	cmp	r3, #0
   120ac:	1a000105 	bne	124c8 <_nl_find_msg+0x874>
   120b0:	e597600c 	ldr	r6, [r7, #12]
   120b4:	e3a03001 	mov	r3, #1
   120b8:	e5873008 	str	r3, [r7, #8]
   120bc:	eaffffc7 	b	11fe0 <_nl_find_msg+0x38c>
   120c0:	e3e09000 	mvn	r9, #0
   120c4:	eaffff6e 	b	11e84 <_nl_find_msg+0x230>
   120c8:	e59f35d4 	ldr	r3, [pc, #1492]	; 126a4 <_nl_find_msg+0xa50>
   120cc:	e1a01003 	mov	r1, r3
   120d0:	e50b3040 	str	r3, [fp, #-64]	; 0xffffffc0
   120d4:	e3a03001 	mov	r3, #1
   120d8:	e1912f9f 	ldrex	r2, [r1]
   120dc:	e3520000 	cmp	r2, #0
   120e0:	1a000003 	bne	120f4 <_nl_find_msg+0x4a0>
   120e4:	e1810f93 	strex	r0, r3, [r1]
   120e8:	e3500000 	cmp	r0, #0
   120ec:	1afffff9 	bne	120d8 <_nl_find_msg+0x484>
   120f0:	ee070fba 	mcr	15, 0, r0, cr7, cr10, {5}
   120f4:	1a00013f 	bne	125f8 <_nl_find_msg+0x9a4>
   120f8:	e59f7594 	ldr	r7, [pc, #1428]	; 12694 <_nl_find_msg+0xa40>
   120fc:	e51b6038 	ldr	r6, [fp, #-56]	; 0xffffffc8
   12100:	e3a05000 	mov	r5, #0
   12104:	e1c721d4 	ldrd	r2, [r7, #20]
   12108:	e50b9034 	str	r9, [fp, #-52]	; 0xffffffcc
   1210c:	e50b4038 	str	r4, [fp, #-56]	; 0xffffffc8
   12110:	e2822004 	add	r2, r2, #4
   12114:	e50b2030 	str	r2, [fp, #-48]	; 0xffffffd0
   12118:	ea00000f 	b	1215c <_nl_find_msg+0x508>
   1211c:	e2855001 	add	r5, r5, #1
   12120:	e5974004 	ldr	r4, [r7, #4]
   12124:	e0653405 	rsb	r3, r5, r5, lsl #8
   12128:	e1a00004 	mov	r0, r4
   1212c:	e1a0a203 	lsl	sl, r3, #4
   12130:	e1a0100a 	mov	r1, sl
   12134:	e587a018 	str	sl, [r7, #24]
   12138:	eb004aee 	bl	24cf8 <__libc_realloc>
   1213c:	e3500000 	cmp	r0, #0
   12140:	0a0000b0 	beq	12408 <_nl_find_msg+0x7b4>
   12144:	e24a3004 	sub	r3, sl, #4
   12148:	e5870004 	str	r0, [r7, #4]
   1214c:	e2802004 	add	r2, r0, #4
   12150:	e2800008 	add	r0, r0, #8
   12154:	e1c721f4 	strd	r2, [r7, #20]
   12158:	e50b0030 	str	r0, [fp, #-48]	; 0xffffffd0
   1215c:	e3530003 	cmp	r3, #3
   12160:	9a000010 	bls	121a8 <_nl_find_msg+0x554>
   12164:	e51b1030 	ldr	r1, [fp, #-48]	; 0xffffffd0
   12168:	e51b2034 	ldr	r2, [fp, #-52]	; 0xffffffcc
   1216c:	e2433004 	sub	r3, r3, #4
   12170:	e0813003 	add	r3, r1, r3
   12174:	e24b102c 	sub	r1, fp, #44	; 0x2c
   12178:	e5980004 	ldr	r0, [r8, #4]
   1217c:	e0822006 	add	r2, r2, r6
   12180:	e58d3000 	str	r3, [sp]
   12184:	e58d1004 	str	r1, [sp, #4]
   12188:	e24b3030 	sub	r3, fp, #48	; 0x30
   1218c:	e24b1034 	sub	r1, fp, #52	; 0x34
   12190:	eb006b65 	bl	2cf2c <__gconv>
   12194:	e3d03004 	bics	r3, r0, #4
   12198:	0a0000e0 	beq	12520 <_nl_find_msg+0x8cc>
   1219c:	e3500005 	cmp	r0, #5
   121a0:	1a0000f9 	bne	1258c <_nl_find_msg+0x938>
   121a4:	e50b9034 	str	r9, [fp, #-52]	; 0xffffffcc
   121a8:	e3550000 	cmp	r5, #0
   121ac:	1affffda 	bne	1211c <_nl_find_msg+0x4c8>
   121b0:	e3a03eff 	mov	r3, #4080	; 0xff0
   121b4:	e1a00003 	mov	r0, r3
   121b8:	e5873018 	str	r3, [r7, #24]
   121bc:	eb0048a0 	bl	24444 <__libc_malloc>
   121c0:	e3500000 	cmp	r0, #0
   121c4:	0a000093 	beq	12418 <_nl_find_msg+0x7c4>
   121c8:	e5972004 	ldr	r2, [r7, #4]
   121cc:	e59f34d4 	ldr	r3, [pc, #1236]	; 126a8 <_nl_find_msg+0xa54>
   121d0:	e5802000 	str	r2, [r0]
   121d4:	e5870004 	str	r0, [r7, #4]
   121d8:	e3a05001 	mov	r5, #1
   121dc:	eaffffda 	b	1214c <_nl_find_msg+0x4f8>
   121e0:	e51b3040 	ldr	r3, [fp, #-64]	; 0xffffffc0
   121e4:	e51b0044 	ldr	r0, [fp, #-68]	; 0xffffffbc
   121e8:	e2837001 	add	r7, r3, #1
   121ec:	e3500000 	cmp	r0, #0
   121f0:	e0877087 	add	r7, r7, r7, lsl #1
   121f4:	e1a07107 	lsl	r7, r7, #2
   121f8:	0a0000bd 	beq	124f4 <_nl_find_msg+0x8a0>
   121fc:	e1a01007 	mov	r1, r7
   12200:	eb004abc 	bl	24cf8 <__libc_realloc>
   12204:	e1a0a000 	mov	sl, r0
   12208:	e35a0000 	cmp	sl, #0
   1220c:	0a0000bc 	beq	12504 <_nl_find_msg+0x8b0>
   12210:	e1a00006 	mov	r0, r6
   12214:	e585a038 	str	sl, [r5, #56]	; 0x38
   12218:	eb005012 	bl	26268 <__strdup>
   1221c:	e2506000 	subs	r6, r0, #0
   12220:	0a0000b7 	beq	12504 <_nl_find_msg+0x8b0>
   12224:	e247700c 	sub	r7, r7, #12
   12228:	e08a8007 	add	r8, sl, r7
   1222c:	e3e03000 	mvn	r3, #0
   12230:	e24b202c 	sub	r2, fp, #44	; 0x2c
   12234:	e78a6007 	str	r6, [sl, r7]
   12238:	e51b1060 	ldr	r1, [fp, #-96]	; 0xffffffa0
   1223c:	e5883004 	str	r3, [r8, #4]
   12240:	e51b0054 	ldr	r0, [fp, #-84]	; 0xffffffac
   12244:	e3a03000 	mov	r3, #0
   12248:	e58d2000 	str	r2, [sp]
   1224c:	e59f2458 	ldr	r2, [pc, #1112]	; 126ac <_nl_find_msg+0xa58>
   12250:	ebfffe7f 	bl	11c54 <_nl_find_msg>
   12254:	e3700001 	cmn	r0, #1
   12258:	e1a03000 	mov	r3, r0
   1225c:	0a0000d8 	beq	125c4 <_nl_find_msg+0x970>
   12260:	e3500000 	cmp	r0, #0
   12264:	0a000061 	beq	123f0 <_nl_find_msg+0x79c>
   12268:	e59f1440 	ldr	r1, [pc, #1088]	; 126b0 <_nl_find_msg+0xa5c>
   1226c:	eb00521b 	bl	26ae0 <strstr>
   12270:	e3500000 	cmp	r0, #0
   12274:	0a00005d 	beq	123f0 <_nl_find_msg+0x79c>
   12278:	e2807008 	add	r7, r0, #8
   1227c:	e59f1430 	ldr	r1, [pc, #1072]	; 126b4 <_nl_find_msg+0xa60>
   12280:	e1a00007 	mov	r0, r7
   12284:	eb004f9e 	bl	26104 <strcspn>
   12288:	e1a01007 	mov	r1, r7
   1228c:	e2803008 	add	r3, r0, #8
   12290:	e3c33007 	bic	r3, r3, #7
   12294:	e04dd003 	sub	sp, sp, r3
   12298:	e28da008 	add	sl, sp, #8
   1229c:	e1a02000 	mov	r2, r0
   122a0:	e1a0000a 	mov	r0, sl
   122a4:	eb005520 	bl	2772c <__mempcpy>
   122a8:	e3a0c000 	mov	ip, #0
   122ac:	e1a01006 	mov	r1, r6
   122b0:	e1a03006 	mov	r3, r6
   122b4:	e5c0c000 	strb	ip, [r0]
   122b8:	ea000001 	b	122c4 <_nl_find_msg+0x670>
   122bc:	e352002f 	cmp	r2, #47	; 0x2f
   122c0:	028cc001 	addeq	ip, ip, #1
   122c4:	e1a00003 	mov	r0, r3
   122c8:	e4d32001 	ldrb	r2, [r3], #1
   122cc:	e3520000 	cmp	r2, #0
   122d0:	1afffff9 	bne	122bc <_nl_find_msg+0x668>
   122d4:	e0403006 	sub	r3, r0, r6
   122d8:	e5d62000 	ldrb	r2, [r6]
   122dc:	e2833012 	add	r3, r3, #18
   122e0:	e3c33007 	bic	r3, r3, #7
   122e4:	e04dd003 	sub	sp, sp, r3
   122e8:	e28d3008 	add	r3, sp, #8
   122ec:	e3520000 	cmp	r2, #0
   122f0:	e50b3040 	str	r3, [fp, #-64]	; 0xffffffc0
   122f4:	0a0000d3 	beq	12648 <_nl_find_msg+0x9f4>
   122f8:	e59f03b8 	ldr	r0, [pc, #952]	; 126b8 <_nl_find_msg+0xa64>
   122fc:	e590e03c 	ldr	lr, [r0, #60]	; 0x3c
   12300:	e79e0102 	ldr	r0, [lr, r2, lsl #2]
   12304:	e5f12001 	ldrb	r2, [r1, #1]!
   12308:	e4c30001 	strb	r0, [r3], #1
   1230c:	e3520000 	cmp	r2, #0
   12310:	1afffffa 	bne	12300 <_nl_find_msg+0x6ac>
   12314:	e35c0001 	cmp	ip, #1
   12318:	8a000009 	bhi	12344 <_nl_find_msg+0x6f0>
   1231c:	e35c0000 	cmp	ip, #0
   12320:	e3a0102f 	mov	r1, #47	; 0x2f
   12324:	059f2390 	ldreq	r2, [pc, #912]	; 126bc <_nl_find_msg+0xa68>
   12328:	e5c31000 	strb	r1, [r3]
   1232c:	05c31001 	strbeq	r1, [r3, #1]
   12330:	08b20003 	ldmeq	r2!, {r0, r1}
   12334:	12833001 	addne	r3, r3, #1
   12338:	05830002 	streq	r0, [r3, #2]
   1233c:	05831006 	streq	r1, [r3, #6]
   12340:	0283300a 	addeq	r3, r3, #10
   12344:	e3a07000 	mov	r7, #0
   12348:	e5c37000 	strb	r7, [r3]
   1234c:	e1a0000a 	mov	r0, sl
   12350:	e1a0300a 	mov	r3, sl
   12354:	ea000001 	b	12360 <_nl_find_msg+0x70c>
   12358:	e352002f 	cmp	r2, #47	; 0x2f
   1235c:	02877001 	addeq	r7, r7, #1
   12360:	e1a01003 	mov	r1, r3
   12364:	e4d32001 	ldrb	r2, [r3], #1
   12368:	e3520000 	cmp	r2, #0
   1236c:	1afffff9 	bne	12358 <_nl_find_msg+0x704>
   12370:	e041200a 	sub	r2, r1, sl
   12374:	e5da3000 	ldrb	r3, [sl]
   12378:	e282200a 	add	r2, r2, #10
   1237c:	e3c22007 	bic	r2, r2, #7
   12380:	e04dd002 	sub	sp, sp, r2
   12384:	e3530000 	cmp	r3, #0
   12388:	e28d1008 	add	r1, sp, #8
   1238c:	0a0000ab 	beq	12640 <_nl_find_msg+0x9ec>
   12390:	e59fc320 	ldr	ip, [pc, #800]	; 126b8 <_nl_find_msg+0xa64>
   12394:	e1a02001 	mov	r2, r1
   12398:	e59ce03c 	ldr	lr, [ip, #60]	; 0x3c
   1239c:	e79ec103 	ldr	ip, [lr, r3, lsl #2]
   123a0:	e5f03001 	ldrb	r3, [r0, #1]!
   123a4:	e4c2c001 	strb	ip, [r2], #1
   123a8:	e3530000 	cmp	r3, #0
   123ac:	1afffffa 	bne	1239c <_nl_find_msg+0x748>
   123b0:	e3570001 	cmp	r7, #1
   123b4:	8a000005 	bhi	123d0 <_nl_find_msg+0x77c>
   123b8:	e3570000 	cmp	r7, #0
   123bc:	e3a0302f 	mov	r3, #47	; 0x2f
   123c0:	e5c23000 	strb	r3, [r2]
   123c4:	05c23001 	strbeq	r3, [r2, #1]
   123c8:	12822001 	addne	r2, r2, #1
   123cc:	02822002 	addeq	r2, r2, #2
   123d0:	e3a0c000 	mov	ip, #0
   123d4:	e5c2c000 	strb	ip, [r2]
   123d8:	e51b0040 	ldr	r0, [fp, #-64]	; 0xffffffc0
   123dc:	e3a03001 	mov	r3, #1
   123e0:	e2882004 	add	r2, r8, #4
   123e4:	eb0069aa 	bl	2ca94 <__gconv_open>
   123e8:	e3500000 	cmp	r0, #0
   123ec:	1a000088 	bne	12614 <_nl_find_msg+0x9c0>
   123f0:	e595303c 	ldr	r3, [r5, #60]	; 0x3c
   123f4:	e3a02000 	mov	r2, #0
   123f8:	e2833001 	add	r3, r3, #1
   123fc:	e5882008 	str	r2, [r8, #8]
   12400:	e585303c 	str	r3, [r5, #60]	; 0x3c
   12404:	eafffedc 	b	11f7c <_nl_find_msg+0x328>
   12408:	e5943000 	ldr	r3, [r4]
   1240c:	e1a00004 	mov	r0, r4
   12410:	e5873004 	str	r3, [r7, #4]
   12414:	eb0049a8 	bl	24abc <__free>
   12418:	e3a03000 	mov	r3, #0
   1241c:	e5873014 	str	r3, [r7, #20]
   12420:	e5873018 	str	r3, [r7, #24]
   12424:	e51b1040 	ldr	r1, [fp, #-64]	; 0xffffffc0
   12428:	ee070fba 	mcr	15, 0, r0, cr7, cr10, {5}
   1242c:	e1912f9f 	ldrex	r2, [r1]
   12430:	e1810f93 	strex	r0, r3, [r1]
   12434:	e3500000 	cmp	r0, #0
   12438:	1afffffb 	bne	1242c <_nl_find_msg+0x7d8>
   1243c:	e3520001 	cmp	r2, #1
   12440:	daffff1e 	ble	120c0 <_nl_find_msg+0x46c>
   12444:	e59f0258 	ldr	r0, [pc, #600]	; 126a4 <_nl_find_msg+0xa50>
   12448:	e3a01081 	mov	r1, #129	; 0x81
   1244c:	e3a02001 	mov	r2, #1
   12450:	e3a070f0 	mov	r7, #240	; 0xf0
   12454:	ef000000 	svc	0x00000000
   12458:	e3e09000 	mvn	r9, #0
   1245c:	eafffe88 	b	11e84 <_nl_find_msg+0x230>
   12460:	e59f323c 	ldr	r3, [pc, #572]	; 126a4 <_nl_find_msg+0xa50>
   12464:	e1a01003 	mov	r1, r3
   12468:	e50b3040 	str	r3, [fp, #-64]	; 0xffffffc0
   1246c:	e3a03001 	mov	r3, #1
   12470:	e1912f9f 	ldrex	r2, [r1]
   12474:	e3520000 	cmp	r2, #0
   12478:	1a000003 	bne	1248c <_nl_find_msg+0x838>
   1247c:	e1810f93 	strex	r0, r3, [r1]
   12480:	e3500000 	cmp	r0, #0
   12484:	1afffff9 	bne	12470 <_nl_find_msg+0x81c>
   12488:	ee070fba 	mcr	15, 0, r0, cr7, cr10, {5}
   1248c:	1a00005c 	bne	12604 <_nl_find_msg+0x9b0>
   12490:	e5983008 	ldr	r3, [r8, #8]
   12494:	e3530000 	cmp	r3, #0
   12498:	0a00004b 	beq	125cc <_nl_find_msg+0x978>
   1249c:	e3a03000 	mov	r3, #0
   124a0:	e51b1040 	ldr	r1, [fp, #-64]	; 0xffffffc0
   124a4:	ee070fba 	mcr	15, 0, r0, cr7, cr10, {5}
   124a8:	e1912f9f 	ldrex	r2, [r1]
   124ac:	e1810f93 	strex	r0, r3, [r1]
   124b0:	e3500000 	cmp	r0, #0
   124b4:	1afffffb 	bne	124a8 <_nl_find_msg+0x854>
   124b8:	e3520001 	cmp	r2, #1
   124bc:	ca000063 	bgt	12650 <_nl_find_msg+0x9fc>
   124c0:	e5983008 	ldr	r3, [r8, #8]
   124c4:	eafffeb7 	b	11fa8 <_nl_find_msg+0x354>
   124c8:	eb004fd4 	bl	26420 <strlen>
   124cc:	e280a001 	add	sl, r0, #1
   124d0:	e1a0000a 	mov	r0, sl
   124d4:	eb0047da 	bl	24444 <__libc_malloc>
   124d8:	e2506000 	subs	r6, r0, #0
   124dc:	0a000002 	beq	124ec <_nl_find_msg+0x898>
   124e0:	e1a0200a 	mov	r2, sl
   124e4:	e1a01008 	mov	r1, r8
   124e8:	eb0054a4 	bl	27780 <memcpy>
   124ec:	e587600c 	str	r6, [r7, #12]
   124f0:	eafffeef 	b	120b4 <_nl_find_msg+0x460>
   124f4:	e1a00007 	mov	r0, r7
   124f8:	eb0047d1 	bl	24444 <__libc_malloc>
   124fc:	e1a0a000 	mov	sl, r0
   12500:	eaffff40 	b	12208 <_nl_find_msg+0x5b4>
   12504:	e59f3184 	ldr	r3, [pc, #388]	; 12690 <_nl_find_msg+0xa3c>
   12508:	e3530000 	cmp	r3, #0
   1250c:	0afffeeb 	beq	120c0 <_nl_find_msg+0x46c>
   12510:	e2850040 	add	r0, r5, #64	; 0x40
   12514:	e1a00000 	nop			; (mov r0, r0)
   12518:	e3e09000 	mvn	r9, #0
   1251c:	eafffe58 	b	11e84 <_nl_find_msg+0x230>
   12520:	e51b1030 	ldr	r1, [fp, #-48]	; 0xffffffd0
   12524:	e5970014 	ldr	r0, [r7, #20]
   12528:	e51b4038 	ldr	r4, [fp, #-56]	; 0xffffffc8
   1252c:	e5972018 	ldr	r2, [r7, #24]
   12530:	e598c008 	ldr	ip, [r8, #8]
   12534:	e041e000 	sub	lr, r1, r0
   12538:	e042200e 	sub	r2, r2, lr
   1253c:	e24ee004 	sub	lr, lr, #4
   12540:	e580e000 	str	lr, [r0]
   12544:	e202e003 	and	lr, r2, #3
   12548:	e78c0104 	str	r0, [ip, r4, lsl #2]
   1254c:	e1a04104 	lsl	r4, r4, #2
   12550:	e081100e 	add	r1, r1, lr
   12554:	e3c22003 	bic	r2, r2, #3
   12558:	e5871014 	str	r1, [r7, #20]
   1255c:	e5872018 	str	r2, [r7, #24]
   12560:	e51b1040 	ldr	r1, [fp, #-64]	; 0xffffffc0
   12564:	ee070fba 	mcr	15, 0, r0, cr7, cr10, {5}
   12568:	e1912f9f 	ldrex	r2, [r1]
   1256c:	e1810f93 	strex	r0, r3, [r1]
   12570:	e3500000 	cmp	r0, #0
   12574:	1afffffb 	bne	12568 <_nl_find_msg+0x914>
   12578:	e3520001 	cmp	r2, #1
   1257c:	ca000039 	bgt	12668 <_nl_find_msg+0xa14>
   12580:	e5983008 	ldr	r3, [r8, #8]
   12584:	e7933004 	ldr	r3, [r3, r4]
   12588:	eafffe8b 	b	11fbc <_nl_find_msg+0x368>
   1258c:	e3a03000 	mov	r3, #0
   12590:	e51b1040 	ldr	r1, [fp, #-64]	; 0xffffffc0
   12594:	ee070fba 	mcr	15, 0, r0, cr7, cr10, {5}
   12598:	e1912f9f 	ldrex	r2, [r1]
   1259c:	e1810f93 	strex	r0, r3, [r1]
   125a0:	e3500000 	cmp	r0, #0
   125a4:	1afffffb 	bne	12598 <_nl_find_msg+0x944>
   125a8:	e3520001 	cmp	r2, #1
   125ac:	dafffe33 	ble	11e80 <_nl_find_msg+0x22c>
   125b0:	e59f00ec 	ldr	r0, [pc, #236]	; 126a4 <_nl_find_msg+0xa50>
   125b4:	e3a01081 	mov	r1, #129	; 0x81
   125b8:	e3a02001 	mov	r2, #1
   125bc:	e3a070f0 	mov	r7, #240	; 0xf0
   125c0:	ef000000 	svc	0x00000000
   125c4:	e1a09003 	mov	r9, r3
   125c8:	eafffe2d 	b	11e84 <_nl_find_msg+0x230>
   125cc:	e5950020 	ldr	r0, [r5, #32]
   125d0:	e51b303c 	ldr	r3, [fp, #-60]	; 0xffffffc4
   125d4:	e3a01004 	mov	r1, #4
   125d8:	e0830000 	add	r0, r3, r0
   125dc:	eb004ad7 	bl	25140 <__calloc>
   125e0:	e3500000 	cmp	r0, #0
   125e4:	15880008 	strne	r0, [r8, #8]
   125e8:	1afffec2 	bne	120f8 <_nl_find_msg+0x4a4>
   125ec:	e3e03000 	mvn	r3, #0
   125f0:	e5883008 	str	r3, [r8, #8]
   125f4:	eaffffa8 	b	1249c <_nl_find_msg+0x848>
   125f8:	e51b0040 	ldr	r0, [fp, #-64]	; 0xffffffc0
   125fc:	eb0062dd 	bl	2b178 <__lll_lock_wait_private>
   12600:	eafffebc 	b	120f8 <_nl_find_msg+0x4a4>
   12604:	e51b0040 	ldr	r0, [fp, #-64]	; 0xffffffc0
   12608:	eb0062da 	bl	2b178 <__lll_lock_wait_private>
   1260c:	eaffff9f 	b	12490 <_nl_find_msg+0x83c>
   12610:	eb006342 	bl	2b320 <__stack_chk_fail>
   12614:	e3700001 	cmn	r0, #1
   12618:	0a000018 	beq	12680 <_nl_find_msg+0xa2c>
   1261c:	e59f306c 	ldr	r3, [pc, #108]	; 12690 <_nl_find_msg+0xa3c>
   12620:	e3530000 	cmp	r3, #0
   12624:	0a000001 	beq	12630 <_nl_find_msg+0x9dc>
   12628:	e2850040 	add	r0, r5, #64	; 0x40
   1262c:	e1a00000 	nop			; (mov r0, r0)
   12630:	e1a00006 	mov	r0, r6
   12634:	eb004920 	bl	24abc <__free>
   12638:	e3a03000 	mov	r3, #0
   1263c:	eaffffe0 	b	125c4 <_nl_find_msg+0x970>
   12640:	e1a02001 	mov	r2, r1
   12644:	eaffff59 	b	123b0 <_nl_find_msg+0x75c>
   12648:	e51b3040 	ldr	r3, [fp, #-64]	; 0xffffffc0
   1264c:	eaffff30 	b	12314 <_nl_find_msg+0x6c0>
   12650:	e59f004c 	ldr	r0, [pc, #76]	; 126a4 <_nl_find_msg+0xa50>
   12654:	e3a01081 	mov	r1, #129	; 0x81
   12658:	e3a02001 	mov	r2, #1
   1265c:	e3a070f0 	mov	r7, #240	; 0xf0
   12660:	ef000000 	svc	0x00000000
   12664:	eaffff95 	b	124c0 <_nl_find_msg+0x86c>
   12668:	e59f0034 	ldr	r0, [pc, #52]	; 126a4 <_nl_find_msg+0xa50>
   1266c:	e3a01081 	mov	r1, #129	; 0x81
   12670:	e3a02001 	mov	r2, #1
   12674:	e3a070f0 	mov	r7, #240	; 0xf0
   12678:	ef000000 	svc	0x00000000
   1267c:	eaffffbf 	b	12580 <_nl_find_msg+0x92c>
   12680:	e5880004 	str	r0, [r8, #4]
   12684:	eaffff59 	b	123f0 <_nl_find_msg+0x79c>
   12688:	00082000 	.word	0x00082000
	...
   12694:	0008357c 	.word	0x0008357c
   12698:	000704b0 	.word	0x000704b0
   1269c:	00000000 	.word	0x00000000
   126a0:	0006cb9c 	.word	0x0006cb9c
   126a4:	0008358c 	.word	0x0008358c
   126a8:	00000fec 	.word	0x00000fec
   126ac:	00080e24 	.word	0x00080e24
   126b0:	0006cbac 	.word	0x0006cbac
   126b4:	0006cbb8 	.word	0x0006cbb8
   126b8:	0007bc54 	.word	0x0007bc54
   126bc:	0006e29c 	.word	0x0006e29c

000126c0 <__dcigettext>:
   126c0:	e92d4ff0 	push	{r4, r5, r6, r7, r8, r9, sl, fp, lr}
   126c4:	e2518000 	subs	r8, r1, #0
   126c8:	e59f16bc 	ldr	r1, [pc, #1724]	; 12d8c <__dcigettext+0x6cc>
   126cc:	e28db020 	add	fp, sp, #32
   126d0:	e1a0a000 	mov	sl, r0
   126d4:	e24dd064 	sub	sp, sp, #100	; 0x64
   126d8:	e5910000 	ldr	r0, [r1]
   126dc:	e3a01000 	mov	r1, #0
   126e0:	e14b26f4 	strd	r2, [fp, #-100]	; 0xffffff9c
   126e4:	e50b0028 	str	r0, [fp, #-40]	; 0xffffffd8
   126e8:	e50b1050 	str	r1, [fp, #-80]	; 0xffffffb0
   126ec:	0a0000a8 	beq	12994 <__dcigettext+0x2d4>
   126f0:	e59b3008 	ldr	r3, [fp, #8]
   126f4:	e59b2008 	ldr	r2, [fp, #8]
   126f8:	e2433006 	sub	r3, r3, #6
   126fc:	e16f3f13 	clz	r3, r3
   12700:	e1a032a3 	lsr	r3, r3, #5
   12704:	e352000c 	cmp	r2, #12
   12708:	83833001 	orrhi	r3, r3, #1
   1270c:	e1530001 	cmp	r3, r1
   12710:	1a0000c4 	bne	12a28 <__dcigettext+0x368>
   12714:	e59f3674 	ldr	r3, [pc, #1652]	; 12d90 <__dcigettext+0x6d0>
   12718:	e59f4674 	ldr	r4, [pc, #1652]	; 12d94 <__dcigettext+0x6d4>
   1271c:	ebfffc2b 	bl	117d0 <__aeabi_read_tp>
   12720:	e79f3003 	ldr	r3, [pc, r3]
   12724:	e3540000 	cmp	r4, #0
   12728:	e7903003 	ldr	r3, [r0, r3]
   1272c:	e50b306c 	str	r3, [fp, #-108]	; 0xffffff94
   12730:	0a000001 	beq	1273c <__dcigettext+0x7c>
   12734:	e59f065c 	ldr	r0, [pc, #1628]	; 12d98 <__dcigettext+0x6d8>
   12738:	e1a00000 	nop			; (mov r0, r0)
   1273c:	e3540000 	cmp	r4, #0
   12740:	0a000001 	beq	1274c <__dcigettext+0x8c>
   12744:	e59f0650 	ldr	r0, [pc, #1616]	; 12d9c <__dcigettext+0x6dc>
   12748:	e1a00000 	nop			; (mov r0, r0)
   1274c:	e35a0000 	cmp	sl, #0
   12750:	e59b0008 	ldr	r0, [fp, #8]
   12754:	059f3644 	ldreq	r3, [pc, #1604]	; 12da0 <__dcigettext+0x6e0>
   12758:	e50b802c 	str	r8, [fp, #-44]	; 0xffffffd4
   1275c:	e50b0044 	str	r0, [fp, #-68]	; 0xffffffbc
   12760:	0593a000 	ldreq	sl, [r3]
   12764:	e3a03000 	mov	r3, #0
   12768:	e50ba048 	str	sl, [fp, #-72]	; 0xffffffb8
   1276c:	e50b3038 	str	r3, [fp, #-56]	; 0xffffffc8
   12770:	eb0093cf 	bl	376b4 <__current_locale_name>
   12774:	e3540000 	cmp	r4, #0
   12778:	e50b0070 	str	r0, [fp, #-112]	; 0xffffff90
   1277c:	e50b0040 	str	r0, [fp, #-64]	; 0xffffffc0
   12780:	0a000001 	beq	1278c <__dcigettext+0xcc>
   12784:	e59f0618 	ldr	r0, [pc, #1560]	; 12da4 <__dcigettext+0x6e4>
   12788:	e1a00000 	nop			; (mov r0, r0)
   1278c:	e59f2614 	ldr	r2, [pc, #1556]	; 12da8 <__dcigettext+0x6e8>
   12790:	e59f1614 	ldr	r1, [pc, #1556]	; 12dac <__dcigettext+0x6ec>
   12794:	e24b0048 	sub	r0, fp, #72	; 0x48
   12798:	eb005f3c 	bl	2a490 <__tfind>
   1279c:	e59f360c 	ldr	r3, [pc, #1548]	; 12db0 <__dcigettext+0x6f0>
   127a0:	e3530000 	cmp	r3, #0
   127a4:	e50b0068 	str	r0, [fp, #-104]	; 0xffffff98
   127a8:	0a000001 	beq	127b4 <__dcigettext+0xf4>
   127ac:	e59f05f0 	ldr	r0, [pc, #1520]	; 12da4 <__dcigettext+0x6e4>
   127b0:	e1a00000 	nop			; (mov r0, r0)
   127b4:	e51b3068 	ldr	r3, [fp, #-104]	; 0xffffff98
   127b8:	e3530000 	cmp	r3, #0
   127bc:	0a000005 	beq	127d8 <__dcigettext+0x118>
   127c0:	e5931000 	ldr	r1, [r3]
   127c4:	e59f35e8 	ldr	r3, [pc, #1512]	; 12db4 <__dcigettext+0x6f4>
   127c8:	e591200c 	ldr	r2, [r1, #12]
   127cc:	e5933000 	ldr	r3, [r3]
   127d0:	e1520003 	cmp	r2, r3
   127d4:	0a0000cb 	beq	12b08 <__dcigettext+0x448>
   127d8:	e59f35d8 	ldr	r3, [pc, #1496]	; 12db8 <__dcigettext+0x6f8>
   127dc:	e5934000 	ldr	r4, [r3]
   127e0:	e3540000 	cmp	r4, #0
   127e4:	1a000077 	bne	129c8 <__dcigettext+0x308>
   127e8:	e59f95cc 	ldr	r9, [pc, #1484]	; 12dbc <__dcigettext+0x6fc>
   127ec:	e59f25cc 	ldr	r2, [pc, #1484]	; 12dc0 <__dcigettext+0x700>
   127f0:	e59b0008 	ldr	r0, [fp, #8]
   127f4:	e59f35c8 	ldr	r3, [pc, #1480]	; 12dc4 <__dcigettext+0x704>
   127f8:	e7d26000 	ldrb	r6, [r2, r0]
   127fc:	e0866003 	add	r6, r6, r3
   12800:	eb0093ab 	bl	376b4 <__current_locale_name>
   12804:	e59f15bc 	ldr	r1, [pc, #1468]	; 12dc8 <__dcigettext+0x708>
   12808:	e1a05000 	mov	r5, r0
   1280c:	eb004d96 	bl	25e6c <strcmp>
   12810:	e3500000 	cmp	r0, #0
   12814:	0a000006 	beq	12834 <__dcigettext+0x174>
   12818:	e59f05ac 	ldr	r0, [pc, #1452]	; 12dcc <__dcigettext+0x70c>
   1281c:	eb000f16 	bl	1647c <getenv>
   12820:	e3500000 	cmp	r0, #0
   12824:	0a000002 	beq	12834 <__dcigettext+0x174>
   12828:	e5d03000 	ldrb	r3, [r0]
   1282c:	e3530000 	cmp	r3, #0
   12830:	11a05000 	movne	r5, r0
   12834:	e1a0000a 	mov	r0, sl
   12838:	eb004ef8 	bl	26420 <strlen>
   1283c:	e1a07000 	mov	r7, r0
   12840:	e50b0074 	str	r0, [fp, #-116]	; 0xffffff8c
   12844:	e1a00006 	mov	r0, r6
   12848:	eb004ef4 	bl	26420 <strlen>
   1284c:	e1a01006 	mov	r1, r6
   12850:	e0803007 	add	r3, r0, r7
   12854:	e283300c 	add	r3, r3, #12
   12858:	e3c33007 	bic	r3, r3, #7
   1285c:	e04dd003 	sub	sp, sp, r3
   12860:	e28d3008 	add	r3, sp, #8
   12864:	e1a00003 	mov	r0, r3
   12868:	e50b3058 	str	r3, [fp, #-88]	; 0xffffffa8
   1286c:	eb004d8b 	bl	25ea0 <__stpcpy>
   12870:	e59f3558 	ldr	r3, [pc, #1368]	; 12dd0 <__dcigettext+0x710>
   12874:	e1a02007 	mov	r2, r7
   12878:	e1a0100a 	mov	r1, sl
   1287c:	e1d330b0 	ldrh	r3, [r3]
   12880:	e0c030b1 	strh	r3, [r0], #1
   12884:	eb0053a8 	bl	2772c <__mempcpy>
   12888:	e59f2544 	ldr	r2, [pc, #1348]	; 12dd4 <__dcigettext+0x714>
   1288c:	e1a03000 	mov	r3, r0
   12890:	e5920000 	ldr	r0, [r2]
   12894:	e5830000 	str	r0, [r3]
   12898:	e1a00005 	mov	r0, r5
   1289c:	eb004edf 	bl	26420 <strlen>
   128a0:	e2800008 	add	r0, r0, #8
   128a4:	e3c00007 	bic	r0, r0, #7
   128a8:	e04dd000 	sub	sp, sp, r0
   128ac:	e28d6008 	add	r6, sp, #8
   128b0:	e5d53000 	ldrb	r3, [r5]
   128b4:	e353003a 	cmp	r3, #58	; 0x3a
   128b8:	0a000061 	beq	12a44 <__dcigettext+0x384>
   128bc:	e3530000 	cmp	r3, #0
   128c0:	1a000061 	bne	12a4c <__dcigettext+0x38c>
   128c4:	e3a03043 	mov	r3, #67	; 0x43
   128c8:	e1c630b0 	strh	r3, [r6]
   128cc:	e59f14f4 	ldr	r1, [pc, #1268]	; 12dc8 <__dcigettext+0x708>
   128d0:	e1a00006 	mov	r0, r6
   128d4:	eb004d64 	bl	25e6c <strcmp>
   128d8:	e3500000 	cmp	r0, #0
   128dc:	0a000016 	beq	1293c <__dcigettext+0x27c>
   128e0:	e59f14f0 	ldr	r1, [pc, #1264]	; 12dd8 <__dcigettext+0x718>
   128e4:	e1a00006 	mov	r0, r6
   128e8:	eb004d5f 	bl	25e6c <strcmp>
   128ec:	e3500000 	cmp	r0, #0
   128f0:	0a000011 	beq	1293c <__dcigettext+0x27c>
   128f4:	e1a03004 	mov	r3, r4
   128f8:	e51b2058 	ldr	r2, [fp, #-88]	; 0xffffffa8
   128fc:	e1a01006 	mov	r1, r6
   12900:	e1a00009 	mov	r0, r9
   12904:	eb00013a 	bl	12df4 <_nl_find_domain>
   12908:	e2503000 	subs	r3, r0, #0
   1290c:	e50b305c 	str	r3, [fp, #-92]	; 0xffffffa4
   12910:	0affffe6 	beq	128b0 <__dcigettext+0x1f0>
   12914:	e24b704c 	sub	r7, fp, #76	; 0x4c
   12918:	e3a03001 	mov	r3, #1
   1291c:	e58d7000 	str	r7, [sp]
   12920:	e1a02008 	mov	r2, r8
   12924:	e1a01004 	mov	r1, r4
   12928:	ebfffcc9 	bl	11c54 <_nl_find_msg>
   1292c:	e2503000 	subs	r3, r0, #0
   12930:	0a00005c 	beq	12aa8 <__dcigettext+0x3e8>
   12934:	e3730001 	cmn	r3, #1
   12938:	1a000092 	bne	12b88 <__dcigettext+0x4c8>
   1293c:	e51b0050 	ldr	r0, [fp, #-80]	; 0xffffffb0
   12940:	eb00485d 	bl	24abc <__free>
   12944:	e59f3464 	ldr	r3, [pc, #1124]	; 12db0 <__dcigettext+0x6f0>
   12948:	e3530000 	cmp	r3, #0
   1294c:	0a000001 	beq	12958 <__dcigettext+0x298>
   12950:	e59f0444 	ldr	r0, [pc, #1092]	; 12d9c <__dcigettext+0x6dc>
   12954:	e1a00000 	nop			; (mov r0, r0)
   12958:	e59f3450 	ldr	r3, [pc, #1104]	; 12db0 <__dcigettext+0x6f0>
   1295c:	e3530000 	cmp	r3, #0
   12960:	0a000001 	beq	1296c <__dcigettext+0x2ac>
   12964:	e59f042c 	ldr	r0, [pc, #1068]	; 12d98 <__dcigettext+0x6d8>
   12968:	e1a00000 	nop			; (mov r0, r0)
   1296c:	e59f3468 	ldr	r3, [pc, #1128]	; 12ddc <__dcigettext+0x71c>
   12970:	e59b2004 	ldr	r2, [fp, #4]
   12974:	e51b1060 	ldr	r1, [fp, #-96]	; 0xffffffa0
   12978:	e79f3003 	ldr	r3, [pc, r3]
   1297c:	ebfffb93 	bl	117d0 <__aeabi_read_tp>
   12980:	e3510000 	cmp	r1, #0
   12984:	13520001 	cmpne	r2, #1
   12988:	e51b206c 	ldr	r2, [fp, #-108]	; 0xffffff94
   1298c:	e7802003 	str	r2, [r0, r3]
   12990:	1a000029 	bne	12a3c <__dcigettext+0x37c>
   12994:	e1a03008 	mov	r3, r8
   12998:	e59f23ec 	ldr	r2, [pc, #1004]	; 12d8c <__dcigettext+0x6cc>
   1299c:	e51b1028 	ldr	r1, [fp, #-40]	; 0xffffffd8
   129a0:	e1a00003 	mov	r0, r3
   129a4:	e5922000 	ldr	r2, [r2]
   129a8:	e1510002 	cmp	r1, r2
   129ac:	1a0000f5 	bne	12d88 <__dcigettext+0x6c8>
   129b0:	e24bd020 	sub	sp, fp, #32
   129b4:	e8bd8ff0 	pop	{r4, r5, r6, r7, r8, r9, sl, fp, pc}
   129b8:	ba00006a 	blt	12b68 <__dcigettext+0x4a8>
   129bc:	e5944000 	ldr	r4, [r4]
   129c0:	e3540000 	cmp	r4, #0
   129c4:	0affff87 	beq	127e8 <__dcigettext+0x128>
   129c8:	e284100c 	add	r1, r4, #12
   129cc:	e1a0000a 	mov	r0, sl
   129d0:	eb004d25 	bl	25e6c <strcmp>
   129d4:	e2501000 	subs	r1, r0, #0
   129d8:	1afffff6 	bne	129b8 <__dcigettext+0x2f8>
   129dc:	e5949004 	ldr	r9, [r4, #4]
   129e0:	e5d93000 	ldrb	r3, [r9]
   129e4:	e353002f 	cmp	r3, #47	; 0x2f
   129e8:	0affff7f 	beq	127ec <__dcigettext+0x12c>
   129ec:	eb005a42 	bl	292fc <__getcwd>
   129f0:	e2505000 	subs	r5, r0, #0
   129f4:	0affffd0 	beq	1293c <__dcigettext+0x27c>
   129f8:	e1a03009 	mov	r3, r9
   129fc:	e1a02005 	mov	r2, r5
   12a00:	e59f13d8 	ldr	r1, [pc, #984]	; 12de0 <__dcigettext+0x720>
   12a04:	e24b0050 	sub	r0, fp, #80	; 0x50
   12a08:	eb0013ae 	bl	178c8 <___asprintf>
   12a0c:	e1a06000 	mov	r6, r0
   12a10:	e1a00005 	mov	r0, r5
   12a14:	eb004828 	bl	24abc <__free>
   12a18:	e3560000 	cmp	r6, #0
   12a1c:	baffffc6 	blt	1293c <__dcigettext+0x27c>
   12a20:	e51b9050 	ldr	r9, [fp, #-80]	; 0xffffffb0
   12a24:	eaffff70 	b	127ec <__dcigettext+0x12c>
   12a28:	e51b3060 	ldr	r3, [fp, #-96]	; 0xffffffa0
   12a2c:	e59b2004 	ldr	r2, [fp, #4]
   12a30:	e3520001 	cmp	r2, #1
   12a34:	11530001 	cmpne	r3, r1
   12a38:	0affffd5 	beq	12994 <__dcigettext+0x2d4>
   12a3c:	e51b3064 	ldr	r3, [fp, #-100]	; 0xffffff9c
   12a40:	eaffffd4 	b	12998 <__dcigettext+0x2d8>
   12a44:	e2855001 	add	r5, r5, #1
   12a48:	eaffff98 	b	128b0 <__dcigettext+0x1f0>
   12a4c:	e2851001 	add	r1, r5, #1
   12a50:	e1a00006 	mov	r0, r6
   12a54:	e4c03001 	strb	r3, [r0], #1
   12a58:	e5d13000 	ldrb	r3, [r1]
   12a5c:	e1a05001 	mov	r5, r1
   12a60:	e2811001 	add	r1, r1, #1
   12a64:	e253203a 	subs	r2, r3, #58	; 0x3a
   12a68:	13a02001 	movne	r2, #1
   12a6c:	e3530000 	cmp	r3, #0
   12a70:	03a02000 	moveq	r2, #0
   12a74:	e3520000 	cmp	r2, #0
   12a78:	1afffff5 	bne	12a54 <__dcigettext+0x394>
   12a7c:	e59f3360 	ldr	r3, [pc, #864]	; 12de4 <__dcigettext+0x724>
   12a80:	e5c02000 	strb	r2, [r0]
   12a84:	e5933000 	ldr	r3, [r3]
   12a88:	e3530000 	cmp	r3, #0
   12a8c:	0affff8e 	beq	128cc <__dcigettext+0x20c>
   12a90:	e3a0102f 	mov	r1, #47	; 0x2f
   12a94:	e1a00006 	mov	r0, r6
   12a98:	eb004cc0 	bl	25da0 <strchr>
   12a9c:	e3500000 	cmp	r0, #0
   12aa0:	1affff82 	bne	128b0 <__dcigettext+0x1f0>
   12aa4:	eaffff88 	b	128cc <__dcigettext+0x20c>
   12aa8:	e51b205c 	ldr	r2, [fp, #-92]	; 0xffffffa4
   12aac:	e5920010 	ldr	r0, [r2, #16]
   12ab0:	e3500000 	cmp	r0, #0
   12ab4:	0affff7d 	beq	128b0 <__dcigettext+0x1f0>
   12ab8:	e2822010 	add	r2, r2, #16
   12abc:	e50b5078 	str	r5, [fp, #-120]	; 0xffffff88
   12ac0:	e50b907c 	str	r9, [fp, #-124]	; 0xffffff84
   12ac4:	e1a05002 	mov	r5, r2
   12ac8:	e1a09003 	mov	r9, r3
   12acc:	ea000005 	b	12ae8 <__dcigettext+0x428>
   12ad0:	e3500000 	cmp	r0, #0
   12ad4:	1a000026 	bne	12b74 <__dcigettext+0x4b4>
   12ad8:	e5b50004 	ldr	r0, [r5, #4]!
   12adc:	e2899001 	add	r9, r9, #1
   12ae0:	e3500000 	cmp	r0, #0
   12ae4:	0a00004f 	beq	12c28 <__dcigettext+0x568>
   12ae8:	e58d7000 	str	r7, [sp]
   12aec:	e3a03001 	mov	r3, #1
   12af0:	e1a02008 	mov	r2, r8
   12af4:	e1a01004 	mov	r1, r4
   12af8:	ebfffc55 	bl	11c54 <_nl_find_msg>
   12afc:	e3700001 	cmn	r0, #1
   12b00:	1afffff2 	bne	12ad0 <__dcigettext+0x410>
   12b04:	eaffff8c 	b	1293c <__dcigettext+0x27c>
   12b08:	e51b3060 	ldr	r3, [fp, #-96]	; 0xffffffa0
   12b0c:	e3530000 	cmp	r3, #0
   12b10:	e5913014 	ldr	r3, [r1, #20]
   12b14:	1a000046 	bne	12c34 <__dcigettext+0x574>
   12b18:	e59f2290 	ldr	r2, [pc, #656]	; 12db0 <__dcigettext+0x6f0>
   12b1c:	e3520000 	cmp	r2, #0
   12b20:	0a000003 	beq	12b34 <__dcigettext+0x474>
   12b24:	e59f0270 	ldr	r0, [pc, #624]	; 12d9c <__dcigettext+0x6dc>
   12b28:	e50b3058 	str	r3, [fp, #-88]	; 0xffffffa8
   12b2c:	e1a00000 	nop			; (mov r0, r0)
   12b30:	e51b3058 	ldr	r3, [fp, #-88]	; 0xffffffa8
   12b34:	e59f2274 	ldr	r2, [pc, #628]	; 12db0 <__dcigettext+0x6f0>
   12b38:	e3520000 	cmp	r2, #0
   12b3c:	0a000003 	beq	12b50 <__dcigettext+0x490>
   12b40:	e59f0250 	ldr	r0, [pc, #592]	; 12d98 <__dcigettext+0x6d8>
   12b44:	e50b3058 	str	r3, [fp, #-88]	; 0xffffffa8
   12b48:	e1a00000 	nop			; (mov r0, r0)
   12b4c:	e51b3058 	ldr	r3, [fp, #-88]	; 0xffffffa8
   12b50:	e59f2290 	ldr	r2, [pc, #656]	; 12de8 <__dcigettext+0x728>
   12b54:	e51b106c 	ldr	r1, [fp, #-108]	; 0xffffff94
   12b58:	ebfffb1c 	bl	117d0 <__aeabi_read_tp>
   12b5c:	e79f2002 	ldr	r2, [pc, r2]
   12b60:	e7801002 	str	r1, [r0, r2]
   12b64:	eaffff8b 	b	12998 <__dcigettext+0x2d8>
   12b68:	e59f924c 	ldr	r9, [pc, #588]	; 12dbc <__dcigettext+0x6fc>
   12b6c:	e3a04000 	mov	r4, #0
   12b70:	eaffff1d 	b	127ec <__dcigettext+0x12c>
   12b74:	e51b205c 	ldr	r2, [fp, #-92]	; 0xffffffa4
   12b78:	e2899004 	add	r9, r9, #4
   12b7c:	e1a03000 	mov	r3, r0
   12b80:	e7922109 	ldr	r2, [r2, r9, lsl #2]
   12b84:	e50b205c 	str	r2, [fp, #-92]	; 0xffffffa4
   12b88:	e51b0050 	ldr	r0, [fp, #-80]	; 0xffffffb0
   12b8c:	e50b3058 	str	r3, [fp, #-88]	; 0xffffffa8
   12b90:	eb0047c9 	bl	24abc <__free>
   12b94:	e51b3068 	ldr	r3, [fp, #-104]	; 0xffffff98
   12b98:	e3530000 	cmp	r3, #0
   12b9c:	e51b3058 	ldr	r3, [fp, #-88]	; 0xffffffa8
   12ba0:	0a000033 	beq	12c74 <__dcigettext+0x5b4>
   12ba4:	e51b2068 	ldr	r2, [fp, #-104]	; 0xffffff98
   12ba8:	e59f0204 	ldr	r0, [pc, #516]	; 12db4 <__dcigettext+0x6f4>
   12bac:	e51b104c 	ldr	r1, [fp, #-76]	; 0xffffffb4
   12bb0:	e5922000 	ldr	r2, [r2]
   12bb4:	e5900000 	ldr	r0, [r0]
   12bb8:	e51bc05c 	ldr	ip, [fp, #-92]	; 0xffffffa4
   12bbc:	e5823014 	str	r3, [r2, #20]
   12bc0:	e582c010 	str	ip, [r2, #16]
   12bc4:	e582000c 	str	r0, [r2, #12]
   12bc8:	e5821018 	str	r1, [r2, #24]
   12bcc:	e59f2218 	ldr	r2, [pc, #536]	; 12dec <__dcigettext+0x72c>
   12bd0:	e51b1060 	ldr	r1, [fp, #-96]	; 0xffffffa0
   12bd4:	ebfffafd 	bl	117d0 <__aeabi_read_tp>
   12bd8:	e79f2002 	ldr	r2, [pc, r2]
   12bdc:	e3510000 	cmp	r1, #0
   12be0:	e51b106c 	ldr	r1, [fp, #-108]	; 0xffffff94
   12be4:	e7801002 	str	r1, [r0, r2]
   12be8:	1a000019 	bne	12c54 <__dcigettext+0x594>
   12bec:	e59f21bc 	ldr	r2, [pc, #444]	; 12db0 <__dcigettext+0x6f0>
   12bf0:	e3520000 	cmp	r2, #0
   12bf4:	0a000003 	beq	12c08 <__dcigettext+0x548>
   12bf8:	e59f019c 	ldr	r0, [pc, #412]	; 12d9c <__dcigettext+0x6dc>
   12bfc:	e50b3058 	str	r3, [fp, #-88]	; 0xffffffa8
   12c00:	e1a00000 	nop			; (mov r0, r0)
   12c04:	e51b3058 	ldr	r3, [fp, #-88]	; 0xffffffa8
   12c08:	e59f21a0 	ldr	r2, [pc, #416]	; 12db0 <__dcigettext+0x6f0>
   12c0c:	e3520000 	cmp	r2, #0
   12c10:	0affff60 	beq	12998 <__dcigettext+0x2d8>
   12c14:	e59f017c 	ldr	r0, [pc, #380]	; 12d98 <__dcigettext+0x6d8>
   12c18:	e50b3058 	str	r3, [fp, #-88]	; 0xffffffa8
   12c1c:	e1a00000 	nop			; (mov r0, r0)
   12c20:	e51b3058 	ldr	r3, [fp, #-88]	; 0xffffffa8
   12c24:	eaffff5b 	b	12998 <__dcigettext+0x2d8>
   12c28:	e51b5078 	ldr	r5, [fp, #-120]	; 0xffffff88
   12c2c:	e51b907c 	ldr	r9, [fp, #-124]	; 0xffffff84
   12c30:	eaffff1e 	b	128b0 <__dcigettext+0x1f0>
   12c34:	e5910010 	ldr	r0, [r1, #16]
   12c38:	e1a02003 	mov	r2, r3
   12c3c:	e5913018 	ldr	r3, [r1, #24]
   12c40:	e5900008 	ldr	r0, [r0, #8]
   12c44:	e59b1004 	ldr	r1, [fp, #4]
   12c48:	ebfffbe9 	bl	11bf4 <plural_lookup.isra.2>
   12c4c:	e1a03000 	mov	r3, r0
   12c50:	eaffffb0 	b	12b18 <__dcigettext+0x458>
   12c54:	e1a02003 	mov	r2, r3
   12c58:	e51b305c 	ldr	r3, [fp, #-92]	; 0xffffffa4
   12c5c:	e59b1004 	ldr	r1, [fp, #4]
   12c60:	e5930008 	ldr	r0, [r3, #8]
   12c64:	e51b304c 	ldr	r3, [fp, #-76]	; 0xffffffb4
   12c68:	ebfffbe1 	bl	11bf4 <plural_lookup.isra.2>
   12c6c:	e1a03000 	mov	r3, r0
   12c70:	eaffffdd 	b	12bec <__dcigettext+0x52c>
   12c74:	e1a00008 	mov	r0, r8
   12c78:	eb004de8 	bl	26420 <strlen>
   12c7c:	e51b7070 	ldr	r7, [fp, #-112]	; 0xffffff90
   12c80:	e2805001 	add	r5, r0, #1
   12c84:	e1a00007 	mov	r0, r7
   12c88:	eb004de4 	bl	26420 <strlen>
   12c8c:	e51b6074 	ldr	r6, [fp, #-116]	; 0xffffff8c
   12c90:	e286201e 	add	r2, r6, #30
   12c94:	e0820000 	add	r0, r2, r0
   12c98:	e0800005 	add	r0, r0, r5
   12c9c:	eb0045e8 	bl	24444 <__libc_malloc>
   12ca0:	e51b3058 	ldr	r3, [fp, #-88]	; 0xffffffa8
   12ca4:	e2504000 	subs	r4, r0, #0
   12ca8:	0affffc7 	beq	12bcc <__dcigettext+0x50c>
   12cac:	e1a02005 	mov	r2, r5
   12cb0:	e1a01008 	mov	r1, r8
   12cb4:	e284001c 	add	r0, r4, #28
   12cb8:	eb00529b 	bl	2772c <__mempcpy>
   12cbc:	e2866001 	add	r6, r6, #1
   12cc0:	e1a02006 	mov	r2, r6
   12cc4:	e1a0100a 	mov	r1, sl
   12cc8:	e0806006 	add	r6, r0, r6
   12ccc:	e1a05000 	mov	r5, r0
   12cd0:	eb0052aa 	bl	27780 <memcpy>
   12cd4:	e1a01007 	mov	r1, r7
   12cd8:	e1a00006 	mov	r0, r6
   12cdc:	eb004c73 	bl	25eb0 <strcpy>
   12ce0:	e59b3008 	ldr	r3, [fp, #8]
   12ce4:	e59f10c8 	ldr	r1, [pc, #200]	; 12db4 <__dcigettext+0x6f4>
   12ce8:	e5843004 	str	r3, [r4, #4]
   12cec:	e51b305c 	ldr	r3, [fp, #-92]	; 0xffffffa4
   12cf0:	e59f00f8 	ldr	r0, [pc, #248]	; 12df0 <__dcigettext+0x730>
   12cf4:	e51b204c 	ldr	r2, [fp, #-76]	; 0xffffffb4
   12cf8:	e5911000 	ldr	r1, [r1]
   12cfc:	e5843010 	str	r3, [r4, #16]
   12d00:	e51b3058 	ldr	r3, [fp, #-88]	; 0xffffffa8
   12d04:	e3500000 	cmp	r0, #0
   12d08:	e5846008 	str	r6, [r4, #8]
   12d0c:	e5845000 	str	r5, [r4]
   12d10:	e5843014 	str	r3, [r4, #20]
   12d14:	e584100c 	str	r1, [r4, #12]
   12d18:	e5842018 	str	r2, [r4, #24]
   12d1c:	0a000002 	beq	12d2c <__dcigettext+0x66c>
   12d20:	e59f007c 	ldr	r0, [pc, #124]	; 12da4 <__dcigettext+0x6e4>
   12d24:	e1a00000 	nop			; (mov r0, r0)
   12d28:	e51b3058 	ldr	r3, [fp, #-88]	; 0xffffffa8
   12d2c:	e59f2074 	ldr	r2, [pc, #116]	; 12da8 <__dcigettext+0x6e8>
   12d30:	e59f1074 	ldr	r1, [pc, #116]	; 12dac <__dcigettext+0x6ec>
   12d34:	e1a00004 	mov	r0, r4
   12d38:	e50b3058 	str	r3, [fp, #-88]	; 0xffffffa8
   12d3c:	eb005d7f 	bl	2a340 <__tsearch>
   12d40:	e59f3068 	ldr	r3, [pc, #104]	; 12db0 <__dcigettext+0x6f0>
   12d44:	e3530000 	cmp	r3, #0
   12d48:	e51b3058 	ldr	r3, [fp, #-88]	; 0xffffffa8
   12d4c:	e1a05000 	mov	r5, r0
   12d50:	0a000002 	beq	12d60 <__dcigettext+0x6a0>
   12d54:	e59f0048 	ldr	r0, [pc, #72]	; 12da4 <__dcigettext+0x6e4>
   12d58:	e1a00000 	nop			; (mov r0, r0)
   12d5c:	e51b3058 	ldr	r3, [fp, #-88]	; 0xffffffa8
   12d60:	e3550000 	cmp	r5, #0
   12d64:	0a000002 	beq	12d74 <__dcigettext+0x6b4>
   12d68:	e5952000 	ldr	r2, [r5]
   12d6c:	e1520004 	cmp	r2, r4
   12d70:	0affff95 	beq	12bcc <__dcigettext+0x50c>
   12d74:	e1a00004 	mov	r0, r4
   12d78:	e50b3058 	str	r3, [fp, #-88]	; 0xffffffa8
   12d7c:	eb00474e 	bl	24abc <__free>
   12d80:	e51b3058 	ldr	r3, [fp, #-88]	; 0xffffffa8
   12d84:	eaffff90 	b	12bcc <__dcigettext+0x50c>
   12d88:	eb006164 	bl	2b320 <__stack_chk_fail>
   12d8c:	00082000 	.word	0x00082000
   12d90:	0006fd84 	.word	0x0006fd84
   12d94:	00000000 	.word	0x00000000
   12d98:	00083908 	.word	0x00083908
   12d9c:	00083598 	.word	0x00083598
   12da0:	000824f4 	.word	0x000824f4
   12da4:	000835b8 	.word	0x000835b8
   12da8:	00011b88 	.word	0x00011b88
   12dac:	0008357c 	.word	0x0008357c
   12db0:	00000000 	.word	0x00000000
   12db4:	00083d3c 	.word	0x00083d3c
   12db8:	00083d38 	.word	0x00083d38
   12dbc:	0006cbe0 	.word	0x0006cbe0
   12dc0:	0006fa00 	.word	0x0006fa00
   12dc4:	0006f974 	.word	0x0006f974
   12dc8:	0006cbc4 	.word	0x0006cbc4
   12dcc:	0006cbc8 	.word	0x0006cbc8
   12dd0:	0006f21c 	.word	0x0006f21c
   12dd4:	0006cbd4 	.word	0x0006cbd4
   12dd8:	0006cbd8 	.word	0x0006cbd8
   12ddc:	0006fb2c 	.word	0x0006fb2c
   12de0:	0006cbbc 	.word	0x0006cbbc
   12de4:	00082440 	.word	0x00082440
   12de8:	0006f948 	.word	0x0006f948
   12dec:	0006f8cc 	.word	0x0006f8cc
   12df0:	00000000 	.word	0x00000000

00012df4 <_nl_find_domain>:
   12df4:	e92d4ff0 	push	{r4, r5, r6, r7, r8, r9, sl, fp, lr}
   12df8:	e1a05000 	mov	r5, r0
   12dfc:	e59f628c 	ldr	r6, [pc, #652]	; 13090 <_nl_find_domain+0x29c>
   12e00:	e59fc28c 	ldr	ip, [pc, #652]	; 13094 <_nl_find_domain+0x2a0>
   12e04:	e24dd044 	sub	sp, sp, #68	; 0x44
   12e08:	e5960000 	ldr	r0, [r6]
   12e0c:	e35c0000 	cmp	ip, #0
   12e10:	e1a07001 	mov	r7, r1
   12e14:	e1a09002 	mov	r9, r2
   12e18:	e1a0a003 	mov	sl, r3
   12e1c:	e58d003c 	str	r0, [sp, #60]	; 0x3c
   12e20:	0a000001 	beq	12e2c <_nl_find_domain+0x38>
   12e24:	e59f026c 	ldr	r0, [pc, #620]	; 13098 <_nl_find_domain+0x2a4>
   12e28:	e1a00000 	nop			; (mov r0, r0)
   12e2c:	e1a00005 	mov	r0, r5
   12e30:	eb004d7a 	bl	26420 <strlen>
   12e34:	e3a03000 	mov	r3, #0
   12e38:	e58d9014 	str	r9, [sp, #20]
   12e3c:	e58d7000 	str	r7, [sp]
   12e40:	e58d3018 	str	r3, [sp, #24]
   12e44:	e58d3010 	str	r3, [sp, #16]
   12e48:	e58d300c 	str	r3, [sp, #12]
   12e4c:	e58d3008 	str	r3, [sp, #8]
   12e50:	e58d3004 	str	r3, [sp, #4]
   12e54:	e1a01005 	mov	r1, r5
   12e58:	e59f823c 	ldr	r8, [pc, #572]	; 1309c <_nl_find_domain+0x2a8>
   12e5c:	e2802001 	add	r2, r0, #1
   12e60:	e59f0238 	ldr	r0, [pc, #568]	; 130a0 <_nl_find_domain+0x2ac>
   12e64:	eb000731 	bl	14b30 <_nl_make_l10nflist>
   12e68:	e3580000 	cmp	r8, #0
   12e6c:	e1a04000 	mov	r4, r0
   12e70:	0a000001 	beq	12e7c <_nl_find_domain+0x88>
   12e74:	e59f021c 	ldr	r0, [pc, #540]	; 13098 <_nl_find_domain+0x2a4>
   12e78:	e1a00000 	nop			; (mov r0, r0)
   12e7c:	e3540000 	cmp	r4, #0
   12e80:	0a000022 	beq	12f10 <_nl_find_domain+0x11c>
   12e84:	e5943004 	ldr	r3, [r4, #4]
   12e88:	e3530000 	cmp	r3, #0
   12e8c:	da00001b 	ble	12f00 <_nl_find_domain+0x10c>
   12e90:	e5943008 	ldr	r3, [r4, #8]
   12e94:	e3530000 	cmp	r3, #0
   12e98:	0a000006 	beq	12eb8 <_nl_find_domain+0xc4>
   12e9c:	e59d203c 	ldr	r2, [sp, #60]	; 0x3c
   12ea0:	e5963000 	ldr	r3, [r6]
   12ea4:	e1a00004 	mov	r0, r4
   12ea8:	e1520003 	cmp	r2, r3
   12eac:	1a000076 	bne	1308c <_nl_find_domain+0x298>
   12eb0:	e28dd044 	add	sp, sp, #68	; 0x44
   12eb4:	e8bd8ff0 	pop	{r4, r5, r6, r7, r8, r9, sl, fp, pc}
   12eb8:	e5940010 	ldr	r0, [r4, #16]
   12ebc:	e3500000 	cmp	r0, #0
   12ec0:	0afffff5 	beq	12e9c <_nl_find_domain+0xa8>
   12ec4:	e2845010 	add	r5, r4, #16
   12ec8:	ea000006 	b	12ee8 <_nl_find_domain+0xf4>
   12ecc:	e4953004 	ldr	r3, [r5], #4
   12ed0:	e5933008 	ldr	r3, [r3, #8]
   12ed4:	e3530000 	cmp	r3, #0
   12ed8:	1affffef 	bne	12e9c <_nl_find_domain+0xa8>
   12edc:	e5950000 	ldr	r0, [r5]
   12ee0:	e3500000 	cmp	r0, #0
   12ee4:	0affffec 	beq	12e9c <_nl_find_domain+0xa8>
   12ee8:	e5903004 	ldr	r3, [r0, #4]
   12eec:	e3530000 	cmp	r3, #0
   12ef0:	cafffff5 	bgt	12ecc <_nl_find_domain+0xd8>
   12ef4:	e1a0100a 	mov	r1, sl
   12ef8:	eb00006a 	bl	130a8 <_nl_load_domain>
   12efc:	eafffff2 	b	12ecc <_nl_find_domain+0xd8>
   12f00:	e1a0100a 	mov	r1, sl
   12f04:	e1a00004 	mov	r0, r4
   12f08:	eb000066 	bl	130a8 <_nl_load_domain>
   12f0c:	eaffffdf 	b	12e90 <_nl_find_domain+0x9c>
   12f10:	e1a00007 	mov	r0, r7
   12f14:	eb00069e 	bl	14994 <_nl_expand_alias>
   12f18:	e2503000 	subs	r3, r0, #0
   12f1c:	e58d3024 	str	r3, [sp, #36]	; 0x24
   12f20:	0a000008 	beq	12f48 <_nl_find_domain+0x154>
   12f24:	eb004d3d 	bl	26420 <strlen>
   12f28:	e280b001 	add	fp, r0, #1
   12f2c:	e1a0000b 	mov	r0, fp
   12f30:	eb004543 	bl	24444 <__libc_malloc>
   12f34:	e2507000 	subs	r7, r0, #0
   12f38:	0affffd7 	beq	12e9c <_nl_find_domain+0xa8>
   12f3c:	e1a0200b 	mov	r2, fp
   12f40:	e59d1024 	ldr	r1, [sp, #36]	; 0x24
   12f44:	eb00520d 	bl	27780 <memcpy>
   12f48:	e28d2038 	add	r2, sp, #56	; 0x38
   12f4c:	e28d3034 	add	r3, sp, #52	; 0x34
   12f50:	e58d2004 	str	r2, [sp, #4]
   12f54:	e58d3000 	str	r3, [sp]
   12f58:	e28d202c 	add	r2, sp, #44	; 0x2c
   12f5c:	e28d3030 	add	r3, sp, #48	; 0x30
   12f60:	e28d1028 	add	r1, sp, #40	; 0x28
   12f64:	e1a00007 	mov	r0, r7
   12f68:	eb00086d 	bl	15124 <_nl_explode_name>
   12f6c:	e3700001 	cmn	r0, #1
   12f70:	e1a0b000 	mov	fp, r0
   12f74:	0affffc8 	beq	12e9c <_nl_find_domain+0xa8>
   12f78:	e59f3124 	ldr	r3, [pc, #292]	; 130a4 <_nl_find_domain+0x2b0>
   12f7c:	e3530000 	cmp	r3, #0
   12f80:	0a000001 	beq	12f8c <_nl_find_domain+0x198>
   12f84:	e59f010c 	ldr	r0, [pc, #268]	; 13098 <_nl_find_domain+0x2a4>
   12f88:	e1a00000 	nop			; (mov r0, r0)
   12f8c:	e1a00005 	mov	r0, r5
   12f90:	eb004d22 	bl	26420 <strlen>
   12f94:	e59dc02c 	ldr	ip, [sp, #44]	; 0x2c
   12f98:	e59d2038 	ldr	r2, [sp, #56]	; 0x38
   12f9c:	e59d3034 	ldr	r3, [sp, #52]	; 0x34
   12fa0:	e58dc010 	str	ip, [sp, #16]
   12fa4:	e58d200c 	str	r2, [sp, #12]
   12fa8:	e59dc030 	ldr	ip, [sp, #48]	; 0x30
   12fac:	e59d2028 	ldr	r2, [sp, #40]	; 0x28
   12fb0:	e58d3008 	str	r3, [sp, #8]
   12fb4:	e3a03001 	mov	r3, #1
   12fb8:	e88d1004 	stm	sp, {r2, ip}
   12fbc:	e58d3018 	str	r3, [sp, #24]
   12fc0:	e58d9014 	str	r9, [sp, #20]
   12fc4:	e1a01005 	mov	r1, r5
   12fc8:	e1a0300b 	mov	r3, fp
   12fcc:	e2802001 	add	r2, r0, #1
   12fd0:	e59f00c8 	ldr	r0, [pc, #200]	; 130a0 <_nl_find_domain+0x2ac>
   12fd4:	eb0006d5 	bl	14b30 <_nl_make_l10nflist>
   12fd8:	e3580000 	cmp	r8, #0
   12fdc:	e1a04000 	mov	r4, r0
   12fe0:	0a000001 	beq	12fec <_nl_find_domain+0x1f8>
   12fe4:	e59f00ac 	ldr	r0, [pc, #172]	; 13098 <_nl_find_domain+0x2a4>
   12fe8:	e1a00000 	nop			; (mov r0, r0)
   12fec:	e3540000 	cmp	r4, #0
   12ff0:	0a00000a 	beq	13020 <_nl_find_domain+0x22c>
   12ff4:	e5943004 	ldr	r3, [r4, #4]
   12ff8:	e3530000 	cmp	r3, #0
   12ffc:	da00001e 	ble	1307c <_nl_find_domain+0x288>
   13000:	e5943008 	ldr	r3, [r4, #8]
   13004:	e3530000 	cmp	r3, #0
   13008:	0a000009 	beq	13034 <_nl_find_domain+0x240>
   1300c:	e59d3024 	ldr	r3, [sp, #36]	; 0x24
   13010:	e3530000 	cmp	r3, #0
   13014:	0a000001 	beq	13020 <_nl_find_domain+0x22c>
   13018:	e1a00007 	mov	r0, r7
   1301c:	eb0046a6 	bl	24abc <__free>
   13020:	e31b0001 	tst	fp, #1
   13024:	0affff9c 	beq	12e9c <_nl_find_domain+0xa8>
   13028:	e59d0038 	ldr	r0, [sp, #56]	; 0x38
   1302c:	eb0046a2 	bl	24abc <__free>
   13030:	eaffff99 	b	12e9c <_nl_find_domain+0xa8>
   13034:	e5940010 	ldr	r0, [r4, #16]
   13038:	e3500000 	cmp	r0, #0
   1303c:	0afffff2 	beq	1300c <_nl_find_domain+0x218>
   13040:	e2845010 	add	r5, r4, #16
   13044:	ea000006 	b	13064 <_nl_find_domain+0x270>
   13048:	e4953004 	ldr	r3, [r5], #4
   1304c:	e5933008 	ldr	r3, [r3, #8]
   13050:	e3530000 	cmp	r3, #0
   13054:	1affffec 	bne	1300c <_nl_find_domain+0x218>
   13058:	e5950000 	ldr	r0, [r5]
   1305c:	e3500000 	cmp	r0, #0
   13060:	0affffe9 	beq	1300c <_nl_find_domain+0x218>
   13064:	e5903004 	ldr	r3, [r0, #4]
   13068:	e3530000 	cmp	r3, #0
   1306c:	cafffff5 	bgt	13048 <_nl_find_domain+0x254>
   13070:	e1a0100a 	mov	r1, sl
   13074:	eb00000b 	bl	130a8 <_nl_load_domain>
   13078:	eafffff2 	b	13048 <_nl_find_domain+0x254>
   1307c:	e1a0100a 	mov	r1, sl
   13080:	e1a00004 	mov	r0, r4
   13084:	eb000007 	bl	130a8 <_nl_load_domain>
   13088:	eaffffdc 	b	13000 <_nl_find_domain+0x20c>
   1308c:	eb0060a3 	bl	2b320 <__stack_chk_fail>
   13090:	00082000 	.word	0x00082000
   13094:	00000000 	.word	0x00000000
   13098:	000835d8 	.word	0x000835d8
   1309c:	00000000 	.word	0x00000000
   130a0:	000835f8 	.word	0x000835f8
   130a4:	00000000 	.word	0x00000000

000130a8 <_nl_load_domain>:
   130a8:	e92d4ff0 	push	{r4, r5, r6, r7, r8, r9, sl, fp, lr}
   130ac:	e1a0a000 	mov	sl, r0
   130b0:	e59f6fe8 	ldr	r6, [pc, #4072]	; 140a0 <_nl_load_domain+0xff8>
   130b4:	e59fbfe8 	ldr	fp, [pc, #4072]	; 140a4 <_nl_load_domain+0xffc>
   130b8:	e24dd0dc 	sub	sp, sp, #220	; 0xdc
   130bc:	e5962008 	ldr	r2, [r6, #8]
   130c0:	ebfff9c2 	bl	117d0 <__aeabi_read_tp>
   130c4:	e59b3000 	ldr	r3, [fp]
   130c8:	e2404d13 	sub	r4, r0, #1216	; 0x4c0
   130cc:	e1520004 	cmp	r2, r4
   130d0:	e58d1008 	str	r1, [sp, #8]
   130d4:	e58d30d4 	str	r3, [sp, #212]	; 0xd4
   130d8:	0a000009 	beq	13104 <_nl_load_domain+0x5c>
   130dc:	e3a03001 	mov	r3, #1
   130e0:	e1962f9f 	ldrex	r2, [r6]
   130e4:	e3520000 	cmp	r2, #0
   130e8:	1a000003 	bne	130fc <_nl_load_domain+0x54>
   130ec:	e1861f93 	strex	r1, r3, [r6]
   130f0:	e3510000 	cmp	r1, #0
   130f4:	1afffff9 	bne	130e0 <_nl_load_domain+0x38>
   130f8:	ee070fba 	mcr	15, 0, r0, cr7, cr10, {5}
   130fc:	1a00012d 	bne	135b8 <_nl_load_domain+0x510>
   13100:	e5864008 	str	r4, [r6, #8]
   13104:	e5963004 	ldr	r3, [r6, #4]
   13108:	e59a1004 	ldr	r1, [sl, #4]
   1310c:	e2832001 	add	r2, r3, #1
   13110:	e3510000 	cmp	r1, #0
   13114:	e5862004 	str	r2, [r6, #4]
   13118:	1a0000f1 	bne	134e4 <_nl_load_domain+0x43c>
   1311c:	e59a0000 	ldr	r0, [sl]
   13120:	e3e02000 	mvn	r2, #0
   13124:	e3500000 	cmp	r0, #0
   13128:	e58a1008 	str	r1, [sl, #8]
   1312c:	e58a2004 	str	r2, [sl, #4]
   13130:	0a0000e9 	beq	134dc <_nl_load_domain+0x434>
   13134:	eb005aa7 	bl	29bd8 <__open_nocancel>
   13138:	e3700001 	cmn	r0, #1
   1313c:	e1a04000 	mov	r4, r0
   13140:	0a0000fa 	beq	13530 <_nl_load_domain+0x488>
   13144:	e1a01000 	mov	r1, r0
   13148:	e28d2060 	add	r2, sp, #96	; 0x60
   1314c:	e3a00003 	mov	r0, #3
   13150:	eb005690 	bl	28b98 <___fxstat64>
   13154:	e2501000 	subs	r1, r0, #0
   13158:	e58d100c 	str	r1, [sp, #12]
   1315c:	1a0000f1 	bne	13528 <_nl_load_domain+0x480>
   13160:	e1cd89d0 	ldrd	r8, [sp, #144]	; 0x90
   13164:	e1a03001 	mov	r3, r1
   13168:	e1510009 	cmp	r1, r9
   1316c:	01580008 	cmpeq	r8, r8
   13170:	13a03001 	movne	r3, #1
   13174:	03a03000 	moveq	r3, #0
   13178:	e358002f 	cmp	r8, #47	; 0x2f
   1317c:	93833001 	orrls	r3, r3, #1
   13180:	e3530000 	cmp	r3, #0
   13184:	e1cd81f0 	strd	r8, [sp, #16]
   13188:	1a0000e6 	bne	13528 <_nl_load_domain+0x480>
   1318c:	e58d1004 	str	r1, [sp, #4]
   13190:	e58d4000 	str	r4, [sp]
   13194:	e1a01008 	mov	r1, r8
   13198:	e3a03002 	mov	r3, #2
   1319c:	e3a02001 	mov	r2, #1
   131a0:	eb005b65 	bl	29f3c <__mmap>
   131a4:	e3700001 	cmn	r0, #1
   131a8:	e1a08000 	mov	r8, r0
   131ac:	0a000113 	beq	13600 <_nl_load_domain+0x558>
   131b0:	e1a00004 	mov	r0, r4
   131b4:	eb005a33 	bl	29a88 <__close_nocancel>
   131b8:	e5987000 	ldr	r7, [r8]
   131bc:	e59f3ee4 	ldr	r3, [pc, #3812]	; 140a8 <_nl_load_domain+0x1000>
   131c0:	e59f2ee4 	ldr	r2, [pc, #3812]	; 140ac <_nl_load_domain+0x1004>
   131c4:	e0574003 	subs	r4, r7, r3
   131c8:	13a04001 	movne	r4, #1
   131cc:	e1570002 	cmp	r7, r2
   131d0:	11570003 	cmpne	r7, r3
   131d4:	1a000132 	bne	136a4 <_nl_load_domain+0x5fc>
   131d8:	e3a03001 	mov	r3, #1
   131dc:	e58d300c 	str	r3, [sp, #12]
   131e0:	e3a00068 	mov	r0, #104	; 0x68
   131e4:	eb004496 	bl	24444 <__libc_malloc>
   131e8:	e2509000 	subs	r9, r0, #0
   131ec:	0a0000cf 	beq	13530 <_nl_load_domain+0x488>
   131f0:	e59f2eb0 	ldr	r2, [pc, #3760]	; 140a8 <_nl_load_domain+0x1000>
   131f4:	e3a03000 	mov	r3, #0
   131f8:	e1570002 	cmp	r7, r2
   131fc:	e59d200c 	ldr	r2, [sp, #12]
   13200:	e5893010 	str	r3, [r9, #16]
   13204:	e5892004 	str	r2, [r9, #4]
   13208:	e59d2010 	ldr	r2, [sp, #16]
   1320c:	e58a9008 	str	r9, [sl, #8]
   13210:	e5898000 	str	r8, [r9]
   13214:	e5892008 	str	r2, [r9, #8]
   13218:	e589400c 	str	r4, [r9, #12]
   1321c:	e5983004 	ldr	r3, [r8, #4]
   13220:	0a0000d3 	beq	13574 <_nl_load_domain+0x4cc>
   13224:	e6bf3f33 	rev	r3, r3
   13228:	e3530802 	cmp	r3, #131072	; 0x20000
   1322c:	2a0000d2 	bcs	1357c <_nl_load_domain+0x4d4>
   13230:	e2880008 	add	r0, r8, #8
   13234:	e8901007 	ldm	r0, {r0, r1, r2, ip}
   13238:	e6bf1f31 	rev	r1, r1
   1323c:	e6bfcf3c 	rev	ip, ip
   13240:	e6bf2f32 	rev	r2, r2
   13244:	e0881001 	add	r1, r8, r1
   13248:	e6bf0f30 	rev	r0, r0
   1324c:	e0882002 	add	r2, r8, r2
   13250:	e35c0002 	cmp	ip, #2
   13254:	e58dc01c 	str	ip, [sp, #28]
   13258:	e1c901f4 	strd	r0, [r9, #20]
   1325c:	e589201c 	str	r2, [r9, #28]
   13260:	e589c02c 	str	ip, [r9, #44]	; 0x2c
   13264:	9a00007c 	bls	1345c <_nl_load_domain+0x3b4>
   13268:	e5982018 	ldr	r2, [r8, #24]
   1326c:	e6bf2f32 	rev	r2, r2
   13270:	e6ff3073 	uxth	r3, r3
   13274:	e3530000 	cmp	r3, #0
   13278:	e0883002 	add	r3, r8, r2
   1327c:	e5893030 	str	r3, [r9, #48]	; 0x30
   13280:	e5894034 	str	r4, [r9, #52]	; 0x34
   13284:	0a00007a 	beq	13474 <_nl_load_domain+0x3cc>
   13288:	e3530000 	cmp	r3, #0
   1328c:	0a0000ba 	beq	1357c <_nl_load_domain+0x4d4>
   13290:	e59f3e10 	ldr	r3, [pc, #3600]	; 140a8 <_nl_load_domain+0x1000>
   13294:	e5982024 	ldr	r2, [r8, #36]	; 0x24
   13298:	e1570003 	cmp	r7, r3
   1329c:	e58d2018 	str	r2, [sp, #24]
   132a0:	0a0000f4 	beq	13678 <_nl_load_domain+0x5d0>
   132a4:	e6bf3f32 	rev	r3, r2
   132a8:	e3530000 	cmp	r3, #0
   132ac:	e58d3018 	str	r3, [sp, #24]
   132b0:	0a00006f 	beq	13474 <_nl_load_domain+0x3cc>
   132b4:	e1c821dc 	ldrd	r2, [r8, #28]
   132b8:	e6bf4f32 	rev	r4, r2
   132bc:	e6bf3f33 	rev	r3, r3
   132c0:	e0883003 	add	r3, r8, r3
   132c4:	e3a01004 	mov	r1, #4
   132c8:	e1a00004 	mov	r0, r4
   132cc:	e58d3024 	str	r3, [sp, #36]	; 0x24
   132d0:	eb00479a 	bl	25140 <__calloc>
   132d4:	e2503000 	subs	r3, r0, #0
   132d8:	e58d3020 	str	r3, [sp, #32]
   132dc:	0a0000a6 	beq	1357c <_nl_load_domain+0x4d4>
   132e0:	e3540000 	cmp	r4, #0
   132e4:	0a0000fd 	beq	136e0 <_nl_load_domain+0x638>
   132e8:	e59d3020 	ldr	r3, [sp, #32]
   132ec:	e58da028 	str	sl, [sp, #40]	; 0x28
   132f0:	e243c004 	sub	ip, r3, #4
   132f4:	e59d3024 	ldr	r3, [sp, #36]	; 0x24
   132f8:	e59feda8 	ldr	lr, [pc, #3496]	; 140a8 <_nl_load_domain+0x1000>
   132fc:	e3a05000 	mov	r5, #0
   13300:	e2830004 	add	r0, r3, #4
   13304:	e58d9024 	str	r9, [sp, #36]	; 0x24
   13308:	e1a0a003 	mov	sl, r3
   1330c:	ea00000a 	b	1333c <_nl_load_domain+0x294>
   13310:	e3510049 	cmp	r1, #73	; 0x49
   13314:	1a000004 	bne	1332c <_nl_load_domain+0x284>
   13318:	e5d33001 	ldrb	r3, [r3, #1]
   1331c:	e3530000 	cmp	r3, #0
   13320:	e59f3d88 	ldr	r3, [pc, #3464]	; 140b0 <_nl_load_domain+0x1008>
   13324:	13a02000 	movne	r2, #0
   13328:	01a02003 	moveq	r2, r3
   1332c:	e2855001 	add	r5, r5, #1
   13330:	e1550004 	cmp	r5, r4
   13334:	e5ac2004 	str	r2, [ip, #4]!
   13338:	0a0000e6 	beq	136d8 <_nl_load_domain+0x630>
   1333c:	e7903185 	ldr	r3, [r0, r5, lsl #3]
   13340:	e79a2185 	ldr	r2, [sl, r5, lsl #3]
   13344:	e157000e 	cmp	r7, lr
   13348:	16bf3f33 	revne	r3, r3
   1334c:	16bf2f32 	revne	r2, r2
   13350:	10883003 	addne	r3, r8, r3
   13354:	00883003 	addeq	r3, r8, r3
   13358:	e3520000 	cmp	r2, #0
   1335c:	0a0000cb 	beq	13690 <_nl_load_domain+0x5e8>
   13360:	e0832002 	add	r2, r3, r2
   13364:	e5522001 	ldrb	r2, [r2, #-1]
   13368:	e3520000 	cmp	r2, #0
   1336c:	1a0000c7 	bne	13690 <_nl_load_domain+0x5e8>
   13370:	e5d31000 	ldrb	r1, [r3]
   13374:	e3510050 	cmp	r1, #80	; 0x50
   13378:	1affffe4 	bne	13310 <_nl_load_domain+0x268>
   1337c:	e5d31001 	ldrb	r1, [r3, #1]
   13380:	e3510052 	cmp	r1, #82	; 0x52
   13384:	1affffe8 	bne	1332c <_nl_load_domain+0x284>
   13388:	e5d31002 	ldrb	r1, [r3, #2]
   1338c:	e3510049 	cmp	r1, #73	; 0x49
   13390:	1affffe5 	bne	1332c <_nl_load_domain+0x284>
   13394:	e5d31003 	ldrb	r1, [r3, #3]
   13398:	e3510069 	cmp	r1, #105	; 0x69
   1339c:	13510064 	cmpne	r1, #100	; 0x64
   133a0:	03a09001 	moveq	r9, #1
   133a4:	13a09000 	movne	r9, #0
   133a8:	e351006f 	cmp	r1, #111	; 0x6f
   133ac:	13510075 	cmpne	r1, #117	; 0x75
   133b0:	e58d102c 	str	r1, [sp, #44]	; 0x2c
   133b4:	03a01001 	moveq	r1, #1
   133b8:	13a01000 	movne	r1, #0
   133bc:	e58d9034 	str	r9, [sp, #52]	; 0x34
   133c0:	e58d1030 	str	r1, [sp, #48]	; 0x30
   133c4:	e1819009 	orr	r9, r1, r9
   133c8:	e59d102c 	ldr	r1, [sp, #44]	; 0x2c
   133cc:	e20110df 	and	r1, r1, #223	; 0xdf
   133d0:	e3510058 	cmp	r1, #88	; 0x58
   133d4:	03899001 	orreq	r9, r9, #1
   133d8:	e3590000 	cmp	r9, #0
   133dc:	0a00020d 	beq	13c18 <_nl_load_domain+0xb70>
   133e0:	e5d39004 	ldrb	r9, [r3, #4]
   133e4:	e3590038 	cmp	r9, #56	; 0x38
   133e8:	0a0001b3 	beq	13abc <_nl_load_domain+0xa14>
   133ec:	e3590031 	cmp	r9, #49	; 0x31
   133f0:	0a0001c5 	beq	13b0c <_nl_load_domain+0xa64>
   133f4:	e3590033 	cmp	r9, #51	; 0x33
   133f8:	1a000119 	bne	13864 <_nl_load_domain+0x7bc>
   133fc:	e5d32005 	ldrb	r2, [r3, #5]
   13400:	e3520032 	cmp	r2, #50	; 0x32
   13404:	13a02000 	movne	r2, #0
   13408:	1affffc7 	bne	1332c <_nl_load_domain+0x284>
   1340c:	e5d33006 	ldrb	r3, [r3, #6]
   13410:	e3530000 	cmp	r3, #0
   13414:	1a0002ff 	bne	14018 <_nl_load_domain+0xf70>
   13418:	e59d202c 	ldr	r2, [sp, #44]	; 0x2c
   1341c:	e3520064 	cmp	r2, #100	; 0x64
   13420:	0a00033d 	beq	1411c <_nl_load_domain+0x1074>
   13424:	e59d3034 	ldr	r3, [sp, #52]	; 0x34
   13428:	e3530000 	cmp	r3, #0
   1342c:	1a000338 	bne	14114 <_nl_load_domain+0x106c>
   13430:	e352006f 	cmp	r2, #111	; 0x6f
   13434:	0a000334 	beq	1410c <_nl_load_domain+0x1064>
   13438:	e59d3030 	ldr	r3, [sp, #48]	; 0x30
   1343c:	e3530000 	cmp	r3, #0
   13440:	1a00033b 	bne	14134 <_nl_load_domain+0x108c>
   13444:	e3520078 	cmp	r2, #120	; 0x78
   13448:	0a000337 	beq	1412c <_nl_load_domain+0x1084>
   1344c:	e3520058 	cmp	r2, #88	; 0x58
   13450:	1a000435 	bne	1452c <_nl_load_domain+0x1484>
   13454:	e59f2c6c 	ldr	r2, [pc, #3180]	; 140c8 <_nl_load_domain+0x1020>
   13458:	eaffffb3 	b	1332c <_nl_load_domain+0x284>
   1345c:	e6ff3073 	uxth	r3, r3
   13460:	e3530000 	cmp	r3, #0
   13464:	e3a03000 	mov	r3, #0
   13468:	e5894034 	str	r4, [r9, #52]	; 0x34
   1346c:	e5893030 	str	r3, [r9, #48]	; 0x30
   13470:	1a000041 	bne	1357c <_nl_load_domain+0x4d4>
   13474:	e3a03000 	mov	r3, #0
   13478:	e5893020 	str	r3, [r9, #32]
   1347c:	e5893024 	str	r3, [r9, #36]	; 0x24
   13480:	e5893028 	str	r3, [r9, #40]	; 0x28
   13484:	e59f3c28 	ldr	r3, [pc, #3112]	; 140b4 <_nl_load_domain+0x100c>
   13488:	e3a01000 	mov	r1, #0
   1348c:	e1530001 	cmp	r3, r1
   13490:	e5891038 	str	r1, [r9, #56]	; 0x38
   13494:	e589103c 	str	r1, [r9, #60]	; 0x3c
   13498:	0a000001 	beq	134a4 <_nl_load_domain+0x3fc>
   1349c:	e2890040 	add	r0, r9, #64	; 0x40
   134a0:	e1a00000 	nop			; (mov r0, r0)
   134a4:	e28d305c 	add	r3, sp, #92	; 0x5c
   134a8:	e58d3000 	str	r3, [sp]
   134ac:	e59d1008 	ldr	r1, [sp, #8]
   134b0:	e3a03000 	mov	r3, #0
   134b4:	e59f2bfc 	ldr	r2, [pc, #3068]	; 140b8 <_nl_load_domain+0x1010>
   134b8:	e1a0000a 	mov	r0, sl
   134bc:	ebfff9e4 	bl	11c54 <_nl_find_msg>
   134c0:	e3700001 	cmn	r0, #1
   134c4:	0a00007c 	beq	136bc <_nl_load_domain+0x614>
   134c8:	e2892064 	add	r2, r9, #100	; 0x64
   134cc:	e2891060 	add	r1, r9, #96	; 0x60
   134d0:	eb000a2a 	bl	15d80 <__gettext_extract_plural>
   134d4:	e5963004 	ldr	r3, [r6, #4]
   134d8:	e2433001 	sub	r3, r3, #1
   134dc:	e3a02001 	mov	r2, #1
   134e0:	e58a2004 	str	r2, [sl, #4]
   134e4:	e3530000 	cmp	r3, #0
   134e8:	e5863004 	str	r3, [r6, #4]
   134ec:	0a000012 	beq	1353c <_nl_load_domain+0x494>
   134f0:	e59d20d4 	ldr	r2, [sp, #212]	; 0xd4
   134f4:	e59b3000 	ldr	r3, [fp]
   134f8:	e1520003 	cmp	r2, r3
   134fc:	1a0002be 	bne	13ffc <_nl_load_domain+0xf54>
   13500:	e28dd0dc 	add	sp, sp, #220	; 0xdc
   13504:	e8bd8ff0 	pop	{r4, r5, r6, r7, r8, r9, sl, fp, pc}
   13508:	e3700001 	cmn	r0, #1
   1350c:	1a000005 	bne	13528 <_nl_load_domain+0x480>
   13510:	e59f3ba4 	ldr	r3, [pc, #2980]	; 140bc <_nl_load_domain+0x1014>
   13514:	ebfff8ad 	bl	117d0 <__aeabi_read_tp>
   13518:	e79f3003 	ldr	r3, [pc, r3]
   1351c:	e7903003 	ldr	r3, [r0, r3]
   13520:	e3530004 	cmp	r3, #4
   13524:	0a00003b 	beq	13618 <_nl_load_domain+0x570>
   13528:	e1a00004 	mov	r0, r4
   1352c:	eb005955 	bl	29a88 <__close_nocancel>
   13530:	e5963004 	ldr	r3, [r6, #4]
   13534:	e2433001 	sub	r3, r3, #1
   13538:	eaffffe7 	b	134dc <_nl_load_domain+0x434>
   1353c:	e5863008 	str	r3, [r6, #8]
   13540:	ee070fba 	mcr	15, 0, r0, cr7, cr10, {5}
   13544:	e1962f9f 	ldrex	r2, [r6]
   13548:	e1861f93 	strex	r1, r3, [r6]
   1354c:	e3510000 	cmp	r1, #0
   13550:	1afffffb 	bne	13544 <_nl_load_domain+0x49c>
   13554:	e3520001 	cmp	r2, #1
   13558:	daffffe4 	ble	134f0 <_nl_load_domain+0x448>
   1355c:	e59f0b3c 	ldr	r0, [pc, #2876]	; 140a0 <_nl_load_domain+0xff8>
   13560:	e3a01081 	mov	r1, #129	; 0x81
   13564:	e3a02001 	mov	r2, #1
   13568:	e3a070f0 	mov	r7, #240	; 0xf0
   1356c:	ef000000 	svc	0x00000000
   13570:	eaffffde 	b	134f0 <_nl_load_domain+0x448>
   13574:	e3530802 	cmp	r3, #131072	; 0x20000
   13578:	3a000011 	bcc	135c4 <_nl_load_domain+0x51c>
   1357c:	e3a00000 	mov	r0, #0
   13580:	eb00454d 	bl	24abc <__free>
   13584:	e59d300c 	ldr	r3, [sp, #12]
   13588:	e3530000 	cmp	r3, #0
   1358c:	0a000018 	beq	135f4 <_nl_load_domain+0x54c>
   13590:	e59d1010 	ldr	r1, [sp, #16]
   13594:	e1a00008 	mov	r0, r8
   13598:	eb005aac 	bl	2a050 <__munmap>
   1359c:	e1a00009 	mov	r0, r9
   135a0:	eb004545 	bl	24abc <__free>
   135a4:	e5963004 	ldr	r3, [r6, #4]
   135a8:	e3a02000 	mov	r2, #0
   135ac:	e2433001 	sub	r3, r3, #1
   135b0:	e58a2008 	str	r2, [sl, #8]
   135b4:	eaffffc8 	b	134dc <_nl_load_domain+0x434>
   135b8:	e1a00006 	mov	r0, r6
   135bc:	eb005eed 	bl	2b178 <__lll_lock_wait_private>
   135c0:	eafffece 	b	13100 <_nl_load_domain+0x58>
   135c4:	e2880008 	add	r0, r8, #8
   135c8:	e8901007 	ldm	r0, {r0, r1, r2, ip}
   135cc:	e0881001 	add	r1, r8, r1
   135d0:	e0882002 	add	r2, r8, r2
   135d4:	e35c0002 	cmp	ip, #2
   135d8:	e58dc01c 	str	ip, [sp, #28]
   135dc:	e1c901f4 	strd	r0, [r9, #20]
   135e0:	e589201c 	str	r2, [r9, #28]
   135e4:	e589c02c 	str	ip, [r9, #44]	; 0x2c
   135e8:	9affff9b 	bls	1345c <_nl_load_domain+0x3b4>
   135ec:	e5982018 	ldr	r2, [r8, #24]
   135f0:	eaffff1e 	b	13270 <_nl_load_domain+0x1c8>
   135f4:	e1a00008 	mov	r0, r8
   135f8:	eb00452f 	bl	24abc <__free>
   135fc:	eaffffe6 	b	1359c <_nl_load_domain+0x4f4>
   13600:	e59d0010 	ldr	r0, [sp, #16]
   13604:	eb00438e 	bl	24444 <__libc_malloc>
   13608:	e2508000 	subs	r8, r0, #0
   1360c:	0affffc5 	beq	13528 <_nl_load_domain+0x480>
   13610:	e59d5010 	ldr	r5, [sp, #16]
   13614:	e1a07008 	mov	r7, r8
   13618:	e1a02005 	mov	r2, r5
   1361c:	e1a01007 	mov	r1, r7
   13620:	e1a00004 	mov	r0, r4
   13624:	eb0059c2 	bl	29d34 <__read_nocancel>
   13628:	e3500000 	cmp	r0, #0
   1362c:	daffffb5 	ble	13508 <_nl_load_domain+0x460>
   13630:	e0555000 	subs	r5, r5, r0
   13634:	e0877000 	add	r7, r7, r0
   13638:	1afffff6 	bne	13618 <_nl_load_domain+0x570>
   1363c:	e1a00004 	mov	r0, r4
   13640:	eb005910 	bl	29a88 <__close_nocancel>
   13644:	e5987000 	ldr	r7, [r8]
   13648:	e59f3a58 	ldr	r3, [pc, #2648]	; 140a8 <_nl_load_domain+0x1000>
   1364c:	e59f2a58 	ldr	r2, [pc, #2648]	; 140ac <_nl_load_domain+0x1004>
   13650:	e0574003 	subs	r4, r7, r3
   13654:	13a04001 	movne	r4, #1
   13658:	e1570002 	cmp	r7, r2
   1365c:	11570003 	cmpne	r7, r3
   13660:	0afffede 	beq	131e0 <_nl_load_domain+0x138>
   13664:	e1a00008 	mov	r0, r8
   13668:	eb004513 	bl	24abc <__free>
   1366c:	e5963004 	ldr	r3, [r6, #4]
   13670:	e2433001 	sub	r3, r3, #1
   13674:	eaffff98 	b	134dc <_nl_load_domain+0x434>
   13678:	e59d3018 	ldr	r3, [sp, #24]
   1367c:	e3530000 	cmp	r3, #0
   13680:	0affff7b 	beq	13474 <_nl_load_domain+0x3cc>
   13684:	e598401c 	ldr	r4, [r8, #28]
   13688:	e5983020 	ldr	r3, [r8, #32]
   1368c:	eaffff0b 	b	132c0 <_nl_load_domain+0x218>
   13690:	e28d0020 	add	r0, sp, #32
   13694:	e8900601 	ldm	r0, {r0, r9, sl}
   13698:	eb004507 	bl	24abc <__free>
   1369c:	e3a00000 	mov	r0, #0
   136a0:	eaffffb6 	b	13580 <_nl_load_domain+0x4d8>
   136a4:	e59d1010 	ldr	r1, [sp, #16]
   136a8:	e1a00008 	mov	r0, r8
   136ac:	eb005a67 	bl	2a050 <__munmap>
   136b0:	e5963004 	ldr	r3, [r6, #4]
   136b4:	e2433001 	sub	r3, r3, #1
   136b8:	eaffff87 	b	134dc <_nl_load_domain+0x434>
   136bc:	e59f39fc 	ldr	r3, [pc, #2556]	; 140c0 <_nl_load_domain+0x1018>
   136c0:	e3530000 	cmp	r3, #0
   136c4:	0a000001 	beq	136d0 <_nl_load_domain+0x628>
   136c8:	e2890040 	add	r0, r9, #64	; 0x40
   136cc:	e1a00000 	nop			; (mov r0, r0)
   136d0:	e5990010 	ldr	r0, [r9, #16]
   136d4:	eaffffa9 	b	13580 <_nl_load_domain+0x4d8>
   136d8:	e59d9024 	ldr	r9, [sp, #36]	; 0x24
   136dc:	e59da028 	ldr	sl, [sp, #40]	; 0x28
   136e0:	e59f39c0 	ldr	r3, [pc, #2496]	; 140a8 <_nl_load_domain+0x1000>
   136e4:	e5982028 	ldr	r2, [r8, #40]	; 0x28
   136e8:	e1570003 	cmp	r7, r3
   136ec:	e598302c 	ldr	r3, [r8, #44]	; 0x2c
   136f0:	0a000058 	beq	13858 <_nl_load_domain+0x7b0>
   136f4:	e6bf2f32 	rev	r2, r2
   136f8:	e6bf3f33 	rev	r3, r3
   136fc:	e0882002 	add	r2, r8, r2
   13700:	e58d2030 	str	r2, [sp, #48]	; 0x30
   13704:	e59d201c 	ldr	r2, [sp, #28]
   13708:	e3a01000 	mov	r1, #0
   1370c:	e0883003 	add	r3, r8, r3
   13710:	e1a02102 	lsl	r2, r2, #2
   13714:	e58d9038 	str	r9, [sp, #56]	; 0x38
   13718:	e58d2040 	str	r2, [sp, #64]	; 0x40
   1371c:	e58d3028 	str	r3, [sp, #40]	; 0x28
   13720:	e58d202c 	str	r2, [sp, #44]	; 0x2c
   13724:	e58d1024 	str	r1, [sp, #36]	; 0x24
   13728:	e58d801c 	str	r8, [sp, #28]
   1372c:	e1a09001 	mov	r9, r1
   13730:	e58da03c 	str	sl, [sp, #60]	; 0x3c
   13734:	ea00001c 	b	137ac <_nl_load_domain+0x704>
   13738:	e3550000 	cmp	r5, #0
   1373c:	059d3030 	ldreq	r3, [sp, #48]	; 0x30
   13740:	159d3028 	ldrne	r3, [sp, #40]	; 0x28
   13744:	e7932109 	ldr	r2, [r3, r9, lsl #2]
   13748:	e6bf2f32 	rev	r2, r2
   1374c:	e59d301c 	ldr	r3, [sp, #28]
   13750:	e0832002 	add	r2, r3, r2
   13754:	e5928008 	ldr	r8, [r2, #8]
   13758:	e2988001 	adds	r8, r8, #1
   1375c:	13a08001 	movne	r8, #1
   13760:	e3580000 	cmp	r8, #0
   13764:	1a00001b 	bne	137d8 <_nl_load_domain+0x730>
   13768:	e28d30cc 	add	r3, sp, #204	; 0xcc
   1376c:	e3550001 	cmp	r5, #1
   13770:	e7838105 	str	r8, [r3, r5, lsl #2]
   13774:	1a000015 	bne	137d0 <_nl_load_domain+0x728>
   13778:	e59d20d0 	ldr	r2, [sp, #208]	; 0xd0
   1377c:	e59d30cc 	ldr	r3, [sp, #204]	; 0xcc
   13780:	e59d1024 	ldr	r1, [sp, #36]	; 0x24
   13784:	e0833002 	add	r3, r3, r2
   13788:	e59d202c 	ldr	r2, [sp, #44]	; 0x2c
   1378c:	e2811001 	add	r1, r1, #1
   13790:	e0823003 	add	r3, r2, r3
   13794:	e58d1024 	str	r1, [sp, #36]	; 0x24
   13798:	e58d302c 	str	r3, [sp, #44]	; 0x2c
   1379c:	e59d3018 	ldr	r3, [sp, #24]
   137a0:	e2899001 	add	r9, r9, #1
   137a4:	e1590003 	cmp	r9, r3
   137a8:	0a0000ee 	beq	13b68 <_nl_load_domain+0xac0>
   137ac:	e3a05000 	mov	r5, #0
   137b0:	e59f38f0 	ldr	r3, [pc, #2288]	; 140a8 <_nl_load_domain+0x1000>
   137b4:	e1570003 	cmp	r7, r3
   137b8:	1affffde 	bne	13738 <_nl_load_domain+0x690>
   137bc:	e3550000 	cmp	r5, #0
   137c0:	059d3030 	ldreq	r3, [sp, #48]	; 0x30
   137c4:	159d3028 	ldrne	r3, [sp, #40]	; 0x28
   137c8:	e7932109 	ldr	r2, [r3, r9, lsl #2]
   137cc:	eaffffde 	b	1374c <_nl_load_domain+0x6a4>
   137d0:	e3a05001 	mov	r5, #1
   137d4:	eafffff5 	b	137b0 <_nl_load_domain+0x708>
   137d8:	e282a00c 	add	sl, r2, #12
   137dc:	e3a00000 	mov	r0, #0
   137e0:	e59d8020 	ldr	r8, [sp, #32]
   137e4:	e58d5034 	str	r5, [sp, #52]	; 0x34
   137e8:	ea000007 	b	1380c <_nl_load_domain+0x764>
   137ec:	e1530004 	cmp	r3, r4
   137f0:	2a000011 	bcs	1383c <_nl_load_domain+0x794>
   137f4:	e7980103 	ldr	r0, [r8, r3, lsl #2]
   137f8:	e28aa008 	add	sl, sl, #8
   137fc:	e3500000 	cmp	r0, #0
   13800:	0affffe5 	beq	1379c <_nl_load_domain+0x6f4>
   13804:	eb004b05 	bl	26420 <strlen>
   13808:	e0800005 	add	r0, r0, r5
   1380c:	e59f3894 	ldr	r3, [pc, #2196]	; 140a8 <_nl_load_domain+0x1000>
   13810:	e1570003 	cmp	r7, r3
   13814:	e14a20d8 	ldrd	r2, [sl, #-8]
   13818:	16bf2f32 	revne	r2, r2
   1381c:	16bf3f33 	revne	r3, r3
   13820:	10805002 	addne	r5, r0, r2
   13824:	00805002 	addeq	r5, r0, r2
   13828:	e3730001 	cmn	r3, #1
   1382c:	1affffee 	bne	137ec <_nl_load_domain+0x744>
   13830:	e1a08005 	mov	r8, r5
   13834:	e59d5034 	ldr	r5, [sp, #52]	; 0x34
   13838:	eaffffca 	b	13768 <_nl_load_domain+0x6c0>
   1383c:	e59d0020 	ldr	r0, [sp, #32]
   13840:	e59d801c 	ldr	r8, [sp, #28]
   13844:	e59d9038 	ldr	r9, [sp, #56]	; 0x38
   13848:	e59da03c 	ldr	sl, [sp, #60]	; 0x3c
   1384c:	eb00449a 	bl	24abc <__free>
   13850:	e3a00000 	mov	r0, #0
   13854:	eaffff49 	b	13580 <_nl_load_domain+0x4d8>
   13858:	e0882002 	add	r2, r8, r2
   1385c:	e58d2030 	str	r2, [sp, #48]	; 0x30
   13860:	eaffffa7 	b	13704 <_nl_load_domain+0x65c>
   13864:	e3590036 	cmp	r9, #54	; 0x36
   13868:	1a000017 	bne	138cc <_nl_load_domain+0x824>
   1386c:	e5d32005 	ldrb	r2, [r3, #5]
   13870:	e3520034 	cmp	r2, #52	; 0x34
   13874:	13a02000 	movne	r2, #0
   13878:	1afffeab 	bne	1332c <_nl_load_domain+0x284>
   1387c:	e5d33006 	ldrb	r3, [r3, #6]
   13880:	e3530000 	cmp	r3, #0
   13884:	1a0001dd 	bne	14000 <_nl_load_domain+0xf58>
   13888:	e59d202c 	ldr	r2, [sp, #44]	; 0x2c
   1388c:	e3520064 	cmp	r2, #100	; 0x64
   13890:	0a00022d 	beq	1414c <_nl_load_domain+0x10a4>
   13894:	e59d3034 	ldr	r3, [sp, #52]	; 0x34
   13898:	e3530000 	cmp	r3, #0
   1389c:	1a00022e 	bne	1415c <_nl_load_domain+0x10b4>
   138a0:	e352006f 	cmp	r2, #111	; 0x6f
   138a4:	0a00022a 	beq	14154 <_nl_load_domain+0x10ac>
   138a8:	e59d3030 	ldr	r3, [sp, #48]	; 0x30
   138ac:	e3530000 	cmp	r3, #0
   138b0:	1a00022d 	bne	1416c <_nl_load_domain+0x10c4>
   138b4:	e3520078 	cmp	r2, #120	; 0x78
   138b8:	0a000229 	beq	14164 <_nl_load_domain+0x10bc>
   138bc:	e3520058 	cmp	r2, #88	; 0x58
   138c0:	1a000319 	bne	1452c <_nl_load_domain+0x1484>
   138c4:	e59f27f8 	ldr	r2, [pc, #2040]	; 140c4 <_nl_load_domain+0x101c>
   138c8:	eafffe97 	b	1332c <_nl_load_domain+0x284>
   138cc:	e359004c 	cmp	r9, #76	; 0x4c
   138d0:	1a00002e 	bne	13990 <_nl_load_domain+0x8e8>
   138d4:	e5d32005 	ldrb	r2, [r3, #5]
   138d8:	e3520045 	cmp	r2, #69	; 0x45
   138dc:	13a02000 	movne	r2, #0
   138e0:	1afffe91 	bne	1332c <_nl_load_domain+0x284>
   138e4:	e5d32006 	ldrb	r2, [r3, #6]
   138e8:	e3520041 	cmp	r2, #65	; 0x41
   138ec:	13a02000 	movne	r2, #0
   138f0:	1afffe8d 	bne	1332c <_nl_load_domain+0x284>
   138f4:	e5d32007 	ldrb	r2, [r3, #7]
   138f8:	e3520053 	cmp	r2, #83	; 0x53
   138fc:	13a02000 	movne	r2, #0
   13900:	1afffe89 	bne	1332c <_nl_load_domain+0x284>
   13904:	e5d32008 	ldrb	r2, [r3, #8]
   13908:	e3520054 	cmp	r2, #84	; 0x54
   1390c:	13a02000 	movne	r2, #0
   13910:	1afffe85 	bne	1332c <_nl_load_domain+0x284>
   13914:	e5d32009 	ldrb	r2, [r3, #9]
   13918:	e3520038 	cmp	r2, #56	; 0x38
   1391c:	0a000255 	beq	14278 <_nl_load_domain+0x11d0>
   13920:	e3520031 	cmp	r2, #49	; 0x31
   13924:	0a00023b 	beq	14218 <_nl_load_domain+0x1170>
   13928:	e3520033 	cmp	r2, #51	; 0x33
   1392c:	1a00021e 	bne	141ac <_nl_load_domain+0x1104>
   13930:	e5d3200a 	ldrb	r2, [r3, #10]
   13934:	e3520032 	cmp	r2, #50	; 0x32
   13938:	13a02000 	movne	r2, #0
   1393c:	1afffe7a 	bne	1332c <_nl_load_domain+0x284>
   13940:	e5d3300b 	ldrb	r3, [r3, #11]
   13944:	e3530000 	cmp	r3, #0
   13948:	1a000215 	bne	141a4 <_nl_load_domain+0x10fc>
   1394c:	e59d202c 	ldr	r2, [sp, #44]	; 0x2c
   13950:	e3520064 	cmp	r2, #100	; 0x64
   13954:	0a000210 	beq	1419c <_nl_load_domain+0x10f4>
   13958:	e59d3034 	ldr	r3, [sp, #52]	; 0x34
   1395c:	e3530000 	cmp	r3, #0
   13960:	1a00020b 	bne	14194 <_nl_load_domain+0x10ec>
   13964:	e352006f 	cmp	r2, #111	; 0x6f
   13968:	0a000207 	beq	1418c <_nl_load_domain+0x10e4>
   1396c:	e59d3030 	ldr	r3, [sp, #48]	; 0x30
   13970:	e3530000 	cmp	r3, #0
   13974:	1a000202 	bne	14184 <_nl_load_domain+0x10dc>
   13978:	e3520078 	cmp	r2, #120	; 0x78
   1397c:	0a0001fc 	beq	14174 <_nl_load_domain+0x10cc>
   13980:	e3520058 	cmp	r2, #88	; 0x58
   13984:	1a0002e8 	bne	1452c <_nl_load_domain+0x1484>
   13988:	e59f2738 	ldr	r2, [pc, #1848]	; 140c8 <_nl_load_domain+0x1020>
   1398c:	eafffe66 	b	1332c <_nl_load_domain+0x284>
   13990:	e3590046 	cmp	r9, #70	; 0x46
   13994:	1a00002a 	bne	13a44 <_nl_load_domain+0x99c>
   13998:	e5d32005 	ldrb	r2, [r3, #5]
   1399c:	e3520041 	cmp	r2, #65	; 0x41
   139a0:	13a02000 	movne	r2, #0
   139a4:	1afffe60 	bne	1332c <_nl_load_domain+0x284>
   139a8:	e5d32006 	ldrb	r2, [r3, #6]
   139ac:	e3520053 	cmp	r2, #83	; 0x53
   139b0:	13a02000 	movne	r2, #0
   139b4:	1afffe5c 	bne	1332c <_nl_load_domain+0x284>
   139b8:	e5d32007 	ldrb	r2, [r3, #7]
   139bc:	e3520054 	cmp	r2, #84	; 0x54
   139c0:	13a02000 	movne	r2, #0
   139c4:	1afffe58 	bne	1332c <_nl_load_domain+0x284>
   139c8:	e5d32008 	ldrb	r2, [r3, #8]
   139cc:	e3520038 	cmp	r2, #56	; 0x38
   139d0:	0a00028d 	beq	1440c <_nl_load_domain+0x1364>
   139d4:	e3520031 	cmp	r2, #49	; 0x31
   139d8:	0a000273 	beq	143ac <_nl_load_domain+0x1304>
   139dc:	e3520033 	cmp	r2, #51	; 0x33
   139e0:	1a000256 	bne	14340 <_nl_load_domain+0x1298>
   139e4:	e5d32009 	ldrb	r2, [r3, #9]
   139e8:	e3520032 	cmp	r2, #50	; 0x32
   139ec:	13a02000 	movne	r2, #0
   139f0:	1afffe4d 	bne	1332c <_nl_load_domain+0x284>
   139f4:	e5d3300a 	ldrb	r3, [r3, #10]
   139f8:	e3530000 	cmp	r3, #0
   139fc:	1a00024d 	bne	14338 <_nl_load_domain+0x1290>
   13a00:	e59d202c 	ldr	r2, [sp, #44]	; 0x2c
   13a04:	e3520064 	cmp	r2, #100	; 0x64
   13a08:	0a000248 	beq	14330 <_nl_load_domain+0x1288>
   13a0c:	e59d3034 	ldr	r3, [sp, #52]	; 0x34
   13a10:	e3530000 	cmp	r3, #0
   13a14:	1a000243 	bne	14328 <_nl_load_domain+0x1280>
   13a18:	e352006f 	cmp	r2, #111	; 0x6f
   13a1c:	0a00023f 	beq	14320 <_nl_load_domain+0x1278>
   13a20:	e59d3030 	ldr	r3, [sp, #48]	; 0x30
   13a24:	e3530000 	cmp	r3, #0
   13a28:	1a00023a 	bne	14318 <_nl_load_domain+0x1270>
   13a2c:	e3520078 	cmp	r2, #120	; 0x78
   13a30:	0a0001d1 	beq	1417c <_nl_load_domain+0x10d4>
   13a34:	e3520058 	cmp	r2, #88	; 0x58
   13a38:	1a0002bb 	bne	1452c <_nl_load_domain+0x1484>
   13a3c:	e59f2684 	ldr	r2, [pc, #1668]	; 140c8 <_nl_load_domain+0x1020>
   13a40:	eafffe39 	b	1332c <_nl_load_domain+0x284>
   13a44:	e359004d 	cmp	r9, #77	; 0x4d
   13a48:	1a000054 	bne	13ba0 <_nl_load_domain+0xaf8>
   13a4c:	e5d32005 	ldrb	r2, [r3, #5]
   13a50:	e3520041 	cmp	r2, #65	; 0x41
   13a54:	13a02000 	movne	r2, #0
   13a58:	1afffe33 	bne	1332c <_nl_load_domain+0x284>
   13a5c:	e5d32006 	ldrb	r2, [r3, #6]
   13a60:	e3520058 	cmp	r2, #88	; 0x58
   13a64:	13a02000 	movne	r2, #0
   13a68:	1afffe2f 	bne	1332c <_nl_load_domain+0x284>
   13a6c:	e5d33007 	ldrb	r3, [r3, #7]
   13a70:	e3530000 	cmp	r3, #0
   13a74:	1a000171 	bne	14040 <_nl_load_domain+0xf98>
   13a78:	e59d202c 	ldr	r2, [sp, #44]	; 0x2c
   13a7c:	e3520064 	cmp	r2, #100	; 0x64
   13a80:	0a00017e 	beq	14080 <_nl_load_domain+0xfd8>
   13a84:	e59d3034 	ldr	r3, [sp, #52]	; 0x34
   13a88:	e3530000 	cmp	r3, #0
   13a8c:	1a000179 	bne	14078 <_nl_load_domain+0xfd0>
   13a90:	e352006f 	cmp	r2, #111	; 0x6f
   13a94:	0a000175 	beq	14070 <_nl_load_domain+0xfc8>
   13a98:	e59d3030 	ldr	r3, [sp, #48]	; 0x30
   13a9c:	e3530000 	cmp	r3, #0
   13aa0:	1a000170 	bne	14068 <_nl_load_domain+0xfc0>
   13aa4:	e3520078 	cmp	r2, #120	; 0x78
   13aa8:	0a00017a 	beq	14098 <_nl_load_domain+0xff0>
   13aac:	e3520058 	cmp	r2, #88	; 0x58
   13ab0:	1a00029d 	bne	1452c <_nl_load_domain+0x1484>
   13ab4:	e59f2608 	ldr	r2, [pc, #1544]	; 140c4 <_nl_load_domain+0x101c>
   13ab8:	eafffe1b 	b	1332c <_nl_load_domain+0x284>
   13abc:	e5d33005 	ldrb	r3, [r3, #5]
   13ac0:	e3530000 	cmp	r3, #0
   13ac4:	1afffe18 	bne	1332c <_nl_load_domain+0x284>
   13ac8:	e59d202c 	ldr	r2, [sp, #44]	; 0x2c
   13acc:	e3520064 	cmp	r2, #100	; 0x64
   13ad0:	0a00014e 	beq	14010 <_nl_load_domain+0xf68>
   13ad4:	e59d3034 	ldr	r3, [sp, #52]	; 0x34
   13ad8:	e3530000 	cmp	r3, #0
   13adc:	1a00014f 	bne	14020 <_nl_load_domain+0xf78>
   13ae0:	e352006f 	cmp	r2, #111	; 0x6f
   13ae4:	0a000151 	beq	14030 <_nl_load_domain+0xf88>
   13ae8:	e59d3030 	ldr	r3, [sp, #48]	; 0x30
   13aec:	e3530000 	cmp	r3, #0
   13af0:	1a00014c 	bne	14028 <_nl_load_domain+0xf80>
   13af4:	e3520078 	cmp	r2, #120	; 0x78
   13af8:	0a00014e 	beq	14038 <_nl_load_domain+0xf90>
   13afc:	e3520058 	cmp	r2, #88	; 0x58
   13b00:	1a000289 	bne	1452c <_nl_load_domain+0x1484>
   13b04:	e59f25bc 	ldr	r2, [pc, #1468]	; 140c8 <_nl_load_domain+0x1020>
   13b08:	eafffe07 	b	1332c <_nl_load_domain+0x284>
   13b0c:	e5d39005 	ldrb	r9, [r3, #5]
   13b10:	e3590036 	cmp	r9, #54	; 0x36
   13b14:	1afffe04 	bne	1332c <_nl_load_domain+0x284>
   13b18:	e5d33006 	ldrb	r3, [r3, #6]
   13b1c:	e3530000 	cmp	r3, #0
   13b20:	1a000138 	bne	14008 <_nl_load_domain+0xf60>
   13b24:	e59d202c 	ldr	r2, [sp, #44]	; 0x2c
   13b28:	e3520064 	cmp	r2, #100	; 0x64
   13b2c:	0a00017c 	beq	14124 <_nl_load_domain+0x107c>
   13b30:	e59d3034 	ldr	r3, [sp, #52]	; 0x34
   13b34:	e3530000 	cmp	r3, #0
   13b38:	1a000181 	bne	14144 <_nl_load_domain+0x109c>
   13b3c:	e352006f 	cmp	r2, #111	; 0x6f
   13b40:	0a00017d 	beq	1413c <_nl_load_domain+0x1094>
   13b44:	e59d3030 	ldr	r3, [sp, #48]	; 0x30
   13b48:	e3530000 	cmp	r3, #0
   13b4c:	1a000143 	bne	14060 <_nl_load_domain+0xfb8>
   13b50:	e3520078 	cmp	r2, #120	; 0x78
   13b54:	0a00013f 	beq	14058 <_nl_load_domain+0xfb0>
   13b58:	e3520058 	cmp	r2, #88	; 0x58
   13b5c:	1a000272 	bne	1452c <_nl_load_domain+0x1484>
   13b60:	e59f2560 	ldr	r2, [pc, #1376]	; 140c8 <_nl_load_domain+0x1020>
   13b64:	eafffdf0 	b	1332c <_nl_load_domain+0x284>
   13b68:	e59d4024 	ldr	r4, [sp, #36]	; 0x24
   13b6c:	e1a05009 	mov	r5, r9
   13b70:	e3540000 	cmp	r4, #0
   13b74:	e59d801c 	ldr	r8, [sp, #28]
   13b78:	e59d9038 	ldr	r9, [sp, #56]	; 0x38
   13b7c:	e59da03c 	ldr	sl, [sp, #60]	; 0x3c
   13b80:	1a000026 	bne	13c20 <_nl_load_domain+0xb78>
   13b84:	e59d3024 	ldr	r3, [sp, #36]	; 0x24
   13b88:	e5893020 	str	r3, [r9, #32]
   13b8c:	e5893024 	str	r3, [r9, #36]	; 0x24
   13b90:	e5893028 	str	r3, [r9, #40]	; 0x28
   13b94:	e59d0020 	ldr	r0, [sp, #32]
   13b98:	eb0043c7 	bl	24abc <__free>
   13b9c:	eafffe38 	b	13484 <_nl_load_domain+0x3dc>
   13ba0:	e3590050 	cmp	r9, #80	; 0x50
   13ba4:	1a000129 	bne	14050 <_nl_load_domain+0xfa8>
   13ba8:	e5d32005 	ldrb	r2, [r3, #5]
   13bac:	e3520054 	cmp	r2, #84	; 0x54
   13bb0:	13a02000 	movne	r2, #0
   13bb4:	1afffddc 	bne	1332c <_nl_load_domain+0x284>
   13bb8:	e5d32006 	ldrb	r2, [r3, #6]
   13bbc:	e3520052 	cmp	r2, #82	; 0x52
   13bc0:	13a02000 	movne	r2, #0
   13bc4:	1afffdd8 	bne	1332c <_nl_load_domain+0x284>
   13bc8:	e5d33007 	ldrb	r3, [r3, #7]
   13bcc:	e3530000 	cmp	r3, #0
   13bd0:	1a00011c 	bne	14048 <_nl_load_domain+0xfa0>
   13bd4:	e59d202c 	ldr	r2, [sp, #44]	; 0x2c
   13bd8:	e3520064 	cmp	r2, #100	; 0x64
   13bdc:	0a00012b 	beq	14090 <_nl_load_domain+0xfe8>
   13be0:	e59d3034 	ldr	r3, [sp, #52]	; 0x34
   13be4:	e3530000 	cmp	r3, #0
   13be8:	1a000126 	bne	14088 <_nl_load_domain+0xfe0>
   13bec:	e352006f 	cmp	r2, #111	; 0x6f
   13bf0:	0a000143 	beq	14104 <_nl_load_domain+0x105c>
   13bf4:	e59d3030 	ldr	r3, [sp, #48]	; 0x30
   13bf8:	e3530000 	cmp	r3, #0
   13bfc:	1a00013e 	bne	140fc <_nl_load_domain+0x1054>
   13c00:	e3520078 	cmp	r2, #120	; 0x78
   13c04:	0a00013a 	beq	140f4 <_nl_load_domain+0x104c>
   13c08:	e3520058 	cmp	r2, #88	; 0x58
   13c0c:	1a000246 	bne	1452c <_nl_load_domain+0x1484>
   13c10:	e59f24b0 	ldr	r2, [pc, #1200]	; 140c8 <_nl_load_domain+0x1020>
   13c14:	eafffdc4 	b	1332c <_nl_load_domain+0x284>
   13c18:	e1a02009 	mov	r2, r9
   13c1c:	eafffdc2 	b	1332c <_nl_load_domain+0x284>
   13c20:	e59d202c 	ldr	r2, [sp, #44]	; 0x2c
   13c24:	e0820204 	add	r0, r2, r4, lsl #4
   13c28:	eb004205 	bl	24444 <__libc_malloc>
   13c2c:	e2502000 	subs	r2, r0, #0
   13c30:	e58d2034 	str	r2, [sp, #52]	; 0x34
   13c34:	0afffe50 	beq	1357c <_nl_load_domain+0x4d4>
   13c38:	e59d1030 	ldr	r1, [sp, #48]	; 0x30
   13c3c:	e0827204 	add	r7, r2, r4, lsl #4
   13c40:	e58d101c 	str	r1, [sp, #28]
   13c44:	e0811105 	add	r1, r1, r5, lsl #2
   13c48:	e58d1048 	str	r1, [sp, #72]	; 0x48
   13c4c:	e59d1028 	ldr	r1, [sp, #40]	; 0x28
   13c50:	e0823184 	add	r3, r2, r4, lsl #3
   13c54:	e58d1018 	str	r1, [sp, #24]
   13c58:	e59d1040 	ldr	r1, [sp, #64]	; 0x40
   13c5c:	e58d303c 	str	r3, [sp, #60]	; 0x3c
   13c60:	e0871001 	add	r1, r7, r1
   13c64:	e1a0c001 	mov	ip, r1
   13c68:	e3a03000 	mov	r3, #0
   13c6c:	e58d3030 	str	r3, [sp, #48]	; 0x30
   13c70:	e5892010 	str	r2, [r9, #16]
   13c74:	e58d9038 	str	r9, [sp, #56]	; 0x38
   13c78:	e58d704c 	str	r7, [sp, #76]	; 0x4c
   13c7c:	e58da050 	str	sl, [sp, #80]	; 0x50
   13c80:	e59d3038 	ldr	r3, [sp, #56]	; 0x38
   13c84:	e3a02000 	mov	r2, #0
   13c88:	e593400c 	ldr	r4, [r3, #12]
   13c8c:	e3540000 	cmp	r4, #0
   13c90:	0a00006a 	beq	13e40 <_nl_load_domain+0xd98>
   13c94:	e3520000 	cmp	r2, #0
   13c98:	059d301c 	ldreq	r3, [sp, #28]
   13c9c:	159d3018 	ldrne	r3, [sp, #24]
   13ca0:	e5933000 	ldr	r3, [r3]
   13ca4:	e6bf3f33 	rev	r3, r3
   13ca8:	e0883003 	add	r3, r8, r3
   13cac:	e5931008 	ldr	r1, [r3, #8]
   13cb0:	e2911001 	adds	r1, r1, #1
   13cb4:	13a01001 	movne	r1, #1
   13cb8:	e3510000 	cmp	r1, #0
   13cbc:	1a00006a 	bne	13e6c <_nl_load_domain+0xdc4>
   13cc0:	e3520001 	cmp	r2, #1
   13cc4:	1a000066 	bne	13e64 <_nl_load_domain+0xdbc>
   13cc8:	e59d3030 	ldr	r3, [sp, #48]	; 0x30
   13ccc:	e59d2034 	ldr	r2, [sp, #52]	; 0x34
   13cd0:	e1a0700c 	mov	r7, ip
   13cd4:	e1a03183 	lsl	r3, r3, #3
   13cd8:	e0822003 	add	r2, r2, r3
   13cdc:	e58d2040 	str	r2, [sp, #64]	; 0x40
   13ce0:	e59d203c 	ldr	r2, [sp, #60]	; 0x3c
   13ce4:	e0823003 	add	r3, r2, r3
   13ce8:	e58d3044 	str	r3, [sp, #68]	; 0x44
   13cec:	e3a03000 	mov	r3, #0
   13cf0:	e58d302c 	str	r3, [sp, #44]	; 0x2c
   13cf4:	e1a03004 	mov	r3, r4
   13cf8:	e3530000 	cmp	r3, #0
   13cfc:	e59d202c 	ldr	r2, [sp, #44]	; 0x2c
   13d00:	0a00001e 	beq	13d80 <_nl_load_domain+0xcd8>
   13d04:	e3520000 	cmp	r2, #0
   13d08:	059d201c 	ldreq	r2, [sp, #28]
   13d0c:	159d2018 	ldrne	r2, [sp, #24]
   13d10:	059d4040 	ldreq	r4, [sp, #64]	; 0x40
   13d14:	05922000 	ldreq	r2, [r2]
   13d18:	15922000 	ldrne	r2, [r2]
   13d1c:	159d4044 	ldrne	r4, [sp, #68]	; 0x44
   13d20:	e6bf2f32 	rev	r2, r2
   13d24:	e0885002 	add	r5, r8, r2
   13d28:	e7982002 	ldr	r2, [r8, r2]
   13d2c:	e5951008 	ldr	r1, [r5, #8]
   13d30:	e6bf2f32 	rev	r2, r2
   13d34:	e0882002 	add	r2, r8, r2
   13d38:	e58d2028 	str	r2, [sp, #40]	; 0x28
   13d3c:	e5952004 	ldr	r2, [r5, #4]
   13d40:	e3710001 	cmn	r1, #1
   13d44:	06bf2f32 	reveq	r2, r2
   13d48:	1a00001b 	bne	13dbc <_nl_load_domain+0xd14>
   13d4c:	e59d3028 	ldr	r3, [sp, #40]	; 0x28
   13d50:	e5842000 	str	r2, [r4]
   13d54:	e5843004 	str	r3, [r4, #4]
   13d58:	e59d302c 	ldr	r3, [sp, #44]	; 0x2c
   13d5c:	e3530001 	cmp	r3, #1
   13d60:	0a00009b 	beq	13fd4 <_nl_load_domain+0xf2c>
   13d64:	e59d3038 	ldr	r3, [sp, #56]	; 0x38
   13d68:	e3a02001 	mov	r2, #1
   13d6c:	e58d202c 	str	r2, [sp, #44]	; 0x2c
   13d70:	e593300c 	ldr	r3, [r3, #12]
   13d74:	e59d202c 	ldr	r2, [sp, #44]	; 0x2c
   13d78:	e3530000 	cmp	r3, #0
   13d7c:	1affffe0 	bne	13d04 <_nl_load_domain+0xc5c>
   13d80:	e3520000 	cmp	r2, #0
   13d84:	059d201c 	ldreq	r2, [sp, #28]
   13d88:	159d2018 	ldrne	r2, [sp, #24]
   13d8c:	059d4040 	ldreq	r4, [sp, #64]	; 0x40
   13d90:	05922000 	ldreq	r2, [r2]
   13d94:	15922000 	ldrne	r2, [r2]
   13d98:	159d4044 	ldrne	r4, [sp, #68]	; 0x44
   13d9c:	e0885002 	add	r5, r8, r2
   13da0:	e7982002 	ldr	r2, [r8, r2]
   13da4:	e5951008 	ldr	r1, [r5, #8]
   13da8:	e0882002 	add	r2, r8, r2
   13dac:	e3710001 	cmn	r1, #1
   13db0:	e58d2028 	str	r2, [sp, #40]	; 0x28
   13db4:	e5952004 	ldr	r2, [r5, #4]
   13db8:	0affffe3 	beq	13d4c <_nl_load_domain+0xca4>
   13dbc:	e285500c 	add	r5, r5, #12
   13dc0:	e5847004 	str	r7, [r4, #4]
   13dc4:	e58d4054 	str	r4, [sp, #84]	; 0x54
   13dc8:	e1a0a003 	mov	sl, r3
   13dcc:	ea00000c 	b	13e04 <_nl_load_domain+0xd5c>
   13dd0:	e3790001 	cmn	r9, #1
   13dd4:	e2855008 	add	r5, r5, #8
   13dd8:	0a000082 	beq	13fe8 <_nl_load_domain+0xf40>
   13ddc:	e59d3020 	ldr	r3, [sp, #32]
   13de0:	e7934109 	ldr	r4, [r3, r9, lsl #2]
   13de4:	e1a00004 	mov	r0, r4
   13de8:	eb00498c 	bl	26420 <strlen>
   13dec:	e1a01004 	mov	r1, r4
   13df0:	e1a09000 	mov	r9, r0
   13df4:	e1a02000 	mov	r2, r0
   13df8:	e1a00007 	mov	r0, r7
   13dfc:	eb004e5f 	bl	27780 <memcpy>
   13e00:	e0877009 	add	r7, r7, r9
   13e04:	e9150210 	ldmdb	r5, {r4, r9}
   13e08:	e35a0000 	cmp	sl, #0
   13e0c:	16bf4f34 	revne	r4, r4
   13e10:	16bf9f39 	revne	r9, r9
   13e14:	e3540000 	cmp	r4, #0
   13e18:	0affffec 	beq	13dd0 <_nl_load_domain+0xd28>
   13e1c:	e1a00007 	mov	r0, r7
   13e20:	e1a02004 	mov	r2, r4
   13e24:	e59d1028 	ldr	r1, [sp, #40]	; 0x28
   13e28:	eb004e54 	bl	27780 <memcpy>
   13e2c:	e59d3028 	ldr	r3, [sp, #40]	; 0x28
   13e30:	e0877004 	add	r7, r7, r4
   13e34:	e0833004 	add	r3, r3, r4
   13e38:	e58d3028 	str	r3, [sp, #40]	; 0x28
   13e3c:	eaffffe3 	b	13dd0 <_nl_load_domain+0xd28>
   13e40:	e3520000 	cmp	r2, #0
   13e44:	059d301c 	ldreq	r3, [sp, #28]
   13e48:	159d3018 	ldrne	r3, [sp, #24]
   13e4c:	e5933000 	ldr	r3, [r3]
   13e50:	e0883003 	add	r3, r8, r3
   13e54:	e5931008 	ldr	r1, [r3, #8]
   13e58:	e2911001 	adds	r1, r1, #1
   13e5c:	13a01001 	movne	r1, #1
   13e60:	eaffff94 	b	13cb8 <_nl_load_domain+0xc10>
   13e64:	e3a02001 	mov	r2, #1
   13e68:	eaffff87 	b	13c8c <_nl_load_domain+0xbe4>
   13e6c:	e2833004 	add	r3, r3, #4
   13e70:	e59d0020 	ldr	r0, [sp, #32]
   13e74:	ea000000 	b	13e7c <_nl_load_domain+0xdd4>
   13e78:	e2833008 	add	r3, r3, #8
   13e7c:	e5931004 	ldr	r1, [r3, #4]
   13e80:	e3540000 	cmp	r4, #0
   13e84:	16bf1f31 	revne	r1, r1
   13e88:	e3710001 	cmn	r1, #1
   13e8c:	0affff8b 	beq	13cc0 <_nl_load_domain+0xc18>
   13e90:	e7901101 	ldr	r1, [r0, r1, lsl #2]
   13e94:	e3510000 	cmp	r1, #0
   13e98:	1afffff6 	bne	13e78 <_nl_load_domain+0xdd0>
   13e9c:	e59d301c 	ldr	r3, [sp, #28]
   13ea0:	e59d2048 	ldr	r2, [sp, #72]	; 0x48
   13ea4:	e2833004 	add	r3, r3, #4
   13ea8:	e58d301c 	str	r3, [sp, #28]
   13eac:	e1520003 	cmp	r2, r3
   13eb0:	e59d3018 	ldr	r3, [sp, #24]
   13eb4:	e2833004 	add	r3, r3, #4
   13eb8:	e58d3018 	str	r3, [sp, #24]
   13ebc:	1affff6f 	bne	13c80 <_nl_load_domain+0xbd8>
   13ec0:	e59d3024 	ldr	r3, [sp, #36]	; 0x24
   13ec4:	e59d2030 	ldr	r2, [sp, #48]	; 0x30
   13ec8:	e59d9038 	ldr	r9, [sp, #56]	; 0x38
   13ecc:	e1530002 	cmp	r3, r2
   13ed0:	e59d704c 	ldr	r7, [sp, #76]	; 0x4c
   13ed4:	e59da050 	ldr	sl, [sp, #80]	; 0x50
   13ed8:	1a000193 	bne	1452c <_nl_load_domain+0x1484>
   13edc:	e599202c 	ldr	r2, [r9, #44]	; 0x2c
   13ee0:	e3520000 	cmp	r2, #0
   13ee4:	0a00000b 	beq	13f18 <_nl_load_domain+0xe70>
   13ee8:	e5993030 	ldr	r3, [r9, #48]	; 0x30
   13eec:	e5990034 	ldr	r0, [r9, #52]	; 0x34
   13ef0:	e0832102 	add	r2, r3, r2, lsl #2
   13ef4:	e2422004 	sub	r2, r2, #4
   13ef8:	e2433004 	sub	r3, r3, #4
   13efc:	e247c004 	sub	ip, r7, #4
   13f00:	e5b31004 	ldr	r1, [r3, #4]!
   13f04:	e3500000 	cmp	r0, #0
   13f08:	16bf1f31 	revne	r1, r1
   13f0c:	e1520003 	cmp	r2, r3
   13f10:	e5ac1004 	str	r1, [ip, #4]!
   13f14:	1afffff9 	bne	13f00 <_nl_load_domain+0xe58>
   13f18:	e3a03000 	mov	r3, #0
   13f1c:	e59d2034 	ldr	r2, [sp, #52]	; 0x34
   13f20:	e58d801c 	str	r8, [sp, #28]
   13f24:	e1a08003 	mov	r8, r3
   13f28:	e2822004 	add	r2, r2, #4
   13f2c:	e58d2018 	str	r2, [sp, #24]
   13f30:	e58da028 	str	sl, [sp, #40]	; 0x28
   13f34:	e59d3018 	ldr	r3, [sp, #24]
   13f38:	e7930188 	ldr	r0, [r3, r8, lsl #3]
   13f3c:	eb0007d9 	bl	15ea8 <__hash_string>
   13f40:	e599502c 	ldr	r5, [r9, #44]	; 0x2c
   13f44:	e1a01005 	mov	r1, r5
   13f48:	e1a0a000 	mov	sl, r0
   13f4c:	eb015758 	bl	69cb4 <__aeabi_uidivmod>
   13f50:	e1a0000a 	mov	r0, sl
   13f54:	e1a04001 	mov	r4, r1
   13f58:	e2451002 	sub	r1, r5, #2
   13f5c:	eb015754 	bl	69cb4 <__aeabi_uidivmod>
   13f60:	e2811001 	add	r1, r1, #1
   13f64:	e045c001 	sub	ip, r5, r1
   13f68:	e0415005 	sub	r5, r1, r5
   13f6c:	ea000002 	b	13f7c <_nl_load_domain+0xed4>
   13f70:	e15c0004 	cmp	ip, r4
   13f74:	90844005 	addls	r4, r4, r5
   13f78:	80844001 	addhi	r4, r4, r1
   13f7c:	e7973104 	ldr	r3, [r7, r4, lsl #2]
   13f80:	e0870104 	add	r0, r7, r4, lsl #2
   13f84:	e3530000 	cmp	r3, #0
   13f88:	1afffff8 	bne	13f70 <_nl_load_domain+0xec8>
   13f8c:	e5991014 	ldr	r1, [r9, #20]
   13f90:	e59d2024 	ldr	r2, [sp, #36]	; 0x24
   13f94:	e2811001 	add	r1, r1, #1
   13f98:	e0811008 	add	r1, r1, r8
   13f9c:	e2888001 	add	r8, r8, #1
   13fa0:	e1520008 	cmp	r2, r8
   13fa4:	e5801000 	str	r1, [r0]
   13fa8:	1affffe1 	bne	13f34 <_nl_load_domain+0xe8c>
   13fac:	e5892020 	str	r2, [r9, #32]
   13fb0:	e59d2034 	ldr	r2, [sp, #52]	; 0x34
   13fb4:	e59d801c 	ldr	r8, [sp, #28]
   13fb8:	e5892024 	str	r2, [r9, #36]	; 0x24
   13fbc:	e59d203c 	ldr	r2, [sp, #60]	; 0x3c
   13fc0:	e59da028 	ldr	sl, [sp, #40]	; 0x28
   13fc4:	e5892028 	str	r2, [r9, #40]	; 0x28
   13fc8:	e5897030 	str	r7, [r9, #48]	; 0x30
   13fcc:	e5893034 	str	r3, [r9, #52]	; 0x34
   13fd0:	eafffeef 	b	13b94 <_nl_load_domain+0xaec>
   13fd4:	e59d3030 	ldr	r3, [sp, #48]	; 0x30
   13fd8:	e1a0c007 	mov	ip, r7
   13fdc:	e2833001 	add	r3, r3, #1
   13fe0:	e58d3030 	str	r3, [sp, #48]	; 0x30
   13fe4:	eaffffac 	b	13e9c <_nl_load_domain+0xdf4>
   13fe8:	e59d4054 	ldr	r4, [sp, #84]	; 0x54
   13fec:	e5943004 	ldr	r3, [r4, #4]
   13ff0:	e0473003 	sub	r3, r7, r3
   13ff4:	e5843000 	str	r3, [r4]
   13ff8:	eaffff56 	b	13d58 <_nl_load_domain+0xcb0>
   13ffc:	eb005cc7 	bl	2b320 <__stack_chk_fail>
   14000:	e3a02000 	mov	r2, #0
   14004:	eafffcc8 	b	1332c <_nl_load_domain+0x284>
   14008:	e3a02000 	mov	r2, #0
   1400c:	eafffcc6 	b	1332c <_nl_load_domain+0x284>
   14010:	e59f20d8 	ldr	r2, [pc, #216]	; 140f0 <_nl_load_domain+0x1048>
   14014:	eafffcc4 	b	1332c <_nl_load_domain+0x284>
   14018:	e3a02000 	mov	r2, #0
   1401c:	eafffcc2 	b	1332c <_nl_load_domain+0x284>
   14020:	e59f20c4 	ldr	r2, [pc, #196]	; 140ec <_nl_load_domain+0x1044>
   14024:	eafffcc0 	b	1332c <_nl_load_domain+0x284>
   14028:	e59f20b4 	ldr	r2, [pc, #180]	; 140e4 <_nl_load_domain+0x103c>
   1402c:	eafffcbe 	b	1332c <_nl_load_domain+0x284>
   14030:	e59f20b0 	ldr	r2, [pc, #176]	; 140e8 <_nl_load_domain+0x1040>
   14034:	eafffcbc 	b	1332c <_nl_load_domain+0x284>
   14038:	e59f20a0 	ldr	r2, [pc, #160]	; 140e0 <_nl_load_domain+0x1038>
   1403c:	eafffcba 	b	1332c <_nl_load_domain+0x284>
   14040:	e3a02000 	mov	r2, #0
   14044:	eafffcb8 	b	1332c <_nl_load_domain+0x284>
   14048:	e3a02000 	mov	r2, #0
   1404c:	eafffcb6 	b	1332c <_nl_load_domain+0x284>
   14050:	e3a02000 	mov	r2, #0
   14054:	eafffcb4 	b	1332c <_nl_load_domain+0x284>
   14058:	e59f2080 	ldr	r2, [pc, #128]	; 140e0 <_nl_load_domain+0x1038>
   1405c:	eafffcb2 	b	1332c <_nl_load_domain+0x284>
   14060:	e59f207c 	ldr	r2, [pc, #124]	; 140e4 <_nl_load_domain+0x103c>
   14064:	eafffcb0 	b	1332c <_nl_load_domain+0x284>
   14068:	e59f206c 	ldr	r2, [pc, #108]	; 140dc <_nl_load_domain+0x1034>
   1406c:	eafffcae 	b	1332c <_nl_load_domain+0x284>
   14070:	e59f2054 	ldr	r2, [pc, #84]	; 140cc <_nl_load_domain+0x1024>
   14074:	eafffcac 	b	1332c <_nl_load_domain+0x284>
   14078:	e59f2050 	ldr	r2, [pc, #80]	; 140d0 <_nl_load_domain+0x1028>
   1407c:	eafffcaa 	b	1332c <_nl_load_domain+0x284>
   14080:	e59f204c 	ldr	r2, [pc, #76]	; 140d4 <_nl_load_domain+0x102c>
   14084:	eafffca8 	b	1332c <_nl_load_domain+0x284>
   14088:	e59f205c 	ldr	r2, [pc, #92]	; 140ec <_nl_load_domain+0x1044>
   1408c:	eafffca6 	b	1332c <_nl_load_domain+0x284>
   14090:	e59f2058 	ldr	r2, [pc, #88]	; 140f0 <_nl_load_domain+0x1048>
   14094:	eafffca4 	b	1332c <_nl_load_domain+0x284>
   14098:	e59f2038 	ldr	r2, [pc, #56]	; 140d8 <_nl_load_domain+0x1030>
   1409c:	eafffca2 	b	1332c <_nl_load_domain+0x284>
   140a0:	000835fc 	.word	0x000835fc
   140a4:	00082000 	.word	0x00082000
   140a8:	950412de 	.word	0x950412de
   140ac:	de120495 	.word	0xde120495
   140b0:	0006cc1c 	.word	0x0006cc1c
   140b4:	00000000 	.word	0x00000000
   140b8:	00080e24 	.word	0x00080e24
   140bc:	0006ef8c 	.word	0x0006ef8c
   140c0:	00000000 	.word	0x00000000
   140c4:	0006cc14 	.word	0x0006cc14
   140c8:	0007c4a4 	.word	0x0007c4a4
   140cc:	0006cc0c 	.word	0x0006cc0c
   140d0:	0006cc00 	.word	0x0006cc00
   140d4:	0006cc10 	.word	0x0006cc10
   140d8:	0006cc18 	.word	0x0006cc18
   140dc:	0006cc08 	.word	0x0006cc08
   140e0:	0006e6f8 	.word	0x0006e6f8
   140e4:	0006cc04 	.word	0x0006cc04
   140e8:	0006e520 	.word	0x0006e520
   140ec:	0007df20 	.word	0x0007df20
   140f0:	00080534 	.word	0x00080534
   140f4:	e51f201c 	ldr	r2, [pc, #-28]	; 140e0 <_nl_load_domain+0x1038>
   140f8:	eafffc8b 	b	1332c <_nl_load_domain+0x284>
   140fc:	e51f2020 	ldr	r2, [pc, #-32]	; 140e4 <_nl_load_domain+0x103c>
   14100:	eafffc89 	b	1332c <_nl_load_domain+0x284>
   14104:	e51f2024 	ldr	r2, [pc, #-36]	; 140e8 <_nl_load_domain+0x1040>
   14108:	eafffc87 	b	1332c <_nl_load_domain+0x284>
   1410c:	e51f202c 	ldr	r2, [pc, #-44]	; 140e8 <_nl_load_domain+0x1040>
   14110:	eafffc85 	b	1332c <_nl_load_domain+0x284>
   14114:	e51f2030 	ldr	r2, [pc, #-48]	; 140ec <_nl_load_domain+0x1044>
   14118:	eafffc83 	b	1332c <_nl_load_domain+0x284>
   1411c:	e51f2034 	ldr	r2, [pc, #-52]	; 140f0 <_nl_load_domain+0x1048>
   14120:	eafffc81 	b	1332c <_nl_load_domain+0x284>
   14124:	e51f203c 	ldr	r2, [pc, #-60]	; 140f0 <_nl_load_domain+0x1048>
   14128:	eafffc7f 	b	1332c <_nl_load_domain+0x284>
   1412c:	e51f2054 	ldr	r2, [pc, #-84]	; 140e0 <_nl_load_domain+0x1038>
   14130:	eafffc7d 	b	1332c <_nl_load_domain+0x284>
   14134:	e51f2058 	ldr	r2, [pc, #-88]	; 140e4 <_nl_load_domain+0x103c>
   14138:	eafffc7b 	b	1332c <_nl_load_domain+0x284>
   1413c:	e51f205c 	ldr	r2, [pc, #-92]	; 140e8 <_nl_load_domain+0x1040>
   14140:	eafffc79 	b	1332c <_nl_load_domain+0x284>
   14144:	e51f2060 	ldr	r2, [pc, #-96]	; 140ec <_nl_load_domain+0x1044>
   14148:	eafffc77 	b	1332c <_nl_load_domain+0x284>
   1414c:	e51f2080 	ldr	r2, [pc, #-128]	; 140d4 <_nl_load_domain+0x102c>
   14150:	eafffc75 	b	1332c <_nl_load_domain+0x284>
   14154:	e51f2090 	ldr	r2, [pc, #-144]	; 140cc <_nl_load_domain+0x1024>
   14158:	eafffc73 	b	1332c <_nl_load_domain+0x284>
   1415c:	e51f2094 	ldr	r2, [pc, #-148]	; 140d0 <_nl_load_domain+0x1028>
   14160:	eafffc71 	b	1332c <_nl_load_domain+0x284>
   14164:	e51f2094 	ldr	r2, [pc, #-148]	; 140d8 <_nl_load_domain+0x1030>
   14168:	eafffc6f 	b	1332c <_nl_load_domain+0x284>
   1416c:	e51f2098 	ldr	r2, [pc, #-152]	; 140dc <_nl_load_domain+0x1034>
   14170:	eafffc6d 	b	1332c <_nl_load_domain+0x284>
   14174:	e51f209c 	ldr	r2, [pc, #-156]	; 140e0 <_nl_load_domain+0x1038>
   14178:	eafffc6b 	b	1332c <_nl_load_domain+0x284>
   1417c:	e51f20a4 	ldr	r2, [pc, #-164]	; 140e0 <_nl_load_domain+0x1038>
   14180:	eafffc69 	b	1332c <_nl_load_domain+0x284>
   14184:	e51f20a8 	ldr	r2, [pc, #-168]	; 140e4 <_nl_load_domain+0x103c>
   14188:	eafffc67 	b	1332c <_nl_load_domain+0x284>
   1418c:	e51f20ac 	ldr	r2, [pc, #-172]	; 140e8 <_nl_load_domain+0x1040>
   14190:	eafffc65 	b	1332c <_nl_load_domain+0x284>
   14194:	e51f20b0 	ldr	r2, [pc, #-176]	; 140ec <_nl_load_domain+0x1044>
   14198:	eafffc63 	b	1332c <_nl_load_domain+0x284>
   1419c:	e51f20b4 	ldr	r2, [pc, #-180]	; 140f0 <_nl_load_domain+0x1048>
   141a0:	eafffc61 	b	1332c <_nl_load_domain+0x284>
   141a4:	e3a02000 	mov	r2, #0
   141a8:	eafffc5f 	b	1332c <_nl_load_domain+0x284>
   141ac:	e3520036 	cmp	r2, #54	; 0x36
   141b0:	13a02000 	movne	r2, #0
   141b4:	1afffc5c 	bne	1332c <_nl_load_domain+0x284>
   141b8:	e5d3200a 	ldrb	r2, [r3, #10]
   141bc:	e3520034 	cmp	r2, #52	; 0x34
   141c0:	13a02000 	movne	r2, #0
   141c4:	1afffc58 	bne	1332c <_nl_load_domain+0x284>
   141c8:	e5d3300b 	ldrb	r3, [r3, #11]
   141cc:	e3530000 	cmp	r3, #0
   141d0:	1a000042 	bne	142e0 <_nl_load_domain+0x1238>
   141d4:	e59d202c 	ldr	r2, [sp, #44]	; 0x2c
   141d8:	e3520064 	cmp	r2, #100	; 0x64
   141dc:	0a00003d 	beq	142d8 <_nl_load_domain+0x1230>
   141e0:	e59d3034 	ldr	r3, [sp, #52]	; 0x34
   141e4:	e3530000 	cmp	r3, #0
   141e8:	1a000038 	bne	142d0 <_nl_load_domain+0x1228>
   141ec:	e352006f 	cmp	r2, #111	; 0x6f
   141f0:	0a000034 	beq	142c8 <_nl_load_domain+0x1220>
   141f4:	e59d3030 	ldr	r3, [sp, #48]	; 0x30
   141f8:	e3530000 	cmp	r3, #0
   141fc:	1a0000ac 	bne	144b4 <_nl_load_domain+0x140c>
   14200:	e3520078 	cmp	r2, #120	; 0x78
   14204:	0a0000a8 	beq	144ac <_nl_load_domain+0x1404>
   14208:	e3520058 	cmp	r2, #88	; 0x58
   1420c:	1a0000c6 	bne	1452c <_nl_load_domain+0x1484>
   14210:	e51f2154 	ldr	r2, [pc, #-340]	; 140c4 <_nl_load_domain+0x101c>
   14214:	eafffc44 	b	1332c <_nl_load_domain+0x284>
   14218:	e5d3200a 	ldrb	r2, [r3, #10]
   1421c:	e3520036 	cmp	r2, #54	; 0x36
   14220:	13a02000 	movne	r2, #0
   14224:	1afffc40 	bne	1332c <_nl_load_domain+0x284>
   14228:	e5d3300b 	ldrb	r3, [r3, #11]
   1422c:	e3530000 	cmp	r3, #0
   14230:	1a0000ab 	bne	144e4 <_nl_load_domain+0x143c>
   14234:	e59d202c 	ldr	r2, [sp, #44]	; 0x2c
   14238:	e3520064 	cmp	r2, #100	; 0x64
   1423c:	0a0000a6 	beq	144dc <_nl_load_domain+0x1434>
   14240:	e59d3034 	ldr	r3, [sp, #52]	; 0x34
   14244:	e3530000 	cmp	r3, #0
   14248:	1a0000a1 	bne	144d4 <_nl_load_domain+0x142c>
   1424c:	e352006f 	cmp	r2, #111	; 0x6f
   14250:	0a00009d 	beq	144cc <_nl_load_domain+0x1424>
   14254:	e59d3030 	ldr	r3, [sp, #48]	; 0x30
   14258:	e3530000 	cmp	r3, #0
   1425c:	1a000098 	bne	144c4 <_nl_load_domain+0x141c>
   14260:	e3520078 	cmp	r2, #120	; 0x78
   14264:	0a000094 	beq	144bc <_nl_load_domain+0x1414>
   14268:	e3520058 	cmp	r2, #88	; 0x58
   1426c:	1a0000ae 	bne	1452c <_nl_load_domain+0x1484>
   14270:	e51f21b0 	ldr	r2, [pc, #-432]	; 140c8 <_nl_load_domain+0x1020>
   14274:	eafffc2c 	b	1332c <_nl_load_domain+0x284>
   14278:	e5d3300a 	ldrb	r3, [r3, #10]
   1427c:	e3530000 	cmp	r3, #0
   14280:	1a000022 	bne	14310 <_nl_load_domain+0x1268>
   14284:	e59d202c 	ldr	r2, [sp, #44]	; 0x2c
   14288:	e3520064 	cmp	r2, #100	; 0x64
   1428c:	0a00001d 	beq	14308 <_nl_load_domain+0x1260>
   14290:	e59d3034 	ldr	r3, [sp, #52]	; 0x34
   14294:	e3530000 	cmp	r3, #0
   14298:	1a000018 	bne	14300 <_nl_load_domain+0x1258>
   1429c:	e352006f 	cmp	r2, #111	; 0x6f
   142a0:	0a000014 	beq	142f8 <_nl_load_domain+0x1250>
   142a4:	e59d3030 	ldr	r3, [sp, #48]	; 0x30
   142a8:	e3530000 	cmp	r3, #0
   142ac:	1a00000f 	bne	142f0 <_nl_load_domain+0x1248>
   142b0:	e3520078 	cmp	r2, #120	; 0x78
   142b4:	0a00000b 	beq	142e8 <_nl_load_domain+0x1240>
   142b8:	e3520058 	cmp	r2, #88	; 0x58
   142bc:	1a00009a 	bne	1452c <_nl_load_domain+0x1484>
   142c0:	e51f2200 	ldr	r2, [pc, #-512]	; 140c8 <_nl_load_domain+0x1020>
   142c4:	eafffc18 	b	1332c <_nl_load_domain+0x284>
   142c8:	e51f2204 	ldr	r2, [pc, #-516]	; 140cc <_nl_load_domain+0x1024>
   142cc:	eafffc16 	b	1332c <_nl_load_domain+0x284>
   142d0:	e51f2208 	ldr	r2, [pc, #-520]	; 140d0 <_nl_load_domain+0x1028>
   142d4:	eafffc14 	b	1332c <_nl_load_domain+0x284>
   142d8:	e51f220c 	ldr	r2, [pc, #-524]	; 140d4 <_nl_load_domain+0x102c>
   142dc:	eafffc12 	b	1332c <_nl_load_domain+0x284>
   142e0:	e3a02000 	mov	r2, #0
   142e4:	eafffc10 	b	1332c <_nl_load_domain+0x284>
   142e8:	e51f2210 	ldr	r2, [pc, #-528]	; 140e0 <_nl_load_domain+0x1038>
   142ec:	eafffc0e 	b	1332c <_nl_load_domain+0x284>
   142f0:	e51f2214 	ldr	r2, [pc, #-532]	; 140e4 <_nl_load_domain+0x103c>
   142f4:	eafffc0c 	b	1332c <_nl_load_domain+0x284>
   142f8:	e51f2218 	ldr	r2, [pc, #-536]	; 140e8 <_nl_load_domain+0x1040>
   142fc:	eafffc0a 	b	1332c <_nl_load_domain+0x284>
   14300:	e51f221c 	ldr	r2, [pc, #-540]	; 140ec <_nl_load_domain+0x1044>
   14304:	eafffc08 	b	1332c <_nl_load_domain+0x284>
   14308:	e51f2220 	ldr	r2, [pc, #-544]	; 140f0 <_nl_load_domain+0x1048>
   1430c:	eafffc06 	b	1332c <_nl_load_domain+0x284>
   14310:	e3a02000 	mov	r2, #0
   14314:	eafffc04 	b	1332c <_nl_load_domain+0x284>
   14318:	e51f223c 	ldr	r2, [pc, #-572]	; 140e4 <_nl_load_domain+0x103c>
   1431c:	eafffc02 	b	1332c <_nl_load_domain+0x284>
   14320:	e51f2240 	ldr	r2, [pc, #-576]	; 140e8 <_nl_load_domain+0x1040>
   14324:	eafffc00 	b	1332c <_nl_load_domain+0x284>
   14328:	e51f2244 	ldr	r2, [pc, #-580]	; 140ec <_nl_load_domain+0x1044>
   1432c:	eafffbfe 	b	1332c <_nl_load_domain+0x284>
   14330:	e51f2248 	ldr	r2, [pc, #-584]	; 140f0 <_nl_load_domain+0x1048>
   14334:	eafffbfc 	b	1332c <_nl_load_domain+0x284>
   14338:	e3a02000 	mov	r2, #0
   1433c:	eafffbfa 	b	1332c <_nl_load_domain+0x284>
   14340:	e3520036 	cmp	r2, #54	; 0x36
   14344:	13a02000 	movne	r2, #0
   14348:	1afffbf7 	bne	1332c <_nl_load_domain+0x284>
   1434c:	e5d32009 	ldrb	r2, [r3, #9]
   14350:	e3520034 	cmp	r2, #52	; 0x34
   14354:	13a02000 	movne	r2, #0
   14358:	1afffbf3 	bne	1332c <_nl_load_domain+0x284>
   1435c:	e5d3300a 	ldrb	r3, [r3, #10]
   14360:	e3530000 	cmp	r3, #0
   14364:	1a000042 	bne	14474 <_nl_load_domain+0x13cc>
   14368:	e59d202c 	ldr	r2, [sp, #44]	; 0x2c
   1436c:	e3520064 	cmp	r2, #100	; 0x64
   14370:	0a00003d 	beq	1446c <_nl_load_domain+0x13c4>
   14374:	e59d3034 	ldr	r3, [sp, #52]	; 0x34
   14378:	e3530000 	cmp	r3, #0
   1437c:	1a000038 	bne	14464 <_nl_load_domain+0x13bc>
   14380:	e352006f 	cmp	r2, #111	; 0x6f
   14384:	0a000034 	beq	1445c <_nl_load_domain+0x13b4>
   14388:	e59d3030 	ldr	r3, [sp, #48]	; 0x30
   1438c:	e3530000 	cmp	r3, #0
   14390:	1a000057 	bne	144f4 <_nl_load_domain+0x144c>
   14394:	e3520078 	cmp	r2, #120	; 0x78
   14398:	0a000053 	beq	144ec <_nl_load_domain+0x1444>
   1439c:	e3520058 	cmp	r2, #88	; 0x58
   143a0:	1a000061 	bne	1452c <_nl_load_domain+0x1484>
   143a4:	e51f22e8 	ldr	r2, [pc, #-744]	; 140c4 <_nl_load_domain+0x101c>
   143a8:	eafffbdf 	b	1332c <_nl_load_domain+0x284>
   143ac:	e5d32009 	ldrb	r2, [r3, #9]
   143b0:	e3520036 	cmp	r2, #54	; 0x36
   143b4:	13a02000 	movne	r2, #0
   143b8:	1afffbdb 	bne	1332c <_nl_load_domain+0x284>
   143bc:	e5d3300a 	ldrb	r3, [r3, #10]
   143c0:	e3530000 	cmp	r3, #0
   143c4:	1a000056 	bne	14524 <_nl_load_domain+0x147c>
   143c8:	e59d202c 	ldr	r2, [sp, #44]	; 0x2c
   143cc:	e3520064 	cmp	r2, #100	; 0x64
   143d0:	0a000051 	beq	1451c <_nl_load_domain+0x1474>
   143d4:	e59d3034 	ldr	r3, [sp, #52]	; 0x34
   143d8:	e3530000 	cmp	r3, #0
   143dc:	1a00004c 	bne	14514 <_nl_load_domain+0x146c>
   143e0:	e352006f 	cmp	r2, #111	; 0x6f
   143e4:	0a000048 	beq	1450c <_nl_load_domain+0x1464>
   143e8:	e59d3030 	ldr	r3, [sp, #48]	; 0x30
   143ec:	e3530000 	cmp	r3, #0
   143f0:	1a000043 	bne	14504 <_nl_load_domain+0x145c>
   143f4:	e3520078 	cmp	r2, #120	; 0x78
   143f8:	0a00003f 	beq	144fc <_nl_load_domain+0x1454>
   143fc:	e3520058 	cmp	r2, #88	; 0x58
   14400:	1a000049 	bne	1452c <_nl_load_domain+0x1484>
   14404:	e51f2344 	ldr	r2, [pc, #-836]	; 140c8 <_nl_load_domain+0x1020>
   14408:	eafffbc7 	b	1332c <_nl_load_domain+0x284>
   1440c:	e5d33009 	ldrb	r3, [r3, #9]
   14410:	e3530000 	cmp	r3, #0
   14414:	1a000022 	bne	144a4 <_nl_load_domain+0x13fc>
   14418:	e59d202c 	ldr	r2, [sp, #44]	; 0x2c
   1441c:	e3520064 	cmp	r2, #100	; 0x64
   14420:	0a00001d 	beq	1449c <_nl_load_domain+0x13f4>
   14424:	e59d3034 	ldr	r3, [sp, #52]	; 0x34
   14428:	e3530000 	cmp	r3, #0
   1442c:	1a000018 	bne	14494 <_nl_load_domain+0x13ec>
   14430:	e352006f 	cmp	r2, #111	; 0x6f
   14434:	0a000014 	beq	1448c <_nl_load_domain+0x13e4>
   14438:	e59d3030 	ldr	r3, [sp, #48]	; 0x30
   1443c:	e3530000 	cmp	r3, #0
   14440:	1a00000f 	bne	14484 <_nl_load_domain+0x13dc>
   14444:	e3520078 	cmp	r2, #120	; 0x78
   14448:	0a00000b 	beq	1447c <_nl_load_domain+0x13d4>
   1444c:	e3520058 	cmp	r2, #88	; 0x58
   14450:	1a000035 	bne	1452c <_nl_load_domain+0x1484>
   14454:	e51f2394 	ldr	r2, [pc, #-916]	; 140c8 <_nl_load_domain+0x1020>
   14458:	eafffbb3 	b	1332c <_nl_load_domain+0x284>
   1445c:	e51f2398 	ldr	r2, [pc, #-920]	; 140cc <_nl_load_domain+0x1024>
   14460:	eafffbb1 	b	1332c <_nl_load_domain+0x284>
   14464:	e51f239c 	ldr	r2, [pc, #-924]	; 140d0 <_nl_load_domain+0x1028>
   14468:	eafffbaf 	b	1332c <_nl_load_domain+0x284>
   1446c:	e51f23a0 	ldr	r2, [pc, #-928]	; 140d4 <_nl_load_domain+0x102c>
   14470:	eafffbad 	b	1332c <_nl_load_domain+0x284>
   14474:	e3a02000 	mov	r2, #0
   14478:	eafffbab 	b	1332c <_nl_load_domain+0x284>
   1447c:	e51f23a4 	ldr	r2, [pc, #-932]	; 140e0 <_nl_load_domain+0x1038>
   14480:	eafffba9 	b	1332c <_nl_load_domain+0x284>
   14484:	e51f23a8 	ldr	r2, [pc, #-936]	; 140e4 <_nl_load_domain+0x103c>
   14488:	eafffba7 	b	1332c <_nl_load_domain+0x284>
   1448c:	e51f23ac 	ldr	r2, [pc, #-940]	; 140e8 <_nl_load_domain+0x1040>
   14490:	eafffba5 	b	1332c <_nl_load_domain+0x284>
   14494:	e51f23b0 	ldr	r2, [pc, #-944]	; 140ec <_nl_load_domain+0x1044>
   14498:	eafffba3 	b	1332c <_nl_load_domain+0x284>
   1449c:	e51f23b4 	ldr	r2, [pc, #-948]	; 140f0 <_nl_load_domain+0x1048>
   144a0:	eafffba1 	b	1332c <_nl_load_domain+0x284>
   144a4:	e3a02000 	mov	r2, #0
   144a8:	eafffb9f 	b	1332c <_nl_load_domain+0x284>
   144ac:	e51f23dc 	ldr	r2, [pc, #-988]	; 140d8 <_nl_load_domain+0x1030>
   144b0:	eafffb9d 	b	1332c <_nl_load_domain+0x284>
   144b4:	e51f23e0 	ldr	r2, [pc, #-992]	; 140dc <_nl_load_domain+0x1034>
   144b8:	eafffb9b 	b	1332c <_nl_load_domain+0x284>
   144bc:	e51f23e4 	ldr	r2, [pc, #-996]	; 140e0 <_nl_load_domain+0x1038>
   144c0:	eafffb99 	b	1332c <_nl_load_domain+0x284>
   144c4:	e51f23e8 	ldr	r2, [pc, #-1000]	; 140e4 <_nl_load_domain+0x103c>
   144c8:	eafffb97 	b	1332c <_nl_load_domain+0x284>
   144cc:	e51f23ec 	ldr	r2, [pc, #-1004]	; 140e8 <_nl_load_domain+0x1040>
   144d0:	eafffb95 	b	1332c <_nl_load_domain+0x284>
   144d4:	e51f23f0 	ldr	r2, [pc, #-1008]	; 140ec <_nl_load_domain+0x1044>
   144d8:	eafffb93 	b	1332c <_nl_load_domain+0x284>
   144dc:	e51f23f4 	ldr	r2, [pc, #-1012]	; 140f0 <_nl_load_domain+0x1048>
   144e0:	eafffb91 	b	1332c <_nl_load_domain+0x284>
   144e4:	e3a02000 	mov	r2, #0
   144e8:	eafffb8f 	b	1332c <_nl_load_domain+0x284>
   144ec:	e51f241c 	ldr	r2, [pc, #-1052]	; 140d8 <_nl_load_domain+0x1030>
   144f0:	eafffb8d 	b	1332c <_nl_load_domain+0x284>
   144f4:	e51f2420 	ldr	r2, [pc, #-1056]	; 140dc <_nl_load_domain+0x1034>
   144f8:	eafffb8b 	b	1332c <_nl_load_domain+0x284>
   144fc:	e51f2424 	ldr	r2, [pc, #-1060]	; 140e0 <_nl_load_domain+0x1038>
   14500:	eafffb89 	b	1332c <_nl_load_domain+0x284>
   14504:	e51f2428 	ldr	r2, [pc, #-1064]	; 140e4 <_nl_load_domain+0x103c>
   14508:	eafffb87 	b	1332c <_nl_load_domain+0x284>
   1450c:	e51f242c 	ldr	r2, [pc, #-1068]	; 140e8 <_nl_load_domain+0x1040>
   14510:	eafffb85 	b	1332c <_nl_load_domain+0x284>
   14514:	e51f2430 	ldr	r2, [pc, #-1072]	; 140ec <_nl_load_domain+0x1044>
   14518:	eafffb83 	b	1332c <_nl_load_domain+0x284>
   1451c:	e51f2434 	ldr	r2, [pc, #-1076]	; 140f0 <_nl_load_domain+0x1048>
   14520:	eafffb81 	b	1332c <_nl_load_domain+0x284>
   14524:	e3a02000 	mov	r2, #0
   14528:	eafffb7f 	b	1332c <_nl_load_domain+0x284>
   1452c:	ebffeeff 	bl	10130 <abort>

00014530 <alias_compare>:
   14530:	e5911000 	ldr	r1, [r1]
   14534:	e5900000 	ldr	r0, [r0]
   14538:	e59f2000 	ldr	r2, [pc]	; 14540 <alias_compare+0x10>
   1453c:	ea004c7f 	b	27740 <__strcasecmp_l>
   14540:	0007bc54 	.word	0x0007bc54

00014544 <read_alias_file>:
   14544:	e2813015 	add	r3, r1, #21
   14548:	e92d4ff0 	push	{r4, r5, r6, r7, r8, r9, sl, fp, lr}
   1454c:	e3c33007 	bic	r3, r3, #7
   14550:	e28db020 	add	fp, sp, #32
   14554:	e24ddf6f 	sub	sp, sp, #444	; 0x1bc
   14558:	e04dd003 	sub	sp, sp, r3
   1455c:	e59f3414 	ldr	r3, [pc, #1044]	; 14978 <read_alias_file+0x434>
   14560:	e1a0400d 	mov	r4, sp
   14564:	e1a02001 	mov	r2, r1
   14568:	e5933000 	ldr	r3, [r3]
   1456c:	e1a01000 	mov	r1, r0
   14570:	e1a00004 	mov	r0, r4
   14574:	e50b3028 	str	r3, [fp, #-40]	; 0xffffffd8
   14578:	eb004c6b 	bl	2772c <__mempcpy>
   1457c:	e59f33f8 	ldr	r3, [pc, #1016]	; 1497c <read_alias_file+0x438>
   14580:	e1a0c000 	mov	ip, r0
   14584:	e8b30007 	ldm	r3!, {r0, r1, r2}
   14588:	e1d330b0 	ldrh	r3, [r3]
   1458c:	e58c0000 	str	r0, [ip]
   14590:	e58c1004 	str	r1, [ip, #4]
   14594:	e1a00004 	mov	r0, r4
   14598:	e1cc30bc 	strh	r3, [ip, #12]
   1459c:	e58c2008 	str	r2, [ip, #8]
   145a0:	e59f13d8 	ldr	r1, [pc, #984]	; 14980 <read_alias_file+0x43c>
   145a4:	eb001094 	bl	187fc <_IO_new_fopen>
   145a8:	e2509000 	subs	r9, r0, #0
   145ac:	050b91c0 	streq	r9, [fp, #-448]	; 0xfffffe40
   145b0:	0a000033 	beq	14684 <read_alias_file+0x140>
   145b4:	e5993000 	ldr	r3, [r9]
   145b8:	e3832902 	orr	r2, r3, #32768	; 0x8000
   145bc:	e2133010 	ands	r3, r3, #16
   145c0:	e5892000 	str	r2, [r9]
   145c4:	059fa3b8 	ldreq	sl, [pc, #952]	; 14984 <read_alias_file+0x440>
   145c8:	050b31c0 	streq	r3, [fp, #-448]	; 0xfffffe40
   145cc:	1a0000e4 	bne	14964 <read_alias_file+0x420>
   145d0:	e1a02009 	mov	r2, r9
   145d4:	e3a01e19 	mov	r1, #400	; 0x190
   145d8:	e24b0f6e 	sub	r0, fp, #440	; 0x1b8
   145dc:	eb0018db 	bl	1a950 <__fgets_unlocked>
   145e0:	e3500000 	cmp	r0, #0
   145e4:	0a00001a 	beq	14654 <read_alias_file+0x110>
   145e8:	e3a0100a 	mov	r1, #10
   145ec:	e24b0f6e 	sub	r0, fp, #440	; 0x1b8
   145f0:	eb0045ea 	bl	25da0 <strchr>
   145f4:	e59f238c 	ldr	r2, [pc, #908]	; 14988 <read_alias_file+0x444>
   145f8:	e55b31b8 	ldrb	r3, [fp, #-440]	; 0xfffffe48
   145fc:	e24b4f6e 	sub	r4, fp, #440	; 0x1b8
   14600:	e79f2002 	ldr	r2, [pc, r2]
   14604:	e1a06000 	mov	r6, r0
   14608:	ebfff470 	bl	117d0 <__aeabi_read_tp>
   1460c:	e7901002 	ldr	r1, [r0, r2]
   14610:	e1a0c083 	lsl	ip, r3, #1
   14614:	e19120bc 	ldrh	r2, [r1, ip]
   14618:	e3120a02 	tst	r2, #8192	; 0x2000
   1461c:	0a000004 	beq	14634 <read_alias_file+0xf0>
   14620:	e5f43001 	ldrb	r3, [r4, #1]!
   14624:	e1a02083 	lsl	r2, r3, #1
   14628:	e19120b2 	ldrh	r2, [r1, r2]
   1462c:	e3120a02 	tst	r2, #8192	; 0x2000
   14630:	1afffffa 	bne	14620 <read_alias_file+0xdc>
   14634:	e3530000 	cmp	r3, #0
   14638:	13530023 	cmpne	r3, #35	; 0x23
   1463c:	1a000024 	bne	146d4 <read_alias_file+0x190>
   14640:	e3560000 	cmp	r6, #0
   14644:	0a00001b 	beq	146b8 <read_alias_file+0x174>
   14648:	e5993000 	ldr	r3, [r9]
   1464c:	e3130010 	tst	r3, #16
   14650:	0affffde 	beq	145d0 <read_alias_file+0x8c>
   14654:	e1a00009 	mov	r0, r9
   14658:	eb000e71 	bl	18024 <_IO_new_fclose>
   1465c:	e51b31c0 	ldr	r3, [fp, #-448]	; 0xfffffe40
   14660:	e3530000 	cmp	r3, #0
   14664:	0a000006 	beq	14684 <read_alias_file+0x140>
   14668:	e59f231c 	ldr	r2, [pc, #796]	; 1498c <read_alias_file+0x448>
   1466c:	e59f1310 	ldr	r1, [pc, #784]	; 14984 <read_alias_file+0x440>
   14670:	e59f3318 	ldr	r3, [pc, #792]	; 14990 <read_alias_file+0x44c>
   14674:	e5920000 	ldr	r0, [r2]
   14678:	e5911000 	ldr	r1, [r1]
   1467c:	e3a02008 	mov	r2, #8
   14680:	eb000776 	bl	16460 <qsort>
   14684:	e59f32ec 	ldr	r3, [pc, #748]	; 14978 <read_alias_file+0x434>
   14688:	e51b2028 	ldr	r2, [fp, #-40]	; 0xffffffd8
   1468c:	e51b01c0 	ldr	r0, [fp, #-448]	; 0xfffffe40
   14690:	e5933000 	ldr	r3, [r3]
   14694:	e1520003 	cmp	r2, r3
   14698:	1a0000b5 	bne	14974 <read_alias_file+0x430>
   1469c:	e24bd020 	sub	sp, fp, #32
   146a0:	e8bd8ff0 	pop	{r4, r5, r6, r7, r8, r9, sl, fp, pc}
   146a4:	e3a0100a 	mov	r1, #10
   146a8:	e24b0f6e 	sub	r0, fp, #440	; 0x1b8
   146ac:	eb0045bb 	bl	25da0 <strchr>
   146b0:	e3500000 	cmp	r0, #0
   146b4:	1affffe3 	bne	14648 <read_alias_file+0x104>
   146b8:	e1a02009 	mov	r2, r9
   146bc:	e3a01e19 	mov	r1, #400	; 0x190
   146c0:	e24b0f6e 	sub	r0, fp, #440	; 0x1b8
   146c4:	eb0018a1 	bl	1a950 <__fgets_unlocked>
   146c8:	e3500000 	cmp	r0, #0
   146cc:	1afffff4 	bne	146a4 <read_alias_file+0x160>
   146d0:	eaffffdc 	b	14648 <read_alias_file+0x104>
   146d4:	e5d43001 	ldrb	r3, [r4, #1]
   146d8:	e2845001 	add	r5, r4, #1
   146dc:	ea000002 	b	146ec <read_alias_file+0x1a8>
   146e0:	e3530000 	cmp	r3, #0
   146e4:	1a000050 	bne	1482c <read_alias_file+0x2e8>
   146e8:	e5f53001 	ldrb	r3, [r5, #1]!
   146ec:	e3530000 	cmp	r3, #0
   146f0:	e1a03083 	lsl	r3, r3, #1
   146f4:	e19130b3 	ldrh	r3, [r1, r3]
   146f8:	e2033a02 	and	r3, r3, #8192	; 0x2000
   146fc:	1afffff7 	bne	146e0 <read_alias_file+0x19c>
   14700:	e3530000 	cmp	r3, #0
   14704:	0affffcd 	beq	14640 <read_alias_file+0xfc>
   14708:	e5f53001 	ldrb	r3, [r5, #1]!
   1470c:	e1a02083 	lsl	r2, r3, #1
   14710:	e19120b2 	ldrh	r2, [r1, r2]
   14714:	e3120a02 	tst	r2, #8192	; 0x2000
   14718:	1afffffa 	bne	14708 <read_alias_file+0x1c4>
   1471c:	e3530000 	cmp	r3, #0
   14720:	0affffc6 	beq	14640 <read_alias_file+0xfc>
   14724:	e5d53001 	ldrb	r3, [r5, #1]
   14728:	e2852001 	add	r2, r5, #1
   1472c:	e3530000 	cmp	r3, #0
   14730:	1a000003 	bne	14744 <read_alias_file+0x200>
   14734:	ea00000b 	b	14768 <read_alias_file+0x224>
   14738:	e5f23001 	ldrb	r3, [r2, #1]!
   1473c:	e3530000 	cmp	r3, #0
   14740:	0a000008 	beq	14768 <read_alias_file+0x224>
   14744:	e1a00083 	lsl	r0, r3, #1
   14748:	e19100b0 	ldrh	r0, [r1, r0]
   1474c:	e3100a02 	tst	r0, #8192	; 0x2000
   14750:	0afffff8 	beq	14738 <read_alias_file+0x1f4>
   14754:	e353000a 	cmp	r3, #10
   14758:	03a01000 	moveq	r1, #0
   1475c:	05c23001 	strbeq	r3, [r2, #1]
   14760:	05c21000 	strbeq	r1, [r2]
   14764:	1a000055 	bne	148c0 <read_alias_file+0x37c>
   14768:	e59a7000 	ldr	r7, [sl]
   1476c:	e59a3004 	ldr	r3, [sl, #4]
   14770:	e1570003 	cmp	r7, r3
   14774:	2a000057 	bcs	148d8 <read_alias_file+0x394>
   14778:	e1a00004 	mov	r0, r4
   1477c:	eb004727 	bl	26420 <strlen>
   14780:	e2802001 	add	r2, r0, #1
   14784:	e1a00005 	mov	r0, r5
   14788:	e50b21c4 	str	r2, [fp, #-452]	; 0xfffffe3c
   1478c:	eb004723 	bl	26420 <strlen>
   14790:	e59a1008 	ldr	r1, [sl, #8]
   14794:	e51b21c4 	ldr	r2, [fp, #-452]	; 0xfffffe3c
   14798:	e50b11c8 	str	r1, [fp, #-456]	; 0xfffffe38
   1479c:	e59a300c 	ldr	r3, [sl, #12]
   147a0:	e0811002 	add	r1, r1, r2
   147a4:	e59fc1e0 	ldr	ip, [pc, #480]	; 1498c <read_alias_file+0x448>
   147a8:	e50b11cc 	str	r1, [fp, #-460]	; 0xfffffe34
   147ac:	e59c8004 	ldr	r8, [ip, #4]
   147b0:	e2800001 	add	r0, r0, #1
   147b4:	e0811000 	add	r1, r1, r0
   147b8:	e1510003 	cmp	r1, r3
   147bc:	e50b01c4 	str	r0, [fp, #-452]	; 0xfffffe3c
   147c0:	e50b11d0 	str	r1, [fp, #-464]	; 0xfffffe30
   147c4:	9a000023 	bls	14858 <read_alias_file+0x314>
   147c8:	e51b11c4 	ldr	r1, [fp, #-452]	; 0xfffffe3c
   147cc:	e1a00008 	mov	r0, r8
   147d0:	e0821001 	add	r1, r2, r1
   147d4:	e3510b01 	cmp	r1, #1024	; 0x400
   147d8:	20833001 	addcs	r3, r3, r1
   147dc:	32833b01 	addcc	r3, r3, #1024	; 0x400
   147e0:	e1a01003 	mov	r1, r3
   147e4:	e50b21dc 	str	r2, [fp, #-476]	; 0xfffffe24
   147e8:	e50b31d8 	str	r3, [fp, #-472]	; 0xfffffe28
   147ec:	eb004141 	bl	24cf8 <__libc_realloc>
   147f0:	e3500000 	cmp	r0, #0
   147f4:	0affff96 	beq	14654 <read_alias_file+0x110>
   147f8:	e59f318c 	ldr	r3, [pc, #396]	; 1498c <read_alias_file+0x448>
   147fc:	e1500008 	cmp	r0, r8
   14800:	e51b21dc 	ldr	r2, [fp, #-476]	; 0xfffffe24
   14804:	e5933000 	ldr	r3, [r3]
   14808:	e50b31d4 	str	r3, [fp, #-468]	; 0xfffffe2c
   1480c:	1a00003f 	bne	14910 <read_alias_file+0x3cc>
   14810:	e1a03187 	lsl	r3, r7, #3
   14814:	e59f1170 	ldr	r1, [pc, #368]	; 1498c <read_alias_file+0x448>
   14818:	e1a08000 	mov	r8, r0
   1481c:	e5810004 	str	r0, [r1, #4]
   14820:	e51b11d8 	ldr	r1, [fp, #-472]	; 0xfffffe28
   14824:	e58a100c 	str	r1, [sl, #12]
   14828:	ea00000d 	b	14864 <read_alias_file+0x320>
   1482c:	e5d53001 	ldrb	r3, [r5, #1]
   14830:	e3a00000 	mov	r0, #0
   14834:	e5c50000 	strb	r0, [r5]
   14838:	e2855001 	add	r5, r5, #1
   1483c:	e1a02083 	lsl	r2, r3, #1
   14840:	e19120b2 	ldrh	r2, [r1, r2]
   14844:	e3120a02 	tst	r2, #8192	; 0x2000
   14848:	1affffae 	bne	14708 <read_alias_file+0x1c4>
   1484c:	e3530000 	cmp	r3, #0
   14850:	0affff7a 	beq	14640 <read_alias_file+0xfc>
   14854:	eaffffb2 	b	14724 <read_alias_file+0x1e0>
   14858:	e59c3000 	ldr	r3, [ip]
   1485c:	e50b31d4 	str	r3, [fp, #-468]	; 0xfffffe2c
   14860:	e1a03187 	lsl	r3, r7, #3
   14864:	e50b31d8 	str	r3, [fp, #-472]	; 0xfffffe28
   14868:	e51b31c8 	ldr	r3, [fp, #-456]	; 0xfffffe38
   1486c:	e1a01004 	mov	r1, r4
   14870:	e0880003 	add	r0, r8, r3
   14874:	eb004bc1 	bl	27780 <memcpy>
   14878:	e51b31d8 	ldr	r3, [fp, #-472]	; 0xfffffe28
   1487c:	e51bc1d4 	ldr	ip, [fp, #-468]	; 0xfffffe2c
   14880:	e51be1c0 	ldr	lr, [fp, #-448]	; 0xfffffe40
   14884:	e08c4003 	add	r4, ip, r3
   14888:	e28ee001 	add	lr, lr, #1
   1488c:	e51b21c4 	ldr	r2, [fp, #-452]	; 0xfffffe3c
   14890:	e1a01005 	mov	r1, r5
   14894:	e50be1c0 	str	lr, [fp, #-448]	; 0xfffffe40
   14898:	e2877001 	add	r7, r7, #1
   1489c:	e78c0003 	str	r0, [ip, r3]
   148a0:	e51b31cc 	ldr	r3, [fp, #-460]	; 0xfffffe34
   148a4:	e0880003 	add	r0, r8, r3
   148a8:	eb004bb4 	bl	27780 <memcpy>
   148ac:	e51b31d0 	ldr	r3, [fp, #-464]	; 0xfffffe30
   148b0:	e58a7000 	str	r7, [sl]
   148b4:	e58a3008 	str	r3, [sl, #8]
   148b8:	e5840004 	str	r0, [r4, #4]
   148bc:	eaffff5f 	b	14640 <read_alias_file+0xfc>
   148c0:	e3a03000 	mov	r3, #0
   148c4:	e5c23000 	strb	r3, [r2]
   148c8:	e59a7000 	ldr	r7, [sl]
   148cc:	e59a3004 	ldr	r3, [sl, #4]
   148d0:	e1570003 	cmp	r7, r3
   148d4:	3affffa7 	bcc	14778 <read_alias_file+0x234>
   148d8:	e3530000 	cmp	r3, #0
   148dc:	11a08083 	lslne	r8, r3, #1
   148e0:	11a01203 	lslne	r1, r3, #4
   148e4:	e59f30a0 	ldr	r3, [pc, #160]	; 1498c <read_alias_file+0x448>
   148e8:	03a01e32 	moveq	r1, #800	; 0x320
   148ec:	03a08064 	moveq	r8, #100	; 0x64
   148f0:	e5930000 	ldr	r0, [r3]
   148f4:	eb0040ff 	bl	24cf8 <__libc_realloc>
   148f8:	e3500000 	cmp	r0, #0
   148fc:	0affff54 	beq	14654 <read_alias_file+0x110>
   14900:	e59f3084 	ldr	r3, [pc, #132]	; 1498c <read_alias_file+0x448>
   14904:	e58a8004 	str	r8, [sl, #4]
   14908:	e5830000 	str	r0, [r3]
   1490c:	eaffff99 	b	14778 <read_alias_file+0x234>
   14910:	e3570000 	cmp	r7, #0
   14914:	01a03007 	moveq	r3, r7
   14918:	0affffbd 	beq	14814 <read_alias_file+0x2d0>
   1491c:	e51b11d4 	ldr	r1, [fp, #-468]	; 0xfffffe2c
   14920:	e1a03187 	lsl	r3, r7, #3
   14924:	e081c003 	add	ip, r1, r3
   14928:	e50bc1dc 	str	ip, [fp, #-476]	; 0xfffffe24
   1492c:	e0408008 	sub	r8, r0, r8
   14930:	e281c004 	add	ip, r1, #4
   14934:	e51ce004 	ldr	lr, [ip, #-4]
   14938:	e2811008 	add	r1, r1, #8
   1493c:	e08ee008 	add	lr, lr, r8
   14940:	e50ce004 	str	lr, [ip, #-4]
   14944:	e511e004 	ldr	lr, [r1, #-4]
   14948:	e28cc008 	add	ip, ip, #8
   1494c:	e08ee008 	add	lr, lr, r8
   14950:	e501e004 	str	lr, [r1, #-4]
   14954:	e51be1dc 	ldr	lr, [fp, #-476]	; 0xfffffe24
   14958:	e15e0001 	cmp	lr, r1
   1495c:	1afffff4 	bne	14934 <read_alias_file+0x3f0>
   14960:	eaffffab 	b	14814 <read_alias_file+0x2d0>
   14964:	eb000dae 	bl	18024 <_IO_new_fclose>
   14968:	e3a03000 	mov	r3, #0
   1496c:	e50b31c0 	str	r3, [fp, #-448]	; 0xfffffe40
   14970:	eaffff43 	b	14684 <read_alias_file+0x140>
   14974:	eb005a69 	bl	2b320 <__stack_chk_fail>
   14978:	00082000 	.word	0x00082000
   1497c:	0006cc24 	.word	0x0006cc24
   14980:	0006cc20 	.word	0x0006cc20
   14984:	00083608 	.word	0x00083608
   14988:	0006deb4 	.word	0x0006deb4
   1498c:	00083e2c 	.word	0x00083e2c
   14990:	00014530 	.word	0x00014530

00014994 <_nl_expand_alias>:
   14994:	e92d4ff8 	push	{r3, r4, r5, r6, r7, r8, r9, sl, fp, lr}
   14998:	e1a06000 	mov	r6, r0
   1499c:	e59f7178 	ldr	r7, [pc, #376]	; 14b1c <_nl_expand_alias+0x188>
   149a0:	e3a03001 	mov	r3, #1
   149a4:	e1972f9f 	ldrex	r2, [r7]
   149a8:	e3520000 	cmp	r2, #0
   149ac:	1a000003 	bne	149c0 <_nl_expand_alias+0x2c>
   149b0:	e1871f93 	strex	r1, r3, [r7]
   149b4:	e3510000 	cmp	r1, #0
   149b8:	1afffff9 	bne	149a4 <_nl_expand_alias+0x10>
   149bc:	ee070fba 	mcr	15, 0, r0, cr7, cr10, {5}
   149c0:	1a00004c 	bne	14af8 <_nl_expand_alias+0x164>
   149c4:	e59f4154 	ldr	r4, [pc, #340]	; 14b20 <_nl_expand_alias+0x18c>
   149c8:	e59f5154 	ldr	r5, [pc, #340]	; 14b24 <_nl_expand_alias+0x190>
   149cc:	e5943014 	ldr	r3, [r4, #20]
   149d0:	e594a000 	ldr	sl, [r4]
   149d4:	e3530000 	cmp	r3, #0
   149d8:	059f3148 	ldreq	r3, [pc, #328]	; 14b28 <_nl_expand_alias+0x194>
   149dc:	05843014 	streq	r3, [r4, #20]
   149e0:	e35a0000 	cmp	sl, #0
   149e4:	1a00002e 	bne	14aa4 <_nl_expand_alias+0x110>
   149e8:	e5940014 	ldr	r0, [r4, #20]
   149ec:	e3a02000 	mov	r2, #0
   149f0:	e5d03000 	ldrb	r3, [r0]
   149f4:	e3530000 	cmp	r3, #0
   149f8:	0a000012 	beq	14a48 <_nl_expand_alias+0xb4>
   149fc:	e353003a 	cmp	r3, #58	; 0x3a
   14a00:	1a000004 	bne	14a18 <_nl_expand_alias+0x84>
   14a04:	e5f03001 	ldrb	r3, [r0, #1]!
   14a08:	e353003a 	cmp	r3, #58	; 0x3a
   14a0c:	0afffffc 	beq	14a04 <_nl_expand_alias+0x70>
   14a10:	e3530000 	cmp	r3, #0
   14a14:	0a000018 	beq	14a7c <_nl_expand_alias+0xe8>
   14a18:	e1a02000 	mov	r2, r0
   14a1c:	e5f23001 	ldrb	r3, [r2, #1]!
   14a20:	e3530000 	cmp	r3, #0
   14a24:	1353003a 	cmpne	r3, #58	; 0x3a
   14a28:	1afffffb 	bne	14a1c <_nl_expand_alias+0x88>
   14a2c:	e1520000 	cmp	r2, r0
   14a30:	8a000013 	bhi	14a84 <_nl_expand_alias+0xf0>
   14a34:	e1a00002 	mov	r0, r2
   14a38:	e3a02001 	mov	r2, #1
   14a3c:	e5d03000 	ldrb	r3, [r0]
   14a40:	e3530000 	cmp	r3, #0
   14a44:	1affffec 	bne	149fc <_nl_expand_alias+0x68>
   14a48:	e3a0c000 	mov	ip, #0
   14a4c:	e3520000 	cmp	r2, #0
   14a50:	15840014 	strne	r0, [r4, #20]
   14a54:	e3a03000 	mov	r3, #0
   14a58:	ee070fba 	mcr	15, 0, r0, cr7, cr10, {5}
   14a5c:	e1972f9f 	ldrex	r2, [r7]
   14a60:	e1871f93 	strex	r1, r3, [r7]
   14a64:	e3510000 	cmp	r1, #0
   14a68:	1afffffb 	bne	14a5c <_nl_expand_alias+0xc8>
   14a6c:	e3520001 	cmp	r2, #1
   14a70:	ca000023 	bgt	14b04 <_nl_expand_alias+0x170>
   14a74:	e1a0000c 	mov	r0, ip
   14a78:	e8bd8ff8 	pop	{r3, r4, r5, r6, r7, r8, r9, sl, fp, pc}
   14a7c:	e1a02000 	mov	r2, r0
   14a80:	eaffffeb 	b	14a34 <_nl_expand_alias+0xa0>
   14a84:	e0421000 	sub	r1, r2, r0
   14a88:	e5842014 	str	r2, [r4, #20]
   14a8c:	ebfffeac 	bl	14544 <read_alias_file>
   14a90:	e3500000 	cmp	r0, #0
   14a94:	0affffd3 	beq	149e8 <_nl_expand_alias+0x54>
   14a98:	e594a000 	ldr	sl, [r4]
   14a9c:	e35a0000 	cmp	sl, #0
   14aa0:	0affffd0 	beq	149e8 <_nl_expand_alias+0x54>
   14aa4:	e59f3080 	ldr	r3, [pc, #128]	; 14b2c <_nl_expand_alias+0x198>
   14aa8:	e3a0b000 	mov	fp, #0
   14aac:	e5938000 	ldr	r8, [r3]
   14ab0:	ea000003 	b	14ac4 <_nl_expand_alias+0x130>
   14ab4:	0a00000d 	beq	14af0 <_nl_expand_alias+0x15c>
   14ab8:	e289b001 	add	fp, r9, #1
   14abc:	e15a000b 	cmp	sl, fp
   14ac0:	9affffc8 	bls	149e8 <_nl_expand_alias+0x54>
   14ac4:	e08b900a 	add	r9, fp, sl
   14ac8:	e1a02005 	mov	r2, r5
   14acc:	e1a090a9 	lsr	r9, r9, #1
   14ad0:	e1a00006 	mov	r0, r6
   14ad4:	e7981189 	ldr	r1, [r8, r9, lsl #3]
   14ad8:	eb004b18 	bl	27740 <__strcasecmp_l>
   14adc:	e0882189 	add	r2, r8, r9, lsl #3
   14ae0:	e3500000 	cmp	r0, #0
   14ae4:	aafffff2 	bge	14ab4 <_nl_expand_alias+0x120>
   14ae8:	e1a0a009 	mov	sl, r9
   14aec:	eafffff2 	b	14abc <_nl_expand_alias+0x128>
   14af0:	e592c004 	ldr	ip, [r2, #4]
   14af4:	eaffffd6 	b	14a54 <_nl_expand_alias+0xc0>
   14af8:	e1a00007 	mov	r0, r7
   14afc:	eb00599d 	bl	2b178 <__lll_lock_wait_private>
   14b00:	eaffffaf 	b	149c4 <_nl_expand_alias+0x30>
   14b04:	e59f0010 	ldr	r0, [pc, #16]	; 14b1c <_nl_expand_alias+0x188>
   14b08:	e3a01081 	mov	r1, #129	; 0x81
   14b0c:	e3a02001 	mov	r2, #1
   14b10:	e3a070f0 	mov	r7, #240	; 0xf0
   14b14:	ef000000 	svc	0x00000000
   14b18:	eaffffd5 	b	14a74 <_nl_expand_alias+0xe0>
   14b1c:	00083618 	.word	0x00083618
   14b20:	00083608 	.word	0x00083608
   14b24:	0007bc54 	.word	0x0007bc54
   14b28:	0006cbe0 	.word	0x0006cbe0
   14b2c:	00083e2c 	.word	0x00083e2c

00014b30 <_nl_make_l10nflist>:
   14b30:	e92d4ff0 	push	{r4, r5, r6, r7, r8, r9, sl, fp, lr}
   14b34:	e24dd03c 	sub	sp, sp, #60	; 0x3c
   14b38:	e1a04003 	mov	r4, r3
   14b3c:	e58d0028 	str	r0, [sp, #40]	; 0x28
   14b40:	e59d0060 	ldr	r0, [sp, #96]	; 0x60
   14b44:	e1a06002 	mov	r6, r2
   14b48:	e58d1024 	str	r1, [sp, #36]	; 0x24
   14b4c:	eb004633 	bl	26420 <strlen>
   14b50:	e2147004 	ands	r7, r4, #4
   14b54:	e2869002 	add	r9, r6, #2
   14b58:	01a0b007 	moveq	fp, r7
   14b5c:	e1a05000 	mov	r5, r0
   14b60:	0a000002 	beq	14b70 <_nl_make_l10nflist+0x40>
   14b64:	e59d0064 	ldr	r0, [sp, #100]	; 0x64
   14b68:	eb00462c 	bl	26420 <strlen>
   14b6c:	e280b001 	add	fp, r0, #1
   14b70:	e2143002 	ands	r3, r4, #2
   14b74:	e58d302c 	str	r3, [sp, #44]	; 0x2c
   14b78:	e0855009 	add	r5, r5, r9
   14b7c:	0a0000df 	beq	14f00 <_nl_make_l10nflist+0x3d0>
   14b80:	e59d0068 	ldr	r0, [sp, #104]	; 0x68
   14b84:	eb004625 	bl	26420 <strlen>
   14b88:	e2809001 	add	r9, r0, #1
   14b8c:	e2143001 	ands	r3, r4, #1
   14b90:	e58d3030 	str	r3, [sp, #48]	; 0x30
   14b94:	e08bb005 	add	fp, fp, r5
   14b98:	0a0000d6 	beq	14ef8 <_nl_make_l10nflist+0x3c8>
   14b9c:	e59d006c 	ldr	r0, [sp, #108]	; 0x6c
   14ba0:	eb00461e 	bl	26420 <strlen>
   14ba4:	e2805001 	add	r5, r0, #1
   14ba8:	e2148008 	ands	r8, r4, #8
   14bac:	e2143008 	ands	r3, r4, #8
   14bb0:	e58d3034 	str	r3, [sp, #52]	; 0x34
   14bb4:	e08bb009 	add	fp, fp, r9
   14bb8:	0a000002 	beq	14bc8 <_nl_make_l10nflist+0x98>
   14bbc:	e59d0070 	ldr	r0, [sp, #112]	; 0x70
   14bc0:	eb004616 	bl	26420 <strlen>
   14bc4:	e2808001 	add	r8, r0, #1
   14bc8:	e59d0074 	ldr	r0, [sp, #116]	; 0x74
   14bcc:	eb004613 	bl	26420 <strlen>
   14bd0:	e085500b 	add	r5, r5, fp
   14bd4:	e1a09000 	mov	r9, r0
   14bd8:	e0850008 	add	r0, r5, r8
   14bdc:	e0800009 	add	r0, r0, r9
   14be0:	eb003e17 	bl	24444 <__libc_malloc>
   14be4:	e2505000 	subs	r5, r0, #0
   14be8:	0a0000ed 	beq	14fa4 <_nl_make_l10nflist+0x474>
   14bec:	e1a02006 	mov	r2, r6
   14bf0:	e59d1024 	ldr	r1, [sp, #36]	; 0x24
   14bf4:	eb004ae1 	bl	27780 <memcpy>
   14bf8:	e3560000 	cmp	r6, #0
   14bfc:	0a000009 	beq	14c28 <_nl_make_l10nflist+0xf8>
   14c00:	e1a0a006 	mov	sl, r6
   14c04:	e1a08005 	mov	r8, r5
   14c08:	e3a0b03a 	mov	fp, #58	; 0x3a
   14c0c:	e1a00008 	mov	r0, r8
   14c10:	eb004602 	bl	26420 <strlen>
   14c14:	e1e03000 	mvn	r3, r0
   14c18:	e09aa003 	adds	sl, sl, r3
   14c1c:	e0888000 	add	r8, r8, r0
   14c20:	14c8b001 	strbne	fp, [r8], #1
   14c24:	1afffff8 	bne	14c0c <_nl_make_l10nflist+0xdc>
   14c28:	e0850006 	add	r0, r5, r6
   14c2c:	e3a0302f 	mov	r3, #47	; 0x2f
   14c30:	e5403001 	strb	r3, [r0, #-1]
   14c34:	e59d1060 	ldr	r1, [sp, #96]	; 0x60
   14c38:	eb004498 	bl	25ea0 <__stpcpy>
   14c3c:	e3570000 	cmp	r7, #0
   14c40:	e1a03000 	mov	r3, r0
   14c44:	1a0000c8 	bne	14f6c <_nl_make_l10nflist+0x43c>
   14c48:	e59d202c 	ldr	r2, [sp, #44]	; 0x2c
   14c4c:	e2830001 	add	r0, r3, #1
   14c50:	e3520000 	cmp	r2, #0
   14c54:	1a0000ab 	bne	14f08 <_nl_make_l10nflist+0x3d8>
   14c58:	e59d2030 	ldr	r2, [sp, #48]	; 0x30
   14c5c:	e3520000 	cmp	r2, #0
   14c60:	1a0000b1 	bne	14f2c <_nl_make_l10nflist+0x3fc>
   14c64:	e59d2034 	ldr	r2, [sp, #52]	; 0x34
   14c68:	e3520000 	cmp	r2, #0
   14c6c:	1a0000b7 	bne	14f50 <_nl_make_l10nflist+0x420>
   14c70:	e3a0102f 	mov	r1, #47	; 0x2f
   14c74:	e5c31000 	strb	r1, [r3]
   14c78:	e2892001 	add	r2, r9, #1
   14c7c:	e59d1074 	ldr	r1, [sp, #116]	; 0x74
   14c80:	eb004abe 	bl	27780 <memcpy>
   14c84:	e59d3028 	ldr	r3, [sp, #40]	; 0x28
   14c88:	e5933000 	ldr	r3, [r3]
   14c8c:	e3530000 	cmp	r3, #0
   14c90:	e58d302c 	str	r3, [sp, #44]	; 0x2c
   14c94:	0a0000ce 	beq	14fd4 <_nl_make_l10nflist+0x4a4>
   14c98:	e1a07003 	mov	r7, r3
   14c9c:	e3a0a000 	mov	sl, #0
   14ca0:	e5973000 	ldr	r3, [r7]
   14ca4:	e1a01005 	mov	r1, r5
   14ca8:	e2530000 	subs	r0, r3, #0
   14cac:	0a000004 	beq	14cc4 <_nl_make_l10nflist+0x194>
   14cb0:	eb00446d 	bl	25e6c <strcmp>
   14cb4:	e3500000 	cmp	r0, #0
   14cb8:	0a0000be 	beq	14fb8 <_nl_make_l10nflist+0x488>
   14cbc:	ba000003 	blt	14cd0 <_nl_make_l10nflist+0x1a0>
   14cc0:	e1a0a007 	mov	sl, r7
   14cc4:	e597700c 	ldr	r7, [r7, #12]
   14cc8:	e3570000 	cmp	r7, #0
   14ccc:	1afffff3 	bne	14ca0 <_nl_make_l10nflist+0x170>
   14cd0:	e59d3078 	ldr	r3, [sp, #120]	; 0x78
   14cd4:	e3530000 	cmp	r3, #0
   14cd8:	0a0000b5 	beq	14fb4 <_nl_make_l10nflist+0x484>
   14cdc:	e59f22f8 	ldr	r2, [pc, #760]	; 14fdc <_nl_make_l10nflist+0x4ac>
   14ce0:	e59f32f8 	ldr	r3, [pc, #760]	; 14fe0 <_nl_make_l10nflist+0x4b0>
   14ce4:	e00220c4 	and	r2, r2, r4, asr #1
   14ce8:	e0033004 	and	r3, r3, r4
   14cec:	e0822003 	add	r2, r2, r3
   14cf0:	e59f12ec 	ldr	r1, [pc, #748]	; 14fe4 <_nl_make_l10nflist+0x4b4>
   14cf4:	e59f32ec 	ldr	r3, [pc, #748]	; 14fe8 <_nl_make_l10nflist+0x4b8>
   14cf8:	e59f72ec 	ldr	r7, [pc, #748]	; 14fec <_nl_make_l10nflist+0x4bc>
   14cfc:	e0033142 	and	r3, r3, r2, asr #2
   14d00:	e0022001 	and	r2, r2, r1
   14d04:	e0833002 	add	r3, r3, r2
   14d08:	e3560000 	cmp	r6, #0
   14d0c:	e0833243 	add	r3, r3, r3, asr #4
   14d10:	e0077003 	and	r7, r7, r3
   14d14:	e0877427 	add	r7, r7, r7, lsr #8
   14d18:	e6ef7077 	uxtb	r7, r7
   14d1c:	0a000098 	beq	14f84 <_nl_make_l10nflist+0x454>
   14d20:	e59db024 	ldr	fp, [sp, #36]	; 0x24
   14d24:	e1a09006 	mov	r9, r6
   14d28:	e3a08000 	mov	r8, #0
   14d2c:	e1a0000b 	mov	r0, fp
   14d30:	eb0045ba 	bl	26420 <strlen>
   14d34:	e2888001 	add	r8, r8, #1
   14d38:	e1e03000 	mvn	r3, r0
   14d3c:	e0999003 	adds	r9, r9, r3
   14d40:	e2800001 	add	r0, r0, #1
   14d44:	e08bb000 	add	fp, fp, r0
   14d48:	1afffff7 	bne	14d2c <_nl_make_l10nflist+0x1fc>
   14d4c:	e1a07718 	lsl	r7, r8, r7
   14d50:	e2870005 	add	r0, r7, #5
   14d54:	e1a00100 	lsl	r0, r0, #2
   14d58:	eb003db9 	bl	24444 <__libc_malloc>
   14d5c:	e2507000 	subs	r7, r0, #0
   14d60:	0a00008d 	beq	14f9c <_nl_make_l10nflist+0x46c>
   14d64:	e59db024 	ldr	fp, [sp, #36]	; 0x24
   14d68:	e1a08006 	mov	r8, r6
   14d6c:	e5875000 	str	r5, [r7]
   14d70:	e1a0000b 	mov	r0, fp
   14d74:	eb0045a9 	bl	26420 <strlen>
   14d78:	e2899001 	add	r9, r9, #1
   14d7c:	e1e03000 	mvn	r3, r0
   14d80:	e0988003 	adds	r8, r8, r3
   14d84:	e2800001 	add	r0, r0, #1
   14d88:	e08bb000 	add	fp, fp, r0
   14d8c:	1afffff7 	bne	14d70 <_nl_make_l10nflist+0x240>
   14d90:	e3590001 	cmp	r9, #1
   14d94:	02043003 	andeq	r3, r4, #3
   14d98:	02433003 	subeq	r3, r3, #3
   14d9c:	13a03001 	movne	r3, #1
   14da0:	016f3f13 	clzeq	r3, r3
   14da4:	01a032a3 	lsreq	r3, r3, #5
   14da8:	e35a0000 	cmp	sl, #0
   14dac:	e5873004 	str	r3, [r7, #4]
   14db0:	059d302c 	ldreq	r3, [sp, #44]	; 0x2c
   14db4:	159a300c 	ldrne	r3, [sl, #12]
   14db8:	0587300c 	streq	r3, [r7, #12]
   14dbc:	059d3028 	ldreq	r3, [sp, #40]	; 0x28
   14dc0:	e3a02000 	mov	r2, #0
   14dc4:	1587300c 	strne	r3, [r7, #12]
   14dc8:	e5872008 	str	r2, [r7, #8]
   14dcc:	05837000 	streq	r7, [r3]
   14dd0:	158a700c 	strne	r7, [sl, #12]
   14dd4:	e3560000 	cmp	r6, #0
   14dd8:	0a00000d 	beq	14e14 <_nl_make_l10nflist+0x2e4>
   14ddc:	e59d5024 	ldr	r5, [sp, #36]	; 0x24
   14de0:	e1a09006 	mov	r9, r6
   14de4:	e3a0a000 	mov	sl, #0
   14de8:	e1a00005 	mov	r0, r5
   14dec:	eb00458b 	bl	26420 <strlen>
   14df0:	e28aa001 	add	sl, sl, #1
   14df4:	e1e03000 	mvn	r3, r0
   14df8:	e0999003 	adds	r9, r9, r3
   14dfc:	e2800001 	add	r0, r0, #1
   14e00:	e0855000 	add	r5, r5, r0
   14e04:	1afffff7 	bne	14de8 <_nl_make_l10nflist+0x2b8>
   14e08:	e35a0001 	cmp	sl, #1
   14e0c:	02445001 	subeq	r5, r4, #1
   14e10:	0a000000 	beq	14e18 <_nl_make_l10nflist+0x2e8>
   14e14:	e1a05004 	mov	r5, r4
   14e18:	e3550000 	cmp	r5, #0
   14e1c:	ba00006a 	blt	14fcc <_nl_make_l10nflist+0x49c>
   14e20:	e59d3024 	ldr	r3, [sp, #36]	; 0x24
   14e24:	e1e04004 	mvn	r4, r4
   14e28:	e3a0a000 	mov	sl, #0
   14e2c:	e0839006 	add	r9, r3, r6
   14e30:	e0158004 	ands	r8, r5, r4
   14e34:	028ab004 	addeq	fp, sl, #4
   14e38:	0087b10b 	addeq	fp, r7, fp, lsl #2
   14e3c:	0a000027 	beq	14ee0 <_nl_make_l10nflist+0x3b0>
   14e40:	e2555001 	subs	r5, r5, #1
   14e44:	2afffff9 	bcs	14e30 <_nl_make_l10nflist+0x300>
   14e48:	e28aa004 	add	sl, sl, #4
   14e4c:	e3a03000 	mov	r3, #0
   14e50:	e1a00007 	mov	r0, r7
   14e54:	e787310a 	str	r3, [r7, sl, lsl #2]
   14e58:	e28dd03c 	add	sp, sp, #60	; 0x3c
   14e5c:	e8bd8ff0 	pop	{r4, r5, r6, r7, r8, r9, sl, fp, pc}
   14e60:	e1580009 	cmp	r8, r9
   14e64:	e1a00008 	mov	r0, r8
   14e68:	2afffff4 	bcs	14e40 <_nl_make_l10nflist+0x310>
   14e6c:	eb00456b 	bl	26420 <strlen>
   14e70:	e2800001 	add	r0, r0, #1
   14e74:	e0888000 	add	r8, r8, r0
   14e78:	e3580000 	cmp	r8, #0
   14e7c:	11580009 	cmpne	r8, r9
   14e80:	2affffee 	bcs	14e40 <_nl_make_l10nflist+0x310>
   14e84:	e1a00008 	mov	r0, r8
   14e88:	eb004564 	bl	26420 <strlen>
   14e8c:	e3a03001 	mov	r3, #1
   14e90:	e58d3018 	str	r3, [sp, #24]
   14e94:	e59d3074 	ldr	r3, [sp, #116]	; 0x74
   14e98:	e1a01008 	mov	r1, r8
   14e9c:	e58d3014 	str	r3, [sp, #20]
   14ea0:	e59d3070 	ldr	r3, [sp, #112]	; 0x70
   14ea4:	e28aa001 	add	sl, sl, #1
   14ea8:	e58d3010 	str	r3, [sp, #16]
   14eac:	e59d306c 	ldr	r3, [sp, #108]	; 0x6c
   14eb0:	e58d300c 	str	r3, [sp, #12]
   14eb4:	e59d3068 	ldr	r3, [sp, #104]	; 0x68
   14eb8:	e58d3008 	str	r3, [sp, #8]
   14ebc:	e59d3064 	ldr	r3, [sp, #100]	; 0x64
   14ec0:	e58d3004 	str	r3, [sp, #4]
   14ec4:	e59d3060 	ldr	r3, [sp, #96]	; 0x60
   14ec8:	e58d3000 	str	r3, [sp]
   14ecc:	e1a03005 	mov	r3, r5
   14ed0:	e2802001 	add	r2, r0, #1
   14ed4:	e59d0028 	ldr	r0, [sp, #40]	; 0x28
   14ed8:	ebffff14 	bl	14b30 <_nl_make_l10nflist>
   14edc:	e48b0004 	str	r0, [fp], #4
   14ee0:	e3580000 	cmp	r8, #0
   14ee4:	1affffdd 	bne	14e60 <_nl_make_l10nflist+0x330>
   14ee8:	e3560000 	cmp	r6, #0
   14eec:	e59d8024 	ldr	r8, [sp, #36]	; 0x24
   14ef0:	1affffe3 	bne	14e84 <_nl_make_l10nflist+0x354>
   14ef4:	eaffffd1 	b	14e40 <_nl_make_l10nflist+0x310>
   14ef8:	e2145001 	ands	r5, r4, #1
   14efc:	eaffff29 	b	14ba8 <_nl_make_l10nflist+0x78>
   14f00:	e2149002 	ands	r9, r4, #2
   14f04:	eaffff20 	b	14b8c <_nl_make_l10nflist+0x5c>
   14f08:	e3a0202e 	mov	r2, #46	; 0x2e
   14f0c:	e5c32000 	strb	r2, [r3]
   14f10:	e59d1068 	ldr	r1, [sp, #104]	; 0x68
   14f14:	eb0043e1 	bl	25ea0 <__stpcpy>
   14f18:	e59d2030 	ldr	r2, [sp, #48]	; 0x30
   14f1c:	e3520000 	cmp	r2, #0
   14f20:	e1a03000 	mov	r3, r0
   14f24:	e2800001 	add	r0, r0, #1
   14f28:	0affff4d 	beq	14c64 <_nl_make_l10nflist+0x134>
   14f2c:	e3a0202e 	mov	r2, #46	; 0x2e
   14f30:	e5c32000 	strb	r2, [r3]
   14f34:	e59d106c 	ldr	r1, [sp, #108]	; 0x6c
   14f38:	eb0043d8 	bl	25ea0 <__stpcpy>
   14f3c:	e59d2034 	ldr	r2, [sp, #52]	; 0x34
   14f40:	e3520000 	cmp	r2, #0
   14f44:	e1a03000 	mov	r3, r0
   14f48:	e2800001 	add	r0, r0, #1
   14f4c:	0affff47 	beq	14c70 <_nl_make_l10nflist+0x140>
   14f50:	e3a02040 	mov	r2, #64	; 0x40
   14f54:	e5c32000 	strb	r2, [r3]
   14f58:	e59d1070 	ldr	r1, [sp, #112]	; 0x70
   14f5c:	eb0043cf 	bl	25ea0 <__stpcpy>
   14f60:	e1a03000 	mov	r3, r0
   14f64:	e2800001 	add	r0, r0, #1
   14f68:	eaffff40 	b	14c70 <_nl_make_l10nflist+0x140>
   14f6c:	e3a0305f 	mov	r3, #95	; 0x5f
   14f70:	e4c03001 	strb	r3, [r0], #1
   14f74:	e59d1064 	ldr	r1, [sp, #100]	; 0x64
   14f78:	eb0043c8 	bl	25ea0 <__stpcpy>
   14f7c:	e1a03000 	mov	r3, r0
   14f80:	eaffff30 	b	14c48 <_nl_make_l10nflist+0x118>
   14f84:	e3a00014 	mov	r0, #20
   14f88:	eb003d2d 	bl	24444 <__libc_malloc>
   14f8c:	e2507000 	subs	r7, r0, #0
   14f90:	13a03001 	movne	r3, #1
   14f94:	15875000 	strne	r5, [r7]
   14f98:	1affff82 	bne	14da8 <_nl_make_l10nflist+0x278>
   14f9c:	e1a00005 	mov	r0, r5
   14fa0:	eb003ec5 	bl	24abc <__free>
   14fa4:	e3a07000 	mov	r7, #0
   14fa8:	e1a00007 	mov	r0, r7
   14fac:	e28dd03c 	add	sp, sp, #60	; 0x3c
   14fb0:	e8bd8ff0 	pop	{r4, r5, r6, r7, r8, r9, sl, fp, pc}
   14fb4:	e59d7078 	ldr	r7, [sp, #120]	; 0x78
   14fb8:	e1a00005 	mov	r0, r5
   14fbc:	eb003ebe 	bl	24abc <__free>
   14fc0:	e1a00007 	mov	r0, r7
   14fc4:	e28dd03c 	add	sp, sp, #60	; 0x3c
   14fc8:	e8bd8ff0 	pop	{r4, r5, r6, r7, r8, r9, sl, fp, pc}
   14fcc:	e3a0a000 	mov	sl, #0
   14fd0:	eaffff9c 	b	14e48 <_nl_make_l10nflist+0x318>
   14fd4:	e59da02c 	ldr	sl, [sp, #44]	; 0x2c
   14fd8:	eaffff3c 	b	14cd0 <_nl_make_l10nflist+0x1a0>
   14fdc:	ffffd555 	.word	0xffffd555
   14fe0:	00005555 	.word	0x00005555
   14fe4:	00003333 	.word	0x00003333
   14fe8:	fffff333 	.word	0xfffff333
   14fec:	00000f0f 	.word	0x00000f0f

00014ff0 <_nl_normalize_codeset>:
   14ff0:	e92d47f0 	push	{r4, r5, r6, r7, r8, r9, sl, lr}
   14ff4:	e2517000 	subs	r7, r1, #0
   14ff8:	0a000032 	beq	150c8 <_nl_normalize_codeset+0xd8>
   14ffc:	e59f8118 	ldr	r8, [pc, #280]	; 1511c <_nl_normalize_codeset+0x12c>
   15000:	e2404001 	sub	r4, r0, #1
   15004:	e1a06000 	mov	r6, r0
   15008:	e5985034 	ldr	r5, [r8, #52]	; 0x34
   1500c:	e1a0c004 	mov	ip, r4
   15010:	e0849007 	add	r9, r4, r7
   15014:	e3a0e001 	mov	lr, #1
   15018:	e3a00000 	mov	r0, #0
   1501c:	e5fc2001 	ldrb	r2, [ip, #1]!
   15020:	e2421030 	sub	r1, r2, #48	; 0x30
   15024:	e1a02082 	lsl	r2, r2, #1
   15028:	e19530b2 	ldrh	r3, [r5, r2]
   1502c:	e3130008 	tst	r3, #8
   15030:	0a000002 	beq	15040 <_nl_normalize_codeset+0x50>
   15034:	e351000a 	cmp	r1, #10
   15038:	23a0e000 	movcs	lr, #0
   1503c:	e2800001 	add	r0, r0, #1
   15040:	e159000c 	cmp	r9, ip
   15044:	1afffff4 	bne	1501c <_nl_normalize_codeset+0x2c>
   15048:	e35e0000 	cmp	lr, #0
   1504c:	1a000027 	bne	150f0 <_nl_normalize_codeset+0x100>
   15050:	e2800001 	add	r0, r0, #1
   15054:	eb003cfa 	bl	24444 <__libc_malloc>
   15058:	e2501000 	subs	r1, r0, #0
   1505c:	11a00001 	movne	r0, r1
   15060:	0a000026 	beq	15100 <_nl_normalize_codeset+0x110>
   15064:	e5988038 	ldr	r8, [r8, #56]	; 0x38
   15068:	e1a03004 	mov	r3, r4
   1506c:	ea000007 	b	15090 <_nl_normalize_codeset+0xa0>
   15070:	e798210c 	ldr	r2, [r8, ip, lsl #2]
   15074:	e4ce2001 	strb	r2, [lr], #1
   15078:	e1a0100e 	mov	r1, lr
   1507c:	e2833002 	add	r3, r3, #2
   15080:	e0433006 	sub	r3, r3, r6
   15084:	e1570003 	cmp	r7, r3
   15088:	e1a03004 	mov	r3, r4
   1508c:	9a000014 	bls	150e4 <_nl_normalize_codeset+0xf4>
   15090:	e5d32001 	ldrb	r2, [r3, #1]
   15094:	e1a0e001 	mov	lr, r1
   15098:	e2834001 	add	r4, r3, #1
   1509c:	e242a030 	sub	sl, r2, #48	; 0x30
   150a0:	e6bfc072 	sxth	ip, r2
   150a4:	e1a0908c 	lsl	r9, ip, #1
   150a8:	e19590b9 	ldrh	r9, [r5, r9]
   150ac:	e3190b01 	tst	r9, #1024	; 0x400
   150b0:	1affffee 	bne	15070 <_nl_normalize_codeset+0x80>
   150b4:	e1a0c001 	mov	ip, r1
   150b8:	e35a0009 	cmp	sl, #9
   150bc:	94cc2001 	strbls	r2, [ip], #1
   150c0:	91a0100c 	movls	r1, ip
   150c4:	eaffffec 	b	1507c <_nl_normalize_codeset+0x8c>
   150c8:	e3a00004 	mov	r0, #4
   150cc:	eb003cdc 	bl	24444 <__libc_malloc>
   150d0:	e3500000 	cmp	r0, #0
   150d4:	0a000009 	beq	15100 <_nl_normalize_codeset+0x110>
   150d8:	e59f3040 	ldr	r3, [pc, #64]	; 15120 <_nl_normalize_codeset+0x130>
   150dc:	e1a01000 	mov	r1, r0
   150e0:	e4813003 	str	r3, [r1], #3
   150e4:	e3a03000 	mov	r3, #0
   150e8:	e5c13000 	strb	r3, [r1]
   150ec:	e8bd87f0 	pop	{r4, r5, r6, r7, r8, r9, sl, pc}
   150f0:	e2800004 	add	r0, r0, #4
   150f4:	eb003cd2 	bl	24444 <__libc_malloc>
   150f8:	e3500000 	cmp	r0, #0
   150fc:	1a000001 	bne	15108 <_nl_normalize_codeset+0x118>
   15100:	e3a00000 	mov	r0, #0
   15104:	e8bd87f0 	pop	{r4, r5, r6, r7, r8, r9, sl, pc}
   15108:	e59f3010 	ldr	r3, [pc, #16]	; 15120 <_nl_normalize_codeset+0x130>
   1510c:	e1a01000 	mov	r1, r0
   15110:	e5985034 	ldr	r5, [r8, #52]	; 0x34
   15114:	e4813003 	str	r3, [r1], #3
   15118:	eaffffd1 	b	15064 <_nl_normalize_codeset+0x74>
   1511c:	0007bc54 	.word	0x0007bc54
   15120:	006f7369 	.word	0x006f7369

00015124 <_nl_explode_name>:
   15124:	e92d47f0 	push	{r4, r5, r6, r7, r8, r9, sl, lr}
   15128:	e24dd008 	sub	sp, sp, #8
   1512c:	e3a0c000 	mov	ip, #0
   15130:	e59d5028 	ldr	r5, [sp, #40]	; 0x28
   15134:	e59d602c 	ldr	r6, [sp, #44]	; 0x2c
   15138:	e582c000 	str	ip, [r2]
   1513c:	e583c000 	str	ip, [r3]
   15140:	e585c000 	str	ip, [r5]
   15144:	e586c000 	str	ip, [r6]
   15148:	e5810000 	str	r0, [r1]
   1514c:	e5d01000 	ldrb	r1, [r0]
   15150:	e20180bf 	and	r8, r1, #191	; 0xbf
   15154:	e351005f 	cmp	r1, #95	; 0x5f
   15158:	1158000c 	cmpne	r8, ip
   1515c:	13a08001 	movne	r8, #1
   15160:	03a08000 	moveq	r8, #0
   15164:	0a00001e 	beq	151e4 <_nl_explode_name+0xc0>
   15168:	e351002e 	cmp	r1, #46	; 0x2e
   1516c:	0a00002b 	beq	15220 <_nl_explode_name+0xfc>
   15170:	e1a0e000 	mov	lr, r0
   15174:	e5de1001 	ldrb	r1, [lr, #1]
   15178:	e28e4001 	add	r4, lr, #1
   1517c:	e251c05f 	subs	ip, r1, #95	; 0x5f
   15180:	13a0c001 	movne	ip, #1
   15184:	e3510000 	cmp	r1, #0
   15188:	03a0c000 	moveq	ip, #0
   1518c:	e35c0000 	cmp	ip, #0
   15190:	0a000024 	beq	15228 <_nl_explode_name+0x104>
   15194:	e351002e 	cmp	r1, #46	; 0x2e
   15198:	13510040 	cmpne	r1, #64	; 0x40
   1519c:	13a0c001 	movne	ip, #1
   151a0:	03a0c000 	moveq	ip, #0
   151a4:	e1a0e004 	mov	lr, r4
   151a8:	1afffff1 	bne	15174 <_nl_explode_name+0x50>
   151ac:	e1500004 	cmp	r0, r4
   151b0:	0a00001a 	beq	15220 <_nl_explode_name+0xfc>
   151b4:	e351002e 	cmp	r1, #46	; 0x2e
   151b8:	e1a0800c 	mov	r8, ip
   151bc:	0a00002e 	beq	1527c <_nl_explode_name+0x158>
   151c0:	e3510040 	cmp	r1, #64	; 0x40
   151c4:	1a000006 	bne	151e4 <_nl_explode_name+0xc0>
   151c8:	e1a01004 	mov	r1, r4
   151cc:	e3a00000 	mov	r0, #0
   151d0:	e4c10001 	strb	r0, [r1], #1
   151d4:	e5821000 	str	r1, [r2]
   151d8:	e5d42001 	ldrb	r2, [r4, #1]
   151dc:	e1520000 	cmp	r2, r0
   151e0:	13888008 	orrne	r8, r8, #8
   151e4:	e5933000 	ldr	r3, [r3]
   151e8:	e3530000 	cmp	r3, #0
   151ec:	0a000002 	beq	151fc <_nl_explode_name+0xd8>
   151f0:	e5d33000 	ldrb	r3, [r3]
   151f4:	e3530000 	cmp	r3, #0
   151f8:	03c88004 	biceq	r8, r8, #4
   151fc:	e5953000 	ldr	r3, [r5]
   15200:	e3530000 	cmp	r3, #0
   15204:	0a000002 	beq	15214 <_nl_explode_name+0xf0>
   15208:	e5d33000 	ldrb	r3, [r3]
   1520c:	e3530000 	cmp	r3, #0
   15210:	03c88002 	biceq	r8, r8, #2
   15214:	e1a00008 	mov	r0, r8
   15218:	e28dd008 	add	sp, sp, #8
   1521c:	e8bd87f0 	pop	{r4, r5, r6, r7, r8, r9, sl, pc}
   15220:	e1a0800c 	mov	r8, ip
   15224:	eaffffee 	b	151e4 <_nl_explode_name+0xc0>
   15228:	e1500004 	cmp	r0, r4
   1522c:	0afffffb 	beq	15220 <_nl_explode_name+0xfc>
   15230:	e351005f 	cmp	r1, #95	; 0x5f
   15234:	1affffde 	bne	151b4 <_nl_explode_name+0x90>
   15238:	e28ee002 	add	lr, lr, #2
   1523c:	e5c4c000 	strb	ip, [r4]
   15240:	e583e000 	str	lr, [r3]
   15244:	e5d41001 	ldrb	r1, [r4, #1]
   15248:	e20100bf 	and	r0, r1, #191	; 0xbf
   1524c:	e351002e 	cmp	r1, #46	; 0x2e
   15250:	13500000 	cmpne	r0, #0
   15254:	0a000004 	beq	1526c <_nl_explode_name+0x148>
   15258:	e5fe1001 	ldrb	r1, [lr, #1]!
   1525c:	e20100bf 	and	r0, r1, #191	; 0xbf
   15260:	e351002e 	cmp	r1, #46	; 0x2e
   15264:	13500000 	cmpne	r0, #0
   15268:	1afffffa 	bne	15258 <_nl_explode_name+0x134>
   1526c:	e351002e 	cmp	r1, #46	; 0x2e
   15270:	e1a0400e 	mov	r4, lr
   15274:	e3a08004 	mov	r8, #4
   15278:	1affffd0 	bne	151c0 <_nl_explode_name+0x9c>
   1527c:	e1a00004 	mov	r0, r4
   15280:	e3a01000 	mov	r1, #0
   15284:	e4c01001 	strb	r1, [r0], #1
   15288:	e5850000 	str	r0, [r5]
   1528c:	e5d41001 	ldrb	r1, [r4, #1]
   15290:	e3889002 	orr	r9, r8, #2
   15294:	e31100bf 	tst	r1, #191	; 0xbf
   15298:	0a000020 	beq	15320 <_nl_explode_name+0x1fc>
   1529c:	e1a07000 	mov	r7, r0
   152a0:	ea000000 	b	152a8 <_nl_explode_name+0x184>
   152a4:	e1a07004 	mov	r7, r4
   152a8:	e5d7c001 	ldrb	ip, [r7, #1]
   152ac:	e2874001 	add	r4, r7, #1
   152b0:	e31c00bf 	tst	ip, #191	; 0xbf
   152b4:	1afffffa 	bne	152a4 <_nl_explode_name+0x180>
   152b8:	e1500004 	cmp	r0, r4
   152bc:	0a00000f 	beq	15300 <_nl_explode_name+0x1dc>
   152c0:	e0441000 	sub	r1, r4, r0
   152c4:	e1cd20f0 	strd	r2, [sp]
   152c8:	ebffff48 	bl	14ff0 <_nl_normalize_codeset>
   152cc:	e3500000 	cmp	r0, #0
   152d0:	e1a0a000 	mov	sl, r0
   152d4:	e5860000 	str	r0, [r6]
   152d8:	0a000013 	beq	1532c <_nl_explode_name+0x208>
   152dc:	e1a01000 	mov	r1, r0
   152e0:	e5950000 	ldr	r0, [r5]
   152e4:	eb0042e0 	bl	25e6c <strcmp>
   152e8:	e1cd20d0 	ldrd	r2, [sp]
   152ec:	e3500000 	cmp	r0, #0
   152f0:	0a000004 	beq	15308 <_nl_explode_name+0x1e4>
   152f4:	e3888003 	orr	r8, r8, #3
   152f8:	e5d71001 	ldrb	r1, [r7, #1]
   152fc:	eaffffaf 	b	151c0 <_nl_explode_name+0x9c>
   15300:	e1a08009 	mov	r8, r9
   15304:	eaffffad 	b	151c0 <_nl_explode_name+0x9c>
   15308:	e1a0000a 	mov	r0, sl
   1530c:	eb003dea 	bl	24abc <__free>
   15310:	e1a08009 	mov	r8, r9
   15314:	e5d71001 	ldrb	r1, [r7, #1]
   15318:	e1cd20d0 	ldrd	r2, [sp]
   1531c:	eaffffa7 	b	151c0 <_nl_explode_name+0x9c>
   15320:	e1a08009 	mov	r8, r9
   15324:	e1a04000 	mov	r4, r0
   15328:	eaffffa4 	b	151c0 <_nl_explode_name+0x9c>
   1532c:	e3e08000 	mvn	r8, #0
   15330:	eaffffb7 	b	15214 <_nl_explode_name+0xf0>

00015334 <__gettext_free_exp>:
   15334:	e92d4010 	push	{r4, lr}
   15338:	e2504000 	subs	r4, r0, #0
   1533c:	08bd8010 	popeq	{r4, pc}
   15340:	e5943000 	ldr	r3, [r4]
   15344:	e3530002 	cmp	r3, #2
   15348:	0a000008 	beq	15370 <__gettext_free_exp+0x3c>
   1534c:	e3530003 	cmp	r3, #3
   15350:	0a000004 	beq	15368 <__gettext_free_exp+0x34>
   15354:	e3530001 	cmp	r3, #1
   15358:	0a000006 	beq	15378 <__gettext_free_exp+0x44>
   1535c:	e1a00004 	mov	r0, r4
   15360:	e8bd4010 	pop	{r4, lr}
   15364:	ea003dd4 	b	24abc <__free>
   15368:	e5940010 	ldr	r0, [r4, #16]
   1536c:	ebfffff0 	bl	15334 <__gettext_free_exp>
   15370:	e594000c 	ldr	r0, [r4, #12]
   15374:	ebffffee 	bl	15334 <__gettext_free_exp>
   15378:	e5940008 	ldr	r0, [r4, #8]
   1537c:	ebffffec 	bl	15334 <__gettext_free_exp>
   15380:	e1a00004 	mov	r0, r4
   15384:	e8bd4010 	pop	{r4, lr}
   15388:	ea003dcb 	b	24abc <__free>

0001538c <new_exp>:
   1538c:	e2403001 	sub	r3, r0, #1
   15390:	e3730001 	cmn	r3, #1
   15394:	e92d41f0 	push	{r4, r5, r6, r7, r8, lr}
   15398:	e1a08001 	mov	r8, r1
   1539c:	0a000023 	beq	15430 <new_exp+0xa4>
   153a0:	e7926103 	ldr	r6, [r2, r3, lsl #2]
   153a4:	e1a04000 	mov	r4, r0
   153a8:	e3560000 	cmp	r6, #0
   153ac:	e1a05002 	mov	r5, r2
   153b0:	e1a07103 	lsl	r7, r3, #2
   153b4:	1a000003 	bne	153c8 <new_exp+0x3c>
   153b8:	ea000012 	b	15408 <new_exp+0x7c>
   153bc:	e7952103 	ldr	r2, [r5, r3, lsl #2]
   153c0:	e3520000 	cmp	r2, #0
   153c4:	0a00000f 	beq	15408 <new_exp+0x7c>
   153c8:	e2533001 	subs	r3, r3, #1
   153cc:	2afffffa 	bcs	153bc <new_exp+0x30>
   153d0:	e3a00014 	mov	r0, #20
   153d4:	eb003c1a 	bl	24444 <__libc_malloc>
   153d8:	e3500000 	cmp	r0, #0
   153dc:	0a000009 	beq	15408 <new_exp+0x7c>
   153e0:	e2873008 	add	r3, r7, #8
   153e4:	e0855007 	add	r5, r5, r7
   153e8:	e0803003 	add	r3, r0, r3
   153ec:	e2802004 	add	r2, r0, #4
   153f0:	e8800110 	stm	r0, {r4, r8}
   153f4:	e4036004 	str	r6, [r3], #-4
   153f8:	e1520003 	cmp	r2, r3
   153fc:	08bd81f0 	popeq	{r4, r5, r6, r7, r8, pc}
   15400:	e5356004 	ldr	r6, [r5, #-4]!
   15404:	eafffffa 	b	153f4 <new_exp+0x68>
   15408:	e2444107 	sub	r4, r4, #-1073741823	; 0xc0000001
   1540c:	e0854104 	add	r4, r5, r4, lsl #2
   15410:	ea000000 	b	15418 <new_exp+0x8c>
   15414:	e5346004 	ldr	r6, [r4, #-4]!
   15418:	e1a00006 	mov	r0, r6
   1541c:	ebffffc4 	bl	15334 <__gettext_free_exp>
   15420:	e1540005 	cmp	r4, r5
   15424:	1afffffa 	bne	15414 <new_exp+0x88>
   15428:	e3a00000 	mov	r0, #0
   1542c:	e8bd81f0 	pop	{r4, r5, r6, r7, r8, pc}
   15430:	e3a00014 	mov	r0, #20
   15434:	eb003c02 	bl	24444 <__libc_malloc>
   15438:	e3500000 	cmp	r0, #0
   1543c:	0afffff9 	beq	15428 <new_exp+0x9c>
   15440:	e3a03000 	mov	r3, #0
   15444:	e8800108 	stm	r0, {r3, r8}
   15448:	e8bd81f0 	pop	{r4, r5, r6, r7, r8, pc}

0001544c <__gettextparse>:
   1544c:	e92d4ff0 	push	{r4, r5, r6, r7, r8, r9, sl, fp, lr}
   15450:	e24dde4e 	sub	sp, sp, #1248	; 0x4e0
   15454:	e59f2908 	ldr	r2, [pc, #2312]	; 15d64 <__gettextparse+0x918>
   15458:	e24dd004 	sub	sp, sp, #4
   1545c:	e28d102c 	add	r1, sp, #44	; 0x2c
   15460:	e59f7900 	ldr	r7, [pc, #2304]	; 15d68 <__gettextparse+0x91c>
   15464:	e3a03000 	mov	r3, #0
   15468:	e5922000 	ldr	r2, [r2]
   1546c:	e1a04001 	mov	r4, r1
   15470:	e1a08001 	mov	r8, r1
   15474:	e3e0b001 	mvn	fp, #1
   15478:	e1a05003 	mov	r5, r3
   1547c:	e58d3014 	str	r3, [sp, #20]
   15480:	e28d6f6f 	add	r6, sp, #444	; 0x1bc
   15484:	e1cd32bc 	strh	r3, [sp, #44]	; 0x2c
   15488:	e3a030c8 	mov	r3, #200	; 0xc8
   1548c:	e58d1010 	str	r1, [sp, #16]
   15490:	e58d0018 	str	r0, [sp, #24]
   15494:	e58d24dc 	str	r2, [sp, #1244]	; 0x4dc
   15498:	e58d600c 	str	r6, [sp, #12]
   1549c:	e58d3004 	str	r3, [sp, #4]
   154a0:	e19710d5 	ldrsb	r1, [r7, r5]
   154a4:	e371000a 	cmn	r1, #10
   154a8:	0a000055 	beq	15604 <__gettextparse+0x1b8>
   154ac:	e37b0002 	cmn	fp, #2
   154b0:	0a0000ba 	beq	157a0 <__gettextparse+0x354>
   154b4:	e35b0000 	cmp	fp, #0
   154b8:	da000094 	ble	15710 <__gettextparse+0x2c4>
   154bc:	e087200b 	add	r2, r7, fp
   154c0:	e5d220d0 	ldrb	r2, [r2, #208]	; 0xd0
   154c4:	e0811002 	add	r1, r1, r2
   154c8:	e3510036 	cmp	r1, #54	; 0x36
   154cc:	8a00004c 	bhi	15604 <__gettextparse+0x1b8>
   154d0:	e0871001 	add	r1, r7, r1
   154d4:	e1d101dc 	ldrsb	r0, [r1, #28]
   154d8:	e1500002 	cmp	r0, r2
   154dc:	1a000048 	bne	15604 <__gettextparse+0x1b8>
   154e0:	e5d15054 	ldrb	r5, [r1, #84]	; 0x54
   154e4:	e3550000 	cmp	r5, #0
   154e8:	0a0000a7 	beq	1578c <__gettextparse+0x340>
   154ec:	e59d3014 	ldr	r3, [sp, #20]
   154f0:	e1a01004 	mov	r1, r4
   154f4:	e3530000 	cmp	r3, #0
   154f8:	12433001 	subne	r3, r3, #1
   154fc:	158d3014 	strne	r3, [sp, #20]
   15500:	e59d301c 	ldr	r3, [sp, #28]
   15504:	e2866004 	add	r6, r6, #4
   15508:	e5863000 	str	r3, [r6]
   1550c:	e3e0b001 	mvn	fp, #1
   15510:	e59d3004 	ldr	r3, [sp, #4]
   15514:	e2814002 	add	r4, r1, #2
   15518:	e2432106 	sub	r2, r3, #-2147483647	; 0x80000001
   1551c:	e1c150b2 	strh	r5, [r1, #2]
   15520:	e1a02082 	lsl	r2, r2, #1
   15524:	e0880002 	add	r0, r8, r2
   15528:	e1540000 	cmp	r4, r0
   1552c:	3a00002f 	bcc	155f0 <__gettextparse+0x1a4>
   15530:	e0446008 	sub	r6, r4, r8
   15534:	e59f1830 	ldr	r1, [pc, #2096]	; 15d6c <__gettextparse+0x920>
   15538:	e1a060c6 	asr	r6, r6, #1
   1553c:	e1530001 	cmp	r3, r1
   15540:	e2866001 	add	r6, r6, #1
   15544:	8a000179 	bhi	15b30 <__gettextparse+0x6e4>
   15548:	e2811001 	add	r1, r1, #1
   1554c:	e2822002 	add	r2, r2, #2
   15550:	e1520001 	cmp	r2, r1
   15554:	31a03002 	movcc	r3, r2
   15558:	21a03001 	movcs	r3, r1
   1555c:	e58d3004 	str	r3, [sp, #4]
   15560:	e1a09083 	lsl	r9, r3, #1
   15564:	e0890003 	add	r0, r9, r3
   15568:	e1a00080 	lsl	r0, r0, #1
   1556c:	e2800003 	add	r0, r0, #3
   15570:	eb003bb3 	bl	24444 <__libc_malloc>
   15574:	e2503000 	subs	r3, r0, #0
   15578:	e58d3008 	str	r3, [sp, #8]
   1557c:	0a00016b 	beq	15b30 <__gettextparse+0x6e4>
   15580:	e1a04086 	lsl	r4, r6, #1
   15584:	e1a02004 	mov	r2, r4
   15588:	e1a01008 	mov	r1, r8
   1558c:	eb00487b 	bl	27780 <memcpy>
   15590:	e289a003 	add	sl, r9, #3
   15594:	e59d3008 	ldr	r3, [sp, #8]
   15598:	e3caa003 	bic	sl, sl, #3
   1559c:	e083a00a 	add	sl, r3, sl
   155a0:	e1a06106 	lsl	r6, r6, #2
   155a4:	e59d100c 	ldr	r1, [sp, #12]
   155a8:	e1a0000a 	mov	r0, sl
   155ac:	e1a02006 	mov	r2, r6
   155b0:	eb004872 	bl	27780 <memcpy>
   155b4:	e59d3010 	ldr	r3, [sp, #16]
   155b8:	e1580003 	cmp	r8, r3
   155bc:	0a000001 	beq	155c8 <__gettextparse+0x17c>
   155c0:	e1a00008 	mov	r0, r8
   155c4:	eb003d3c 	bl	24abc <__free>
   155c8:	e59d8008 	ldr	r8, [sp, #8]
   155cc:	e2444002 	sub	r4, r4, #2
   155d0:	e2499002 	sub	r9, r9, #2
   155d4:	e0884004 	add	r4, r8, r4
   155d8:	e0889009 	add	r9, r8, r9
   155dc:	e2466004 	sub	r6, r6, #4
   155e0:	e1540009 	cmp	r4, r9
   155e4:	e08a6006 	add	r6, sl, r6
   155e8:	2a0001c0 	bcs	15cf0 <__gettextparse+0x8a4>
   155ec:	e58da00c 	str	sl, [sp, #12]
   155f0:	e3550009 	cmp	r5, #9
   155f4:	1affffa9 	bne	154a0 <__gettextparse+0x54>
   155f8:	e1a04008 	mov	r4, r8
   155fc:	e3a05000 	mov	r5, #0
   15600:	ea000020 	b	15688 <__gettextparse+0x23c>
   15604:	e0872005 	add	r2, r7, r5
   15608:	e5d2208c 	ldrb	r2, [r2, #140]	; 0x8c
   1560c:	e3520000 	cmp	r2, #0
   15610:	1a00002a 	bne	156c0 <__gettextparse+0x274>
   15614:	e59d3014 	ldr	r3, [sp, #20]
   15618:	e3530003 	cmp	r3, #3
   1561c:	1a00000c 	bne	15654 <__gettextparse+0x208>
   15620:	e35b0000 	cmp	fp, #0
   15624:	ca000056 	bgt	15784 <__gettextparse+0x338>
   15628:	1a000009 	bne	15654 <__gettextparse+0x208>
   1562c:	e1a04008 	mov	r4, r8
   15630:	e3a05001 	mov	r5, #1
   15634:	ea000013 	b	15688 <__gettextparse+0x23c>
   15638:	e5d35054 	ldrb	r5, [r3, #84]	; 0x54
   1563c:	e3550000 	cmp	r5, #0
   15640:	1a0000e9 	bne	159ec <__gettextparse+0x5a0>
   15644:	e1540008 	cmp	r4, r8
   15648:	0a00000d 	beq	15684 <__gettextparse+0x238>
   1564c:	e17450f2 	ldrsh	r5, [r4, #-2]!
   15650:	e2466004 	sub	r6, r6, #4
   15654:	e19730d5 	ldrsb	r3, [r7, r5]
   15658:	e373000a 	cmn	r3, #10
   1565c:	0afffff8 	beq	15644 <__gettextparse+0x1f8>
   15660:	e2833001 	add	r3, r3, #1
   15664:	e3530036 	cmp	r3, #54	; 0x36
   15668:	8afffff5 	bhi	15644 <__gettextparse+0x1f8>
   1566c:	e0873003 	add	r3, r7, r3
   15670:	e1d321dc 	ldrsb	r2, [r3, #28]
   15674:	e3520001 	cmp	r2, #1
   15678:	0affffee 	beq	15638 <__gettextparse+0x1ec>
   1567c:	e1540008 	cmp	r4, r8
   15680:	1afffff1 	bne	1564c <__gettextparse+0x200>
   15684:	e3a05001 	mov	r5, #1
   15688:	e59d3010 	ldr	r3, [sp, #16]
   1568c:	e1540003 	cmp	r4, r3
   15690:	0a000001 	beq	1569c <__gettextparse+0x250>
   15694:	e1a00004 	mov	r0, r4
   15698:	eb003d07 	bl	24abc <__free>
   1569c:	e59f36c0 	ldr	r3, [pc, #1728]	; 15d64 <__gettextparse+0x918>
   156a0:	e59d24dc 	ldr	r2, [sp, #1244]	; 0x4dc
   156a4:	e1a00005 	mov	r0, r5
   156a8:	e5933000 	ldr	r3, [r3]
   156ac:	e1520003 	cmp	r2, r3
   156b0:	1a0001a1 	bne	15d3c <__gettextparse+0x8f0>
   156b4:	e28dde4e 	add	sp, sp, #1248	; 0x4e0
   156b8:	e28dd004 	add	sp, sp, #4
   156bc:	e8bd8ff0 	pop	{r4, r5, r6, r7, r8, r9, sl, fp, pc}
   156c0:	e0870002 	add	r0, r7, r2
   156c4:	e2421002 	sub	r1, r2, #2
   156c8:	e5d0c0a8 	ldrb	ip, [r0, #168]	; 0xa8
   156cc:	e26c0001 	rsb	r0, ip, #1
   156d0:	e7960100 	ldr	r0, [r6, r0, lsl #2]
   156d4:	e351000b 	cmp	r1, #11
   156d8:	979ff101 	ldrls	pc, [pc, r1, lsl #2]
   156dc:	ea000197 	b	15d40 <__gettextparse+0x8f4>
   156e0:	00015adc 	.word	0x00015adc
   156e4:	00015a08 	.word	0x00015a08
   156e8:	00015a44 	.word	0x00015a44
   156ec:	00015a58 	.word	0x00015a58
   156f0:	0001571c 	.word	0x0001571c
   156f4:	0001571c 	.word	0x0001571c
   156f8:	0001571c 	.word	0x0001571c
   156fc:	0001571c 	.word	0x0001571c
   15700:	00015b04 	.word	0x00015b04
   15704:	00015ab8 	.word	0x00015ab8
   15708:	00015a84 	.word	0x00015a84
   1570c:	00015a6c 	.word	0x00015a6c
   15710:	e3a0b000 	mov	fp, #0
   15714:	e1a0200b 	mov	r2, fp
   15718:	eaffff6a 	b	154c8 <__gettextparse+0x7c>
   1571c:	e5960000 	ldr	r0, [r6]
   15720:	e516c008 	ldr	ip, [r6, #-8]
   15724:	e5161004 	ldr	r1, [r6, #-4]
   15728:	e28d2020 	add	r2, sp, #32
   1572c:	e58d0024 	str	r0, [sp, #36]	; 0x24
   15730:	e3a00002 	mov	r0, #2
   15734:	e58dc020 	str	ip, [sp, #32]
   15738:	e246900c 	sub	r9, r6, #12
   1573c:	ebffff12 	bl	1538c <new_exp>
   15740:	e3e05000 	mvn	r5, #0
   15744:	e2441006 	sub	r1, r4, #6
   15748:	e3a02002 	mov	r2, #2
   1574c:	e1d1c0f0 	ldrsh	ip, [r1]
   15750:	e2896004 	add	r6, r9, #4
   15754:	e5890004 	str	r0, [r9, #4]
   15758:	e08c5005 	add	r5, ip, r5
   1575c:	e3550036 	cmp	r5, #54	; 0x36
   15760:	8a000004 	bhi	15778 <__gettextparse+0x32c>
   15764:	e0875005 	add	r5, r7, r5
   15768:	e1d501dc 	ldrsb	r0, [r5, #28]
   1576c:	e150000c 	cmp	r0, ip
   15770:	05d55054 	ldrbeq	r5, [r5, #84]	; 0x54
   15774:	0affff65 	beq	15510 <__gettextparse+0xc4>
   15778:	e0872002 	add	r2, r7, r2
   1577c:	e1d25cdc 	ldrsb	r5, [r2, #204]	; 0xcc
   15780:	eaffff62 	b	15510 <__gettextparse+0xc4>
   15784:	e3e0b001 	mvn	fp, #1
   15788:	eaffffb1 	b	15654 <__gettextparse+0x208>
   1578c:	e1a01004 	mov	r1, r4
   15790:	e5960004 	ldr	r0, [r6, #4]
   15794:	e1a09006 	mov	r9, r6
   15798:	e3e0200f 	mvn	r2, #15
   1579c:	eaffffea 	b	1574c <__gettextparse+0x300>
   157a0:	e59d3018 	ldr	r3, [sp, #24]
   157a4:	e5930000 	ldr	r0, [r3]
   157a8:	e5d02000 	ldrb	r2, [r0]
   157ac:	e3520000 	cmp	r2, #0
   157b0:	1a000003 	bne	157c4 <__gettextparse+0x378>
   157b4:	ea000087 	b	159d8 <__gettextparse+0x58c>
   157b8:	e5f02001 	ldrb	r2, [r0, #1]!
   157bc:	e3520000 	cmp	r2, #0
   157c0:	0a000084 	beq	159d8 <__gettextparse+0x58c>
   157c4:	e3520020 	cmp	r2, #32
   157c8:	13520009 	cmpne	r2, #9
   157cc:	0afffff9 	beq	157b8 <__gettextparse+0x36c>
   157d0:	e280c001 	add	ip, r0, #1
   157d4:	e1a0b002 	mov	fp, r2
   157d8:	e352007c 	cmp	r2, #124	; 0x7c
   157dc:	979ff102 	ldrls	pc, [pc, r2, lsl #2]
   157e0:	ea000108 	b	15c08 <__gettextparse+0x7bc>
   157e4:	000159d8 	.word	0x000159d8
   157e8:	00015c08 	.word	0x00015c08
   157ec:	00015c08 	.word	0x00015c08
   157f0:	00015c08 	.word	0x00015c08
   157f4:	00015c08 	.word	0x00015c08
   157f8:	00015c08 	.word	0x00015c08
   157fc:	00015c08 	.word	0x00015c08
   15800:	00015c08 	.word	0x00015c08
   15804:	00015c08 	.word	0x00015c08
   15808:	00015c08 	.word	0x00015c08
   1580c:	000159d8 	.word	0x000159d8
   15810:	00015c08 	.word	0x00015c08
   15814:	00015c08 	.word	0x00015c08
   15818:	00015c08 	.word	0x00015c08
   1581c:	00015c08 	.word	0x00015c08
   15820:	00015c08 	.word	0x00015c08
   15824:	00015c08 	.word	0x00015c08
   15828:	00015c08 	.word	0x00015c08
   1582c:	00015c08 	.word	0x00015c08
   15830:	00015c08 	.word	0x00015c08
   15834:	00015c08 	.word	0x00015c08
   15838:	00015c08 	.word	0x00015c08
   1583c:	00015c08 	.word	0x00015c08
   15840:	00015c08 	.word	0x00015c08
   15844:	00015c08 	.word	0x00015c08
   15848:	00015c08 	.word	0x00015c08
   1584c:	00015c08 	.word	0x00015c08
   15850:	00015c08 	.word	0x00015c08
   15854:	00015c08 	.word	0x00015c08
   15858:	00015c08 	.word	0x00015c08
   1585c:	00015c08 	.word	0x00015c08
   15860:	00015c08 	.word	0x00015c08
   15864:	00015c08 	.word	0x00015c08
   15868:	00015c70 	.word	0x00015c70
   1586c:	00015c08 	.word	0x00015c08
   15870:	00015c08 	.word	0x00015c08
   15874:	00015c08 	.word	0x00015c08
   15878:	00015c90 	.word	0x00015c90
   1587c:	00015b3c 	.word	0x00015b3c
   15880:	00015c08 	.word	0x00015c08
   15884:	00015b4c 	.word	0x00015b4c
   15888:	00015b4c 	.word	0x00015b4c
   1588c:	00015c54 	.word	0x00015c54
   15890:	00015c1c 	.word	0x00015c1c
   15894:	00015c08 	.word	0x00015c08
   15898:	00015c38 	.word	0x00015c38
   1589c:	00015c08 	.word	0x00015c08
   158a0:	00015b58 	.word	0x00015b58
   158a4:	00015b74 	.word	0x00015b74
   158a8:	00015b74 	.word	0x00015b74
   158ac:	00015b74 	.word	0x00015b74
   158b0:	00015b74 	.word	0x00015b74
   158b4:	00015b74 	.word	0x00015b74
   158b8:	00015b74 	.word	0x00015b74
   158bc:	00015b74 	.word	0x00015b74
   158c0:	00015b74 	.word	0x00015b74
   158c4:	00015b74 	.word	0x00015b74
   158c8:	00015b74 	.word	0x00015b74
   158cc:	00015b4c 	.word	0x00015b4c
   158d0:	000159d8 	.word	0x000159d8
   158d4:	00015bc4 	.word	0x00015bc4
   158d8:	00015bfc 	.word	0x00015bfc
   158dc:	00015cac 	.word	0x00015cac
   158e0:	00015b4c 	.word	0x00015b4c
   158e4:	00015c08 	.word	0x00015c08
   158e8:	00015c08 	.word	0x00015c08
   158ec:	00015c08 	.word	0x00015c08
   158f0:	00015c08 	.word	0x00015c08
   158f4:	00015c08 	.word	0x00015c08
   158f8:	00015c08 	.word	0x00015c08
   158fc:	00015c08 	.word	0x00015c08
   15900:	00015c08 	.word	0x00015c08
   15904:	00015c08 	.word	0x00015c08
   15908:	00015c08 	.word	0x00015c08
   1590c:	00015c08 	.word	0x00015c08
   15910:	00015c08 	.word	0x00015c08
   15914:	00015c08 	.word	0x00015c08
   15918:	00015c08 	.word	0x00015c08
   1591c:	00015c08 	.word	0x00015c08
   15920:	00015c08 	.word	0x00015c08
   15924:	00015c08 	.word	0x00015c08
   15928:	00015c08 	.word	0x00015c08
   1592c:	00015c08 	.word	0x00015c08
   15930:	00015c08 	.word	0x00015c08
   15934:	00015c08 	.word	0x00015c08
   15938:	00015c08 	.word	0x00015c08
   1593c:	00015c08 	.word	0x00015c08
   15940:	00015c08 	.word	0x00015c08
   15944:	00015c08 	.word	0x00015c08
   15948:	00015c08 	.word	0x00015c08
   1594c:	00015c08 	.word	0x00015c08
   15950:	00015c08 	.word	0x00015c08
   15954:	00015c08 	.word	0x00015c08
   15958:	00015c08 	.word	0x00015c08
   1595c:	00015c08 	.word	0x00015c08
   15960:	00015c08 	.word	0x00015c08
   15964:	00015c08 	.word	0x00015c08
   15968:	00015c08 	.word	0x00015c08
   1596c:	00015c08 	.word	0x00015c08
   15970:	00015c08 	.word	0x00015c08
   15974:	00015c08 	.word	0x00015c08
   15978:	00015c08 	.word	0x00015c08
   1597c:	00015c08 	.word	0x00015c08
   15980:	00015c08 	.word	0x00015c08
   15984:	00015c08 	.word	0x00015c08
   15988:	00015c08 	.word	0x00015c08
   1598c:	00015c08 	.word	0x00015c08
   15990:	00015c08 	.word	0x00015c08
   15994:	00015c08 	.word	0x00015c08
   15998:	00015c08 	.word	0x00015c08
   1599c:	00015b4c 	.word	0x00015b4c
   159a0:	00015c08 	.word	0x00015c08
   159a4:	00015c08 	.word	0x00015c08
   159a8:	00015c08 	.word	0x00015c08
   159ac:	00015c08 	.word	0x00015c08
   159b0:	00015c08 	.word	0x00015c08
   159b4:	00015c08 	.word	0x00015c08
   159b8:	00015c08 	.word	0x00015c08
   159bc:	00015c08 	.word	0x00015c08
   159c0:	00015c08 	.word	0x00015c08
   159c4:	00015c08 	.word	0x00015c08
   159c8:	00015c08 	.word	0x00015c08
   159cc:	00015c08 	.word	0x00015c08
   159d0:	00015c08 	.word	0x00015c08
   159d4:	00015b3c 	.word	0x00015b3c
   159d8:	e59d3018 	ldr	r3, [sp, #24]
   159dc:	e3a02000 	mov	r2, #0
   159e0:	e1a0b002 	mov	fp, r2
   159e4:	e5830000 	str	r0, [r3]
   159e8:	eafffeb6 	b	154c8 <__gettextparse+0x7c>
   159ec:	e59d301c 	ldr	r3, [sp, #28]
   159f0:	e1a01004 	mov	r1, r4
   159f4:	e5863004 	str	r3, [r6, #4]
   159f8:	e3a03003 	mov	r3, #3
   159fc:	e2866004 	add	r6, r6, #4
   15a00:	e58d3014 	str	r3, [sp, #20]
   15a04:	eafffec1 	b	15510 <__gettextparse+0xc4>
   15a08:	e5161008 	ldr	r1, [r6, #-8]
   15a0c:	e5960000 	ldr	r0, [r6]
   15a10:	e516c010 	ldr	ip, [r6, #-16]
   15a14:	e28d2020 	add	r2, sp, #32
   15a18:	e58d1024 	str	r1, [sp, #36]	; 0x24
   15a1c:	e58d0028 	str	r0, [sp, #40]	; 0x28
   15a20:	e3a01010 	mov	r1, #16
   15a24:	e3a00003 	mov	r0, #3
   15a28:	e58dc020 	str	ip, [sp, #32]
   15a2c:	e2469014 	sub	r9, r6, #20
   15a30:	ebfffe55 	bl	1538c <new_exp>
   15a34:	e3e05000 	mvn	r5, #0
   15a38:	e244100a 	sub	r1, r4, #10
   15a3c:	e3a02002 	mov	r2, #2
   15a40:	eaffff41 	b	1574c <__gettextparse+0x300>
   15a44:	e5960000 	ldr	r0, [r6]
   15a48:	e516c008 	ldr	ip, [r6, #-8]
   15a4c:	e28d2020 	add	r2, sp, #32
   15a50:	e3a0100f 	mov	r1, #15
   15a54:	eaffff34 	b	1572c <__gettextparse+0x2e0>
   15a58:	e5960000 	ldr	r0, [r6]
   15a5c:	e516c008 	ldr	ip, [r6, #-8]
   15a60:	e28d2020 	add	r2, sp, #32
   15a64:	e3a0100e 	mov	r1, #14
   15a68:	eaffff2f 	b	1572c <__gettextparse+0x2e0>
   15a6c:	e2441006 	sub	r1, r4, #6
   15a70:	e5160004 	ldr	r0, [r6, #-4]
   15a74:	e246900c 	sub	r9, r6, #12
   15a78:	e3a02002 	mov	r2, #2
   15a7c:	e3e05000 	mvn	r5, #0
   15a80:	eaffff31 	b	1574c <__gettextparse+0x300>
   15a84:	e3a02000 	mov	r2, #0
   15a88:	e3a01001 	mov	r1, #1
   15a8c:	e1a00002 	mov	r0, r2
   15a90:	ebfffe3d 	bl	1538c <new_exp>
   15a94:	e2469004 	sub	r9, r6, #4
   15a98:	e2441002 	sub	r1, r4, #2
   15a9c:	e3500000 	cmp	r0, #0
   15aa0:	0a00008f 	beq	15ce4 <__gettextparse+0x898>
   15aa4:	e596c000 	ldr	ip, [r6]
   15aa8:	e3a02002 	mov	r2, #2
   15aac:	e580c008 	str	ip, [r0, #8]
   15ab0:	e3e05000 	mvn	r5, #0
   15ab4:	eaffff24 	b	1574c <__gettextparse+0x300>
   15ab8:	e3a02000 	mov	r2, #0
   15abc:	e1a01002 	mov	r1, r2
   15ac0:	e1a00002 	mov	r0, r2
   15ac4:	ebfffe30 	bl	1538c <new_exp>
   15ac8:	e2469004 	sub	r9, r6, #4
   15acc:	e2441002 	sub	r1, r4, #2
   15ad0:	e3a02002 	mov	r2, #2
   15ad4:	e3e05000 	mvn	r5, #0
   15ad8:	eaffff1b 	b	1574c <__gettextparse+0x300>
   15adc:	e5962000 	ldr	r2, [r6]
   15ae0:	e3520000 	cmp	r2, #0
   15ae4:	0afffed0 	beq	1562c <__gettextparse+0x1e0>
   15ae8:	e59d3018 	ldr	r3, [sp, #24]
   15aec:	e2469004 	sub	r9, r6, #4
   15af0:	e2441002 	sub	r1, r4, #2
   15af4:	e5832004 	str	r2, [r3, #4]
   15af8:	e3e05009 	mvn	r5, #9
   15afc:	e3a02001 	mov	r2, #1
   15b00:	eaffff11 	b	1574c <__gettextparse+0x300>
   15b04:	e1a09006 	mov	r9, r6
   15b08:	e28d2020 	add	r2, sp, #32
   15b0c:	e419c008 	ldr	ip, [r9], #-8
   15b10:	e3a01002 	mov	r1, #2
   15b14:	e3a00001 	mov	r0, #1
   15b18:	e58dc020 	str	ip, [sp, #32]
   15b1c:	e3e05000 	mvn	r5, #0
   15b20:	ebfffe19 	bl	1538c <new_exp>
   15b24:	e2441004 	sub	r1, r4, #4
   15b28:	e3a02002 	mov	r2, #2
   15b2c:	eaffff06 	b	1574c <__gettextparse+0x300>
   15b30:	e1a04008 	mov	r4, r8
   15b34:	e3a05002 	mov	r5, #2
   15b38:	eafffed2 	b	15688 <__gettextparse+0x23c>
   15b3c:	e5d0e001 	ldrb	lr, [r0, #1]
   15b40:	e15e0002 	cmp	lr, r2
   15b44:	0280c002 	addeq	ip, r0, #2
   15b48:	1a00002e 	bne	15c08 <__gettextparse+0x7bc>
   15b4c:	e59d3018 	ldr	r3, [sp, #24]
   15b50:	e583c000 	str	ip, [r3]
   15b54:	eafffe56 	b	154b4 <__gettextparse+0x68>
   15b58:	e59d3018 	ldr	r3, [sp, #24]
   15b5c:	e3a02009 	mov	r2, #9
   15b60:	e59fb208 	ldr	fp, [pc, #520]	; 15d70 <__gettextparse+0x924>
   15b64:	e583c000 	str	ip, [r3]
   15b68:	e3a03004 	mov	r3, #4
   15b6c:	e58d301c 	str	r3, [sp, #28]
   15b70:	eafffe53 	b	154c4 <__gettextparse+0x78>
   15b74:	e5d00001 	ldrb	r0, [r0, #1]
   15b78:	e2422030 	sub	r2, r2, #48	; 0x30
   15b7c:	e58d201c 	str	r2, [sp, #28]
   15b80:	e2403030 	sub	r3, r0, #48	; 0x30
   15b84:	e3530009 	cmp	r3, #9
   15b88:	8a000008 	bhi	15bb0 <__gettextparse+0x764>
   15b8c:	e1a03002 	mov	r3, r2
   15b90:	e0833103 	add	r3, r3, r3, lsl #2
   15b94:	e0803083 	add	r3, r0, r3, lsl #1
   15b98:	e5fc0001 	ldrb	r0, [ip, #1]!
   15b9c:	e2433030 	sub	r3, r3, #48	; 0x30
   15ba0:	e2402030 	sub	r2, r0, #48	; 0x30
   15ba4:	e3520009 	cmp	r2, #9
   15ba8:	9afffff8 	bls	15b90 <__gettextparse+0x744>
   15bac:	e58d301c 	str	r3, [sp, #28]
   15bb0:	e59d3018 	ldr	r3, [sp, #24]
   15bb4:	e3a0200b 	mov	r2, #11
   15bb8:	e59fb1b4 	ldr	fp, [pc, #436]	; 15d74 <__gettextparse+0x928>
   15bbc:	e583c000 	str	ip, [r3]
   15bc0:	eafffe3f 	b	154c4 <__gettextparse+0x78>
   15bc4:	e5d03001 	ldrb	r3, [r0, #1]
   15bc8:	e59fb1a8 	ldr	fp, [pc, #424]	; 15d78 <__gettextparse+0x92c>
   15bcc:	e353003d 	cmp	r3, #61	; 0x3d
   15bd0:	02800002 	addeq	r0, r0, #2
   15bd4:	059d3018 	ldreq	r3, [sp, #24]
   15bd8:	159d3018 	ldrne	r3, [sp, #24]
   15bdc:	03a02007 	moveq	r2, #7
   15be0:	05830000 	streq	r0, [r3]
   15be4:	1583c000 	strne	ip, [r3]
   15be8:	03a0300a 	moveq	r3, #10
   15bec:	13a03008 	movne	r3, #8
   15bf0:	13a02007 	movne	r2, #7
   15bf4:	e58d301c 	str	r3, [sp, #28]
   15bf8:	eafffe31 	b	154c4 <__gettextparse+0x78>
   15bfc:	e5d03001 	ldrb	r3, [r0, #1]
   15c00:	e353003d 	cmp	r3, #61	; 0x3d
   15c04:	0a00003c 	beq	15cfc <__gettextparse+0x8b0>
   15c08:	e59d3018 	ldr	r3, [sp, #24]
   15c0c:	e3a02001 	mov	r2, #1
   15c10:	e3a0bc01 	mov	fp, #256	; 0x100
   15c14:	e583c000 	str	ip, [r3]
   15c18:	eafffe29 	b	154c4 <__gettextparse+0x78>
   15c1c:	e59d3018 	ldr	r3, [sp, #24]
   15c20:	e3a02008 	mov	r2, #8
   15c24:	e3a0bf41 	mov	fp, #260	; 0x104
   15c28:	e583c000 	str	ip, [r3]
   15c2c:	e3a03006 	mov	r3, #6
   15c30:	e58d301c 	str	r3, [sp, #28]
   15c34:	eafffe22 	b	154c4 <__gettextparse+0x78>
   15c38:	e59d3018 	ldr	r3, [sp, #24]
   15c3c:	e3a02008 	mov	r2, #8
   15c40:	e3a0bf41 	mov	fp, #260	; 0x104
   15c44:	e583c000 	str	ip, [r3]
   15c48:	e3a03007 	mov	r3, #7
   15c4c:	e58d301c 	str	r3, [sp, #28]
   15c50:	eafffe1b 	b	154c4 <__gettextparse+0x78>
   15c54:	e59d3018 	ldr	r3, [sp, #24]
   15c58:	e3a02009 	mov	r2, #9
   15c5c:	e59fb10c 	ldr	fp, [pc, #268]	; 15d70 <__gettextparse+0x924>
   15c60:	e583c000 	str	ip, [r3]
   15c64:	e3a03003 	mov	r3, #3
   15c68:	e58d301c 	str	r3, [sp, #28]
   15c6c:	eafffe14 	b	154c4 <__gettextparse+0x78>
   15c70:	e5d03001 	ldrb	r3, [r0, #1]
   15c74:	e353003d 	cmp	r3, #61	; 0x3d
   15c78:	0a000027 	beq	15d1c <__gettextparse+0x8d0>
   15c7c:	e59d3018 	ldr	r3, [sp, #24]
   15c80:	e3a0200a 	mov	r2, #10
   15c84:	e3a0b021 	mov	fp, #33	; 0x21
   15c88:	e583c000 	str	ip, [r3]
   15c8c:	eafffe0c 	b	154c4 <__gettextparse+0x78>
   15c90:	e59d3018 	ldr	r3, [sp, #24]
   15c94:	e3a02009 	mov	r2, #9
   15c98:	e59fb0d0 	ldr	fp, [pc, #208]	; 15d70 <__gettextparse+0x924>
   15c9c:	e583c000 	str	ip, [r3]
   15ca0:	e3a03005 	mov	r3, #5
   15ca4:	e58d301c 	str	r3, [sp, #28]
   15ca8:	eafffe05 	b	154c4 <__gettextparse+0x78>
   15cac:	e5d03001 	ldrb	r3, [r0, #1]
   15cb0:	e59fb0c0 	ldr	fp, [pc, #192]	; 15d78 <__gettextparse+0x92c>
   15cb4:	e353003d 	cmp	r3, #61	; 0x3d
   15cb8:	02800002 	addeq	r0, r0, #2
   15cbc:	059d3018 	ldreq	r3, [sp, #24]
   15cc0:	159d3018 	ldrne	r3, [sp, #24]
   15cc4:	03a02007 	moveq	r2, #7
   15cc8:	05830000 	streq	r0, [r3]
   15ccc:	1583c000 	strne	ip, [r3]
   15cd0:	03a0300b 	moveq	r3, #11
   15cd4:	13a03009 	movne	r3, #9
   15cd8:	13a02007 	movne	r2, #7
   15cdc:	e58d301c 	str	r3, [sp, #28]
   15ce0:	eafffdf7 	b	154c4 <__gettextparse+0x78>
   15ce4:	e3a02002 	mov	r2, #2
   15ce8:	e3e05000 	mvn	r5, #0
   15cec:	eafffe96 	b	1574c <__gettextparse+0x300>
   15cf0:	e59d4008 	ldr	r4, [sp, #8]
   15cf4:	e3a05001 	mov	r5, #1
   15cf8:	eafffe65 	b	15694 <__gettextparse+0x248>
   15cfc:	e59d3018 	ldr	r3, [sp, #24]
   15d00:	e2800002 	add	r0, r0, #2
   15d04:	e3a02006 	mov	r2, #6
   15d08:	e5830000 	str	r0, [r3]
   15d0c:	e3a0300c 	mov	r3, #12
   15d10:	e58d301c 	str	r3, [sp, #28]
   15d14:	e59fb060 	ldr	fp, [pc, #96]	; 15d7c <__gettextparse+0x930>
   15d18:	eafffde9 	b	154c4 <__gettextparse+0x78>
   15d1c:	e59d3018 	ldr	r3, [sp, #24]
   15d20:	e2800002 	add	r0, r0, #2
   15d24:	e3a02006 	mov	r2, #6
   15d28:	e5830000 	str	r0, [r3]
   15d2c:	e3a0300d 	mov	r3, #13
   15d30:	e58d301c 	str	r3, [sp, #28]
   15d34:	e59fb040 	ldr	fp, [pc, #64]	; 15d7c <__gettextparse+0x930>
   15d38:	eafffde1 	b	154c4 <__gettextparse+0x78>
   15d3c:	eb005577 	bl	2b320 <__stack_chk_fail>
   15d40:	e0872002 	add	r2, r7, r2
   15d44:	e6bf107c 	sxth	r1, ip
   15d48:	e5d220b8 	ldrb	r2, [r2, #184]	; 0xb8
   15d4c:	e0469101 	sub	r9, r6, r1, lsl #2
   15d50:	e0441081 	sub	r1, r4, r1, lsl #1
   15d54:	e2422010 	sub	r2, r2, #16
   15d58:	e087c002 	add	ip, r7, r2
   15d5c:	e1dc5cd8 	ldrsb	r5, [ip, #200]	; 0xc8
   15d60:	eafffe79 	b	1574c <__gettextparse+0x300>
   15d64:	00082000 	.word	0x00082000
   15d68:	0006cc34 	.word	0x0006cc34
   15d6c:	0000270f 	.word	0x0000270f
   15d70:	00000105 	.word	0x00000105
   15d74:	00000106 	.word	0x00000106
   15d78:	00000103 	.word	0x00000103
   15d7c:	00000102 	.word	0x00000102

00015d80 <__gettext_extract_plural>:
   15d80:	e92d41f0 	push	{r4, r5, r6, r7, r8, lr}
   15d84:	e24dd010 	sub	sp, sp, #16
   15d88:	e59f8104 	ldr	r8, [pc, #260]	; 15e94 <__gettext_extract_plural+0x114>
   15d8c:	e2504000 	subs	r4, r0, #0
   15d90:	e1a06001 	mov	r6, r1
   15d94:	e5983000 	ldr	r3, [r8]
   15d98:	e1a05002 	mov	r5, r2
   15d9c:	e58d300c 	str	r3, [sp, #12]
   15da0:	0a00001c 	beq	15e18 <__gettext_extract_plural+0x98>
