
assign0x03:     file format elf32-littlearm


Disassembly of section .init:

00010118 <_init>:
   10118:	e92d4008 	push	{r3, lr}
   1011c:	eb00008f 	bl	10360 <call_weak_fn>
   10120:	e8bd8008 	pop	{r3, pc}

Disassembly of section .text:

00010130 <backtrace_and_maps>:
   10130:	e3500001 	cmp	r0, #1
   10134:	d3a01000 	movle	r1, #0
   10138:	c2011001 	andgt	r1, r1, #1
   1013c:	e3510000 	cmp	r1, #0
   10140:	012fff1e 	bxeq	lr
   10144:	e92d47f0 	push	{r4, r5, r6, r7, r8, r9, sl, lr}
   10148:	e24ddc05 	sub	sp, sp, #1280	; 0x500
   1014c:	e1a0000d 	mov	r0, sp
   10150:	e3a01040 	mov	r1, #64	; 0x40
   10154:	e1a04002 	mov	r4, r2
   10158:	eb006793 	bl	29fac <__backtrace>
   1015c:	e3500002 	cmp	r0, #2
   10160:	e1a05000 	mov	r5, r0
   10164:	da00004f 	ble	102a8 <backtrace_and_maps+0x178>
   10168:	e1a00004 	mov	r0, r4
   1016c:	e59f113c 	ldr	r1, [pc, #316]	; 102b0 <backtrace_and_maps+0x180>
   10170:	e3a0201d 	mov	r2, #29
   10174:	e3a07004 	mov	r7, #4
   10178:	ef000000 	svc	0x00000000
   1017c:	e3700a01 	cmn	r0, #4096	; 0x1000
   10180:	9a000004 	bls	10198 <backtrace_and_maps+0x68>
   10184:	e59f2128 	ldr	r2, [pc, #296]	; 102b4 <backtrace_and_maps+0x184>
   10188:	e2603000 	rsb	r3, r0, #0
   1018c:	eb00036b 	bl	10f40 <__aeabi_read_tp>
   10190:	e79f2002 	ldr	r2, [pc, r2]
   10194:	e7803002 	str	r3, [r0, r2]
   10198:	e2451001 	sub	r1, r5, #1
   1019c:	e28d0004 	add	r0, sp, #4
   101a0:	e1a02004 	mov	r2, r4
   101a4:	eb00679c 	bl	2a01c <__backtrace_symbols_fd>
   101a8:	e3a07004 	mov	r7, #4
   101ac:	e1a00004 	mov	r0, r4
   101b0:	e59f1100 	ldr	r1, [pc, #256]	; 102b8 <backtrace_and_maps+0x188>
   101b4:	e3a0201d 	mov	r2, #29
   101b8:	ef000000 	svc	0x00000000
   101bc:	e3700a01 	cmn	r0, #4096	; 0x1000
   101c0:	9a000004 	bls	101d8 <backtrace_and_maps+0xa8>
   101c4:	e59f20f0 	ldr	r2, [pc, #240]	; 102bc <backtrace_and_maps+0x18c>
   101c8:	e2603000 	rsb	r3, r0, #0
   101cc:	eb00035b 	bl	10f40 <__aeabi_read_tp>
   101d0:	e79f2002 	ldr	r2, [pc, r2]
   101d4:	e7803002 	str	r3, [r0, r2]
   101d8:	e59f00e0 	ldr	r0, [pc, #224]	; 102c0 <backtrace_and_maps+0x190>
   101dc:	e3a01000 	mov	r1, #0
   101e0:	e3a07005 	mov	r7, #5
   101e4:	ef000000 	svc	0x00000000
   101e8:	e3700a01 	cmn	r0, #4096	; 0x1000
   101ec:	e1a05000 	mov	r5, r0
   101f0:	9a000005 	bls	1020c <backtrace_and_maps+0xdc>
   101f4:	e59f30c8 	ldr	r3, [pc, #200]	; 102c4 <backtrace_and_maps+0x194>
   101f8:	e3e05000 	mvn	r5, #0
   101fc:	e2602000 	rsb	r2, r0, #0
   10200:	e79f3003 	ldr	r3, [pc, r3]
   10204:	eb00034d 	bl	10f40 <__aeabi_read_tp>
   10208:	e7802003 	str	r2, [r0, r3]
   1020c:	e3a0ab01 	mov	sl, #1024	; 0x400
   10210:	e3a09003 	mov	r9, #3
   10214:	e3a08004 	mov	r8, #4
   10218:	e3e06000 	mvn	r6, #0
   1021c:	e1a00005 	mov	r0, r5
   10220:	e28d1c01 	add	r1, sp, #256	; 0x100
   10224:	e1a0200a 	mov	r2, sl
   10228:	e1a07009 	mov	r7, r9
   1022c:	ef000000 	svc	0x00000000
   10230:	e1a03000 	mov	r3, r0
   10234:	e3730a01 	cmn	r3, #4096	; 0x1000
   10238:	e1a02000 	mov	r2, r0
   1023c:	e1a07008 	mov	r7, r8
   10240:	e1a00004 	mov	r0, r4
   10244:	9a000008 	bls	1026c <backtrace_and_maps+0x13c>
   10248:	e59f2078 	ldr	r2, [pc, #120]	; 102c8 <backtrace_and_maps+0x198>
   1024c:	e2633000 	rsb	r3, r3, #0
   10250:	eb00033a 	bl	10f40 <__aeabi_read_tp>
   10254:	e79f2002 	ldr	r2, [pc, r2]
   10258:	e7803002 	str	r3, [r0, r2]
   1025c:	e1a00005 	mov	r0, r5
   10260:	e3a07006 	mov	r7, #6
   10264:	ef000000 	svc	0x00000000
   10268:	ea00000e 	b	102a8 <backtrace_and_maps+0x178>
   1026c:	e3530000 	cmp	r3, #0
   10270:	dafffff9 	ble	1025c <backtrace_and_maps+0x12c>
   10274:	ef000000 	svc	0x00000000
   10278:	e3700a01 	cmn	r0, #4096	; 0x1000
   1027c:	e1a02000 	mov	r2, r0
   10280:	9a000005 	bls	1029c <backtrace_and_maps+0x16c>
   10284:	e59f1040 	ldr	r1, [pc, #64]	; 102cc <backtrace_and_maps+0x19c>
   10288:	e1a02006 	mov	r2, r6
   1028c:	e2607000 	rsb	r7, r0, #0
   10290:	e79f1001 	ldr	r1, [pc, r1]
   10294:	eb000329 	bl	10f40 <__aeabi_read_tp>
   10298:	e7807001 	str	r7, [r0, r1]
   1029c:	e1530002 	cmp	r3, r2
   102a0:	0affffdd 	beq	1021c <backtrace_and_maps+0xec>
   102a4:	eaffffec 	b	1025c <backtrace_and_maps+0x12c>
   102a8:	e28ddc05 	add	sp, sp, #1280	; 0x500
   102ac:	e8bd87f0 	pop	{r4, r5, r6, r7, r8, r9, sl, pc}
   102b0:	000700a0 	.word	0x000700a0
   102b4:	00074d00 	.word	0x00074d00
   102b8:	000700c0 	.word	0x000700c0
   102bc:	00074cc0 	.word	0x00074cc0
   102c0:	000700e0 	.word	0x000700e0
   102c4:	00074c90 	.word	0x00074c90
   102c8:	00074c3c 	.word	0x00074c3c
   102cc:	00074c00 	.word	0x00074c00

000102d0 <detach_arena.part.1>:
   102d0:	e92d4010 	push	{r4, lr}
   102d4:	e59f300c 	ldr	r3, [pc, #12]	; 102e8 <detach_arena.part.1+0x18>
   102d8:	e59f200c 	ldr	r2, [pc, #12]	; 102ec <detach_arena.part.1+0x1c>
   102dc:	e59f100c 	ldr	r1, [pc, #12]	; 102f0 <detach_arena.part.1+0x20>
   102e0:	e59f000c 	ldr	r0, [pc, #12]	; 102f4 <detach_arena.part.1+0x24>
   102e4:	eb0039ef 	bl	1eaa8 <__malloc_assert>
   102e8:	00071044 	.word	0x00071044
   102ec:	00000272 	.word	0x00000272
   102f0:	000701f8 	.word	0x000701f8
   102f4:	000702a8 	.word	0x000702a8

000102f8 <oom>:
   102f8:	e3a00002 	mov	r0, #2
   102fc:	e92d4010 	push	{r4, lr}
   10300:	e59f1008 	ldr	r1, [pc, #8]	; 10310 <oom+0x18>
   10304:	eb011718 	bl	55f6c <_dl_dprintf>
   10308:	e3a0007f 	mov	r0, #127	; 0x7f
   1030c:	eb005bf1 	bl	272d8 <_exit>
   10310:	0008178c 	.word	0x0008178c

00010314 <fini>:
   10314:	e59f3004 	ldr	r3, [pc, #4]	; 10320 <fini+0xc>
   10318:	e5930014 	ldr	r0, [r3, #20]
   1031c:	ea012e30 	b	5bbe4 <check_free.isra.0>
   10320:	00086470 	.word	0x00086470

00010324 <_start>:
   10324:	e3a0b000 	mov	fp, #0
   10328:	e3a0e000 	mov	lr, #0
   1032c:	e49d1004 	pop	{r1}		; (ldr r1, [sp], #4)
   10330:	e1a0200d 	mov	r2, sp
   10334:	e52d2004 	push	{r2}		; (str r2, [sp, #-4]!)
   10338:	e52d0004 	push	{r0}		; (str r0, [sp, #-4]!)
   1033c:	e59fc010 	ldr	ip, [pc, #16]	; 10354 <_start+0x30>
   10340:	e52dc004 	push	{ip}		; (str ip, [sp, #-4]!)
   10344:	e59f000c 	ldr	r0, [pc, #12]	; 10358 <_start+0x34>
   10348:	e59f300c 	ldr	r3, [pc, #12]	; 1035c <_start+0x38>
   1034c:	eb0000f3 	bl	10720 <__libc_start_main>
   10350:	eb0014d0 	bl	15698 <abort>
   10354:	00010ee4 	.word	0x00010ee4
   10358:	00010520 	.word	0x00010520
   1035c:	00010e48 	.word	0x00010e48

00010360 <call_weak_fn>:
   10360:	e59f3014 	ldr	r3, [pc, #20]	; 1037c <call_weak_fn+0x1c>
   10364:	e59f2014 	ldr	r2, [pc, #20]	; 10380 <call_weak_fn+0x20>
   10368:	e08f3003 	add	r3, pc, r3
   1036c:	e7932002 	ldr	r2, [r3, r2]
   10370:	e3520000 	cmp	r2, #0
   10374:	012fff1e 	bxeq	lr
   10378:	e1a00000 	nop			; (mov r0, r0)
   1037c:	00074ae4 	.word	0x00074ae4
   10380:	0000007c 	.word	0x0000007c

00010384 <deregister_tm_clones>:
   10384:	e59f301c 	ldr	r3, [pc, #28]	; 103a8 <deregister_tm_clones+0x24>
   10388:	e59f001c 	ldr	r0, [pc, #28]	; 103ac <deregister_tm_clones+0x28>
   1038c:	e0433000 	sub	r3, r3, r0
   10390:	e3530006 	cmp	r3, #6
   10394:	912fff1e 	bxls	lr
   10398:	e59f3010 	ldr	r3, [pc, #16]	; 103b0 <deregister_tm_clones+0x2c>
   1039c:	e3530000 	cmp	r3, #0
   103a0:	012fff1e 	bxeq	lr
   103a4:	e12fff13 	bx	r3
   103a8:	00085d2b 	.word	0x00085d2b
   103ac:	00085d28 	.word	0x00085d28
   103b0:	00000000 	.word	0x00000000

000103b4 <register_tm_clones>:
   103b4:	e59f1024 	ldr	r1, [pc, #36]	; 103e0 <register_tm_clones+0x2c>
   103b8:	e59f0024 	ldr	r0, [pc, #36]	; 103e4 <register_tm_clones+0x30>
   103bc:	e0411000 	sub	r1, r1, r0
   103c0:	e1a01141 	asr	r1, r1, #2
   103c4:	e0811fa1 	add	r1, r1, r1, lsr #31
   103c8:	e1b010c1 	asrs	r1, r1, #1
   103cc:	012fff1e 	bxeq	lr
   103d0:	e59f3010 	ldr	r3, [pc, #16]	; 103e8 <register_tm_clones+0x34>
   103d4:	e3530000 	cmp	r3, #0
   103d8:	012fff1e 	bxeq	lr
   103dc:	e12fff13 	bx	r3
   103e0:	00085d28 	.word	0x00085d28
   103e4:	00085d28 	.word	0x00085d28
   103e8:	00000000 	.word	0x00000000

000103ec <__do_global_dtors_aux>:
   103ec:	e92d4010 	push	{r4, lr}
   103f0:	e59f402c 	ldr	r4, [pc, #44]	; 10424 <__do_global_dtors_aux+0x38>
   103f4:	e5d43000 	ldrb	r3, [r4]
   103f8:	e3530000 	cmp	r3, #0
   103fc:	18bd8010 	popne	{r4, pc}
   10400:	ebffffdf 	bl	10384 <deregister_tm_clones>
   10404:	e59f301c 	ldr	r3, [pc, #28]	; 10428 <__do_global_dtors_aux+0x3c>
   10408:	e3530000 	cmp	r3, #0
   1040c:	0a000001 	beq	10418 <__do_global_dtors_aux+0x2c>
   10410:	e59f0014 	ldr	r0, [pc, #20]	; 1042c <__do_global_dtors_aux+0x40>
   10414:	e1a00000 	nop			; (mov r0, r0)
   10418:	e3a03001 	mov	r3, #1
   1041c:	e5c43000 	strb	r3, [r4]
   10420:	e8bd8010 	pop	{r4, pc}
   10424:	00085d28 	.word	0x00085d28
   10428:	00000000 	.word	0x00000000
   1042c:	00084dbc 	.word	0x00084dbc

00010430 <frame_dummy>:
   10430:	e59f3040 	ldr	r3, [pc, #64]	; 10478 <frame_dummy+0x48>
   10434:	e92d4010 	push	{r4, lr}
   10438:	e3530000 	cmp	r3, #0
   1043c:	0a000002 	beq	1044c <frame_dummy+0x1c>
   10440:	e59f1034 	ldr	r1, [pc, #52]	; 1047c <frame_dummy+0x4c>
   10444:	e59f0034 	ldr	r0, [pc, #52]	; 10480 <frame_dummy+0x50>
   10448:	e1a00000 	nop			; (mov r0, r0)
   1044c:	e59f0030 	ldr	r0, [pc, #48]	; 10484 <frame_dummy+0x54>
   10450:	e5903000 	ldr	r3, [r0]
   10454:	e3530000 	cmp	r3, #0
   10458:	1a000001 	bne	10464 <frame_dummy+0x34>
   1045c:	e8bd4010 	pop	{r4, lr}
   10460:	eaffffd3 	b	103b4 <register_tm_clones>
   10464:	e59f301c 	ldr	r3, [pc, #28]	; 10488 <frame_dummy+0x58>
   10468:	e3530000 	cmp	r3, #0
   1046c:	0afffffa 	beq	1045c <frame_dummy+0x2c>
   10470:	e12fff33 	blx	r3
   10474:	eafffff8 	b	1045c <frame_dummy+0x2c>
   10478:	00000000 	.word	0x00000000
   1047c:	00085d2c 	.word	0x00085d2c
   10480:	00084dbc 	.word	0x00084dbc
   10484:	00084ddc 	.word	0x00084ddc
   10488:	00000000 	.word	0x00000000

0001048c <handleRetCallout>:
   1048c:	e92d4800 	push	{fp, lr}
   10490:	e28db004 	add	fp, sp, #4
   10494:	e24dd008 	sub	sp, sp, #8
   10498:	e50b0008 	str	r0, [fp, #-8]
   1049c:	e59f300c 	ldr	r3, [pc, #12]	; 104b0 <handleRetCallout+0x24>
   104a0:	e3a0201e 	mov	r2, #30
   104a4:	e59f1008 	ldr	r1, [pc, #8]	; 104b4 <handleRetCallout+0x28>
   104a8:	e59f0008 	ldr	r0, [pc, #8]	; 104b8 <handleRetCallout+0x2c>
   104ac:	eb000300 	bl	110b4 <__assert_fail>
   104b0:	0006fb68 	.word	0x0006fb68
   104b4:	0006faec 	.word	0x0006faec
   104b8:	0006fafc 	.word	0x0006fafc

000104bc <StartProfiling>:
   104bc:	e52db004 	push	{fp}		; (str fp, [sp, #-4]!)
   104c0:	e28db000 	add	fp, sp, #0
   104c4:	e24dd014 	sub	sp, sp, #20
   104c8:	e50b0010 	str	r0, [fp, #-16]
   104cc:	e51b3010 	ldr	r3, [fp, #-16]
   104d0:	e50b3008 	str	r3, [fp, #-8]
   104d4:	e51b3008 	ldr	r3, [fp, #-8]
   104d8:	e3a0201e 	mov	r2, #30
   104dc:	e5c32000 	strb	r2, [r3]
   104e0:	e51b3008 	ldr	r3, [fp, #-8]
   104e4:	e2833001 	add	r3, r3, #1
   104e8:	e3e02000 	mvn	r2, #0
   104ec:	e5c32000 	strb	r2, [r3]
   104f0:	e51b3008 	ldr	r3, [fp, #-8]
   104f4:	e2833002 	add	r3, r3, #2
   104f8:	e3a0202f 	mov	r2, #47	; 0x2f
   104fc:	e5c32000 	strb	r2, [r3]
   10500:	e51b3008 	ldr	r3, [fp, #-8]
   10504:	e2833003 	add	r3, r3, #3
   10508:	e3e0201e 	mvn	r2, #30
   1050c:	e5c32000 	strb	r2, [r3]
   10510:	e1a00000 	nop			; (mov r0, r0)
   10514:	e28bd000 	add	sp, fp, #0
   10518:	e49db004 	pop	{fp}		; (ldr fp, [sp], #4)
   1051c:	e12fff1e 	bx	lr

00010520 <main>:
   10520:	e92d4800 	push	{fp, lr}
   10524:	e28db004 	add	fp, sp, #4
   10528:	e24dd010 	sub	sp, sp, #16
   1052c:	e50b0010 	str	r0, [fp, #-16]
   10530:	e50b1014 	str	r1, [fp, #-20]	; 0xffffffec
   10534:	e51b3010 	ldr	r3, [fp, #-16]
   10538:	e3530002 	cmp	r3, #2
   1053c:	0a000008 	beq	10564 <main+0x44>
   10540:	e59f3140 	ldr	r3, [pc, #320]	; 10688 <main+0x168>
   10544:	e5930000 	ldr	r0, [r3]
   10548:	e51b3014 	ldr	r3, [fp, #-20]	; 0xffffffec
   1054c:	e5933000 	ldr	r3, [r3]
   10550:	e1a02003 	mov	r2, r3
   10554:	e59f1130 	ldr	r1, [pc, #304]	; 1068c <main+0x16c>
   10558:	eb001ab3 	bl	1702c <__fprintf>
   1055c:	e3a00001 	mov	r0, #1
   10560:	eb0016d1 	bl	160ac <exit>
   10564:	e51b3014 	ldr	r3, [fp, #-20]	; 0xffffffec
   10568:	e2833004 	add	r3, r3, #4
   1056c:	e5933000 	ldr	r3, [r3]
   10570:	e24b100c 	sub	r1, fp, #12
   10574:	e3a0200a 	mov	r2, #10
   10578:	e1a00003 	mov	r0, r3
   1057c:	eb001761 	bl	16308 <__strtol>
   10580:	e50b0008 	str	r0, [fp, #-8]
   10584:	eb000265 	bl	10f20 <__errno_location>
   10588:	e1a03000 	mov	r3, r0
   1058c:	e5933000 	ldr	r3, [r3]
   10590:	e3530022 	cmp	r3, #34	; 0x22
   10594:	1a000005 	bne	105b0 <main+0x90>
   10598:	e51b3008 	ldr	r3, [fp, #-8]
   1059c:	e3730106 	cmn	r3, #-2147483647	; 0x80000001
   105a0:	0a00000a 	beq	105d0 <main+0xb0>
   105a4:	e51b3008 	ldr	r3, [fp, #-8]
   105a8:	e3530102 	cmp	r3, #-2147483648	; 0x80000000
   105ac:	0a000007 	beq	105d0 <main+0xb0>
   105b0:	eb00025a 	bl	10f20 <__errno_location>
   105b4:	e1a03000 	mov	r3, r0
   105b8:	e5933000 	ldr	r3, [r3]
   105bc:	e3530000 	cmp	r3, #0
   105c0:	0a000006 	beq	105e0 <main+0xc0>
   105c4:	e51b3008 	ldr	r3, [fp, #-8]
   105c8:	e3530000 	cmp	r3, #0
   105cc:	1a000003 	bne	105e0 <main+0xc0>
   105d0:	e59f00b8 	ldr	r0, [pc, #184]	; 10690 <main+0x170>
   105d4:	eb001ad8 	bl	1713c <perror>
   105d8:	e3a00001 	mov	r0, #1
   105dc:	eb0016b2 	bl	160ac <exit>
   105e0:	e51b3014 	ldr	r3, [fp, #-20]	; 0xffffffec
   105e4:	e2833004 	add	r3, r3, #4
   105e8:	e5932000 	ldr	r2, [r3]
   105ec:	e51b300c 	ldr	r3, [fp, #-12]
   105f0:	e1520003 	cmp	r2, r3
   105f4:	1a000009 	bne	10620 <main+0x100>
   105f8:	e59f3088 	ldr	r3, [pc, #136]	; 10688 <main+0x168>
   105fc:	e5930000 	ldr	r0, [r3]
   10600:	e51b3014 	ldr	r3, [fp, #-20]	; 0xffffffec
   10604:	e2833004 	add	r3, r3, #4
   10608:	e5933000 	ldr	r3, [r3]
   1060c:	e1a02003 	mov	r2, r3
   10610:	e59f107c 	ldr	r1, [pc, #124]	; 10694 <main+0x174>
   10614:	eb001a84 	bl	1702c <__fprintf>
   10618:	e3a00001 	mov	r0, #1
   1061c:	eb0016a2 	bl	160ac <exit>
   10620:	e51b300c 	ldr	r3, [fp, #-12]
   10624:	e5d33000 	ldrb	r3, [r3]
   10628:	e3530000 	cmp	r3, #0
   1062c:	0a000007 	beq	10650 <main+0x130>
   10630:	e59f3050 	ldr	r3, [pc, #80]	; 10688 <main+0x168>
   10634:	e5933000 	ldr	r3, [r3]
   10638:	e51b200c 	ldr	r2, [fp, #-12]
   1063c:	e59f1054 	ldr	r1, [pc, #84]	; 10698 <main+0x178>
   10640:	e1a00003 	mov	r0, r3
   10644:	eb001a78 	bl	1702c <__fprintf>
   10648:	e3a00001 	mov	r0, #1
   1064c:	eb001696 	bl	160ac <exit>
   10650:	e59f0044 	ldr	r0, [pc, #68]	; 1069c <main+0x17c>
   10654:	ebffff98 	bl	104bc <StartProfiling>
   10658:	e59f3040 	ldr	r3, [pc, #64]	; 106a0 <main+0x180>
   1065c:	e1a01003 	mov	r1, r3
   10660:	e59f0034 	ldr	r0, [pc, #52]	; 1069c <main+0x17c>
   10664:	eb000026 	bl	10704 <__clear_cache>
   10668:	e51b0008 	ldr	r0, [fp, #-8]
   1066c:	eb00000d 	bl	106a8 <fib>
   10670:	e50b0008 	str	r0, [fp, #-8]
   10674:	e51b1008 	ldr	r1, [fp, #-8]
   10678:	e59f0024 	ldr	r0, [pc, #36]	; 106a4 <main+0x184>
   1067c:	eb001a76 	bl	1705c <_IO_printf>
   10680:	e3a00000 	mov	r0, #0
   10684:	eb001688 	bl	160ac <exit>
   10688:	000852fc 	.word	0x000852fc
   1068c:	0006fb00 	.word	0x0006fb00
   10690:	0006fb14 	.word	0x0006fb14
   10694:	0006fb1c 	.word	0x0006fb1c
   10698:	0006fb3c 	.word	0x0006fb3c
   1069c:	000106a8 	.word	0x000106a8
   106a0:	000106ac 	.word	0x000106ac
   106a4:	0006fb64 	.word	0x0006fb64

000106a8 <fib>:
   106a8:	e92d4810 	push	{r4, fp, lr}
   106ac:	e28db008 	add	fp, sp, #8
   106b0:	e24dd00c 	sub	sp, sp, #12
   106b4:	e50b0010 	str	r0, [fp, #-16]
   106b8:	e51b3010 	ldr	r3, [fp, #-16]
   106bc:	e3530001 	cmp	r3, #1
   106c0:	ca000001 	bgt	106cc <fib+0x24>
   106c4:	e3a03001 	mov	r3, #1
   106c8:	ea00000a 	b	106f8 <fib+0x50>
   106cc:	e51b3010 	ldr	r3, [fp, #-16]
   106d0:	e2433001 	sub	r3, r3, #1
   106d4:	e1a00003 	mov	r0, r3
   106d8:	ebfffff2 	bl	106a8 <fib>
   106dc:	e1a04000 	mov	r4, r0
   106e0:	e51b3010 	ldr	r3, [fp, #-16]
   106e4:	e2433002 	sub	r3, r3, #2
   106e8:	e1a00003 	mov	r0, r3
   106ec:	ebffffed 	bl	106a8 <fib>
   106f0:	e1a03000 	mov	r3, r0
   106f4:	e0843003 	add	r3, r4, r3
   106f8:	e1a00003 	mov	r0, r3
   106fc:	e24bd008 	sub	sp, fp, #8
   10700:	e8bd8810 	pop	{r4, fp, pc}

00010704 <__clear_cache>:
   10704:	e92d0080 	stmfd	sp!, {r7}
   10708:	e3a0780f 	mov	r7, #983040	; 0xf0000
   1070c:	e2877002 	add	r7, r7, #2
   10710:	e3a02000 	mov	r2, #0
   10714:	ef000000 	svc	0x00000000
   10718:	e8bd0080 	ldmfd	sp!, {r7}
   1071c:	e12fff1e 	bx	lr

00010720 <__libc_start_main>:
   10720:	e59fc2e8 	ldr	ip, [pc, #744]	; 10a10 <__libc_start_main+0x2f0>
   10724:	e92d41f0 	push	{r4, r5, r6, r7, r8, lr}
   10728:	e24dde13 	sub	sp, sp, #304	; 0x130
   1072c:	e35c0000 	cmp	ip, #0
   10730:	e98d0006 	stmib	sp, {r1, r2}
   10734:	e59d2004 	ldr	r2, [sp, #4]
   10738:	e1a05003 	mov	r5, r3
   1073c:	159c3000 	ldrne	r3, [ip]
   10740:	01a0300c 	moveq	r3, ip
   10744:	e58d000c 	str	r0, [sp, #12]
   10748:	e59fe2c4 	ldr	lr, [pc, #708]	; 10a14 <__libc_start_main+0x2f4>
   1074c:	e2820001 	add	r0, r2, #1
   10750:	e59fc2c0 	ldr	ip, [pc, #704]	; 10a18 <__libc_start_main+0x2f8>
   10754:	e59f22c0 	ldr	r2, [pc, #704]	; 10a1c <__libc_start_main+0x2fc>
   10758:	e59d4008 	ldr	r4, [sp, #8]
   1075c:	e59d1150 	ldr	r1, [sp, #336]	; 0x150
   10760:	116f3f13 	clzne	r3, r3
   10764:	e0840100 	add	r0, r4, r0, lsl #2
   10768:	11a032a3 	lsrne	r3, r3, #5
   1076c:	e58e0000 	str	r0, [lr]
   10770:	e58c3000 	str	r3, [ip]
   10774:	e5821000 	str	r1, [r2]
   10778:	e4903004 	ldr	r3, [r0], #4
   1077c:	e3530000 	cmp	r3, #0
   10780:	1afffffc 	bne	10778 <__libc_start_main+0x58>
   10784:	eb0066df 	bl	2a308 <_dl_aux_init>
   10788:	e59f2290 	ldr	r2, [pc, #656]	; 10a20 <__libc_start_main+0x300>
   1078c:	e59f3290 	ldr	r3, [pc, #656]	; 10a24 <__libc_start_main+0x304>
   10790:	e3520000 	cmp	r2, #0
   10794:	e3a01001 	mov	r1, #1
   10798:	e5933000 	ldr	r3, [r3]
   1079c:	01a01002 	moveq	r1, r2
   107a0:	e16f3f13 	clz	r3, r3
   107a4:	e1a032a3 	lsr	r3, r3, #5
   107a8:	e1130001 	tst	r3, r1
   107ac:	0a00000f 	beq	107f0 <__libc_start_main+0xd0>
   107b0:	e59f3268 	ldr	r3, [pc, #616]	; 10a20 <__libc_start_main+0x300>
   107b4:	e1d322ba 	ldrh	r2, [r3, #42]	; 0x2a
   107b8:	e3520020 	cmp	r2, #32
   107bc:	0a000004 	beq	107d4 <__libc_start_main+0xb4>
   107c0:	e59f3260 	ldr	r3, [pc, #608]	; 10a28 <__libc_start_main+0x308>
   107c4:	e3a020af 	mov	r2, #175	; 0xaf
   107c8:	e59f125c 	ldr	r1, [pc, #604]	; 10a2c <__libc_start_main+0x30c>
   107cc:	e59f025c 	ldr	r0, [pc, #604]	; 10a30 <__libc_start_main+0x310>
   107d0:	eb000237 	bl	110b4 <__assert_fail>
   107d4:	e593201c 	ldr	r2, [r3, #28]
   107d8:	e1d312bc 	ldrh	r1, [r3, #44]	; 0x2c
   107dc:	e59f0240 	ldr	r0, [pc, #576]	; 10a24 <__libc_start_main+0x304>
   107e0:	e0823003 	add	r3, r2, r3
   107e4:	e59f2248 	ldr	r2, [pc, #584]	; 10a34 <__libc_start_main+0x314>
   107e8:	e5803000 	str	r3, [r0]
   107ec:	e5821000 	str	r1, [r2]
   107f0:	e59f3220 	ldr	r3, [pc, #544]	; 10a18 <__libc_start_main+0x2f8>
   107f4:	e5933000 	ldr	r3, [r3]
   107f8:	e3530000 	cmp	r3, #0
   107fc:	0a000019 	beq	10868 <__libc_start_main+0x148>
   10800:	e59f4230 	ldr	r4, [pc, #560]	; 10a38 <__libc_start_main+0x318>
   10804:	e59f2230 	ldr	r2, [pc, #560]	; 10a3c <__libc_start_main+0x31c>
   10808:	e1540002 	cmp	r4, r2
   1080c:	2a000023 	bcs	108a0 <__libc_start_main+0x180>
   10810:	e5d43004 	ldrb	r3, [r4, #4]
   10814:	e5946000 	ldr	r6, [r4]
   10818:	e35300a0 	cmp	r3, #160	; 0xa0
   1081c:	1a00000f 	bne	10860 <__libc_start_main+0x140>
   10820:	e1e07004 	mvn	r7, r4
   10824:	e0877002 	add	r7, r7, r2
   10828:	e3c77007 	bic	r7, r7, #7
   1082c:	e59f820c 	ldr	r8, [pc, #524]	; 10a40 <__libc_start_main+0x320>
   10830:	e0847007 	add	r7, r4, r7
   10834:	e5963000 	ldr	r3, [r6]
   10838:	e5980000 	ldr	r0, [r8]
   1083c:	e12fff33 	blx	r3
   10840:	e1540007 	cmp	r4, r7
   10844:	e5860000 	str	r0, [r6]
   10848:	0a000014 	beq	108a0 <__libc_start_main+0x180>
   1084c:	e1a03004 	mov	r3, r4
   10850:	e5b46008 	ldr	r6, [r4, #8]!
   10854:	e5d3300c 	ldrb	r3, [r3, #12]
   10858:	e35300a0 	cmp	r3, #160	; 0xa0
   1085c:	0afffff4 	beq	10834 <__libc_start_main+0x114>
   10860:	e59f01dc 	ldr	r0, [pc, #476]	; 10a44 <__libc_start_main+0x324>
   10864:	eb002438 	bl	1994c <__libc_fatal>
   10868:	eb006aca 	bl	2b398 <_dl_discover_osversion>
   1086c:	e3500000 	cmp	r0, #0
   10870:	ba000060 	blt	109f8 <__libc_start_main+0x2d8>
   10874:	e59f31cc 	ldr	r3, [pc, #460]	; 10a48 <__libc_start_main+0x328>
   10878:	e5933000 	ldr	r3, [r3]
   1087c:	e3530000 	cmp	r3, #0
   10880:	1a000040 	bne	10988 <__libc_start_main+0x268>
   10884:	e59f31bc 	ldr	r3, [pc, #444]	; 10a48 <__libc_start_main+0x328>
   10888:	e5830000 	str	r0, [r3]
   1088c:	e59f31b8 	ldr	r3, [pc, #440]	; 10a4c <__libc_start_main+0x32c>
   10890:	e1500003 	cmp	r0, r3
   10894:	caffffd9 	bgt	10800 <__libc_start_main+0xe0>
   10898:	e59f01b0 	ldr	r0, [pc, #432]	; 10a50 <__libc_start_main+0x330>
   1089c:	eb00242a 	bl	1994c <__libc_fatal>
   108a0:	eb00015d 	bl	10e1c <__pthread_initialize_minimal>
   108a4:	e59f31a8 	ldr	r3, [pc, #424]	; 10a54 <__libc_start_main+0x334>
   108a8:	e59d114c 	ldr	r1, [sp, #332]	; 0x14c
   108ac:	e59f21a4 	ldr	r2, [pc, #420]	; 10a58 <__libc_start_main+0x338>
   108b0:	e3510000 	cmp	r1, #0
   108b4:	e5931000 	ldr	r1, [r3]
   108b8:	e5913000 	ldr	r3, [r1]
   108bc:	e5911004 	ldr	r1, [r1, #4]
   108c0:	e3c330ff 	bic	r3, r3, #255	; 0xff
   108c4:	e5823000 	str	r3, [r2]
   108c8:	e5821004 	str	r1, [r2, #4]
   108cc:	0a000003 	beq	108e0 <__libc_start_main+0x1c0>
   108d0:	e3a02000 	mov	r2, #0
   108d4:	e1a01002 	mov	r1, r2
   108d8:	e59d014c 	ldr	r0, [sp, #332]	; 0x14c
   108dc:	eb001679 	bl	162c8 <__cxa_atexit>
   108e0:	e59f312c 	ldr	r3, [pc, #300]	; 10a14 <__libc_start_main+0x2f4>
   108e4:	e99d0003 	ldmib	sp, {r0, r1}
   108e8:	e5932000 	ldr	r2, [r3]
   108ec:	eb006aed 	bl	2b4a8 <__libc_init_first>
   108f0:	e59d3148 	ldr	r3, [sp, #328]	; 0x148
   108f4:	e3530000 	cmp	r3, #0
   108f8:	0a000003 	beq	1090c <__libc_start_main+0x1ec>
   108fc:	e3a02000 	mov	r2, #0
   10900:	e1a01002 	mov	r1, r2
   10904:	e59d0148 	ldr	r0, [sp, #328]	; 0x148
   10908:	eb00166e 	bl	162c8 <__cxa_atexit>
   1090c:	e59f3148 	ldr	r3, [pc, #328]	; 10a5c <__libc_start_main+0x33c>
   10910:	e5933000 	ldr	r3, [r3]
   10914:	e3530000 	cmp	r3, #0
   10918:	1a000038 	bne	10a00 <__libc_start_main+0x2e0>
   1091c:	e3550000 	cmp	r5, #0
   10920:	0a000003 	beq	10934 <__libc_start_main+0x214>
   10924:	e59f30e8 	ldr	r3, [pc, #232]	; 10a14 <__libc_start_main+0x2f4>
   10928:	e99d0003 	ldmib	sp, {r0, r1}
   1092c:	e5932000 	ldr	r2, [r3]
   10930:	e12fff35 	blx	r5
   10934:	e3a01000 	mov	r1, #0
   10938:	e1a00001 	mov	r0, r1
   1093c:	eb00664f 	bl	2a280 <_dl_debug_initialize>
   10940:	e28d0018 	add	r0, sp, #24
   10944:	eb001351 	bl	15690 <_setjmp>
   10948:	e3500000 	cmp	r0, #0
   1094c:	1a000010 	bne	10994 <__libc_start_main+0x274>
   10950:	e59f20bc 	ldr	r2, [pc, #188]	; 10a14 <__libc_start_main+0x2f4>
   10954:	eb000179 	bl	10f40 <__aeabi_read_tp>
   10958:	e1a03000 	mov	r3, r0
   1095c:	e510e440 	ldr	lr, [r0, #-1088]	; 0xfffffbc0
   10960:	e510c444 	ldr	ip, [r0, #-1092]	; 0xfffffbbc
   10964:	e28d4018 	add	r4, sp, #24
   10968:	e5034440 	str	r4, [r3, #-1088]	; 0xfffffbc0
   1096c:	e99d0003 	ldmib	sp, {r0, r1}
   10970:	e5922000 	ldr	r2, [r2]
   10974:	e59d300c 	ldr	r3, [sp, #12]
   10978:	e58de120 	str	lr, [sp, #288]	; 0x120
   1097c:	e58dc124 	str	ip, [sp, #292]	; 0x124
   10980:	e12fff33 	blx	r3
   10984:	eb0015c8 	bl	160ac <exit>
   10988:	e1530000 	cmp	r3, r0
   1098c:	9affffbe 	bls	1088c <__libc_start_main+0x16c>
   10990:	eaffffbb 	b	10884 <__libc_start_main+0x164>
   10994:	e1a00000 	nop			; (mov r0, r0)
   10998:	e59f20c0 	ldr	r2, [pc, #192]	; 10a60 <__libc_start_main+0x340>
   1099c:	e5923000 	ldr	r3, [r2]
   109a0:	e2431001 	sub	r1, r3, #1
   109a4:	e58d3014 	str	r3, [sp, #20]
   109a8:	e1920f9f 	ldrex	r0, [r2]
   109ac:	e1500003 	cmp	r0, r3
   109b0:	1a000003 	bne	109c4 <__libc_start_main+0x2a4>
   109b4:	e182cf91 	strex	ip, r1, [r2]
   109b8:	e35c0000 	cmp	ip, #0
   109bc:	1afffff9 	bne	109a8 <__libc_start_main+0x288>
   109c0:	ee070fba 	mcr	15, 0, r0, cr7, cr10, {5}
   109c4:	03a01001 	moveq	r1, #1
   109c8:	13a01000 	movne	r1, #0
   109cc:	158d0014 	strne	r0, [sp, #20]
   109d0:	e3510000 	cmp	r1, #0
   109d4:	0afffff0 	beq	1099c <__libc_start_main+0x27c>
   109d8:	e3530001 	cmp	r3, #1
   109dc:	0a000009 	beq	10a08 <__libc_start_main+0x2e8>
   109e0:	e3a02000 	mov	r2, #0
   109e4:	e3a03001 	mov	r3, #1
   109e8:	e1a00002 	mov	r0, r2
   109ec:	e1a07003 	mov	r7, r3
   109f0:	ef000000 	svc	0x00000000
   109f4:	eafffffb 	b	109e8 <__libc_start_main+0x2c8>
   109f8:	e59f0064 	ldr	r0, [pc, #100]	; 10a64 <__libc_start_main+0x344>
   109fc:	eb0023d2 	bl	1994c <__libc_fatal>
   10a00:	eb000055 	bl	10b5c <__libc_check_standard_fds>
   10a04:	eaffffc4 	b	1091c <__libc_start_main+0x1fc>
   10a08:	e3a00000 	mov	r0, #0
   10a0c:	eaffffdc 	b	10984 <__libc_start_main+0x264>
   10a10:	00000000 	.word	0x00000000
   10a14:	00086290 	.word	0x00086290
   10a18:	00085adc 	.word	0x00085adc
   10a1c:	00084e2c 	.word	0x00084e2c
   10a20:	00000000 	.word	0x00000000
   10a24:	000867ec 	.word	0x000867ec
   10a28:	0006fc24 	.word	0x0006fc24
   10a2c:	0006fb7c 	.word	0x0006fb7c
   10a30:	0006fb8c 	.word	0x0006fb8c
   10a34:	0008680c 	.word	0x0008680c
   10a38:	00010118 	.word	0x00010118
   10a3c:	00010118 	.word	0x00010118
   10a40:	000862a8 	.word	0x000862a8
   10a44:	0006fbfc 	.word	0x0006fbfc
   10a48:	0008681c 	.word	0x0008681c
   10a4c:	000301ff 	.word	0x000301ff
   10a50:	0006fbbc 	.word	0x0006fbbc
   10a54:	00084de8 	.word	0x00084de8
   10a58:	00084de0 	.word	0x00084de0
   10a5c:	00084e30 	.word	0x00084e30
   10a60:	00000000 	.word	0x00000000
   10a64:	0006fbd4 	.word	0x0006fbd4

00010a68 <check_one_fd>:
   10a68:	e92d43b0 	push	{r4, r5, r7, r8, r9, lr}
   10a6c:	e1a04001 	mov	r4, r1
   10a70:	e24dd068 	sub	sp, sp, #104	; 0x68
   10a74:	e3a01001 	mov	r1, #1
   10a78:	e1a05000 	mov	r5, r0
   10a7c:	eb005d53 	bl	27fd0 <__libc_fcntl>
   10a80:	e3700001 	cmn	r0, #1
   10a84:	0a000001 	beq	10a90 <check_one_fd+0x28>
   10a88:	e28dd068 	add	sp, sp, #104	; 0x68
   10a8c:	e8bd83b0 	pop	{r4, r5, r7, r8, r9, pc}
   10a90:	e59f30ac 	ldr	r3, [pc, #172]	; 10b44 <check_one_fd+0xdc>
   10a94:	eb000129 	bl	10f40 <__aeabi_read_tp>
   10a98:	e79f3003 	ldr	r3, [pc, r3]
   10a9c:	e7903003 	ldr	r3, [r0, r3]
   10aa0:	e3530009 	cmp	r3, #9
   10aa4:	1afffff7 	bne	10a88 <check_one_fd+0x20>
   10aa8:	e2043003 	and	r3, r4, #3
   10aac:	e3530001 	cmp	r3, #1
   10ab0:	13a09000 	movne	r9, #0
   10ab4:	159f808c 	ldrne	r8, [pc, #140]	; 10b48 <check_one_fd+0xe0>
   10ab8:	159f008c 	ldrne	r0, [pc, #140]	; 10b4c <check_one_fd+0xe4>
   10abc:	059f008c 	ldreq	r0, [pc, #140]	; 10b50 <check_one_fd+0xe8>
   10ac0:	059f808c 	ldreq	r8, [pc, #140]	; 10b54 <check_one_fd+0xec>
   10ac4:	03a09000 	moveq	r9, #0
   10ac8:	e1a01004 	mov	r1, r4
   10acc:	e3a02000 	mov	r2, #0
   10ad0:	e3a07005 	mov	r7, #5
   10ad4:	ef000000 	svc	0x00000000
   10ad8:	e3700a01 	cmn	r0, #4096	; 0x1000
   10adc:	e1a03000 	mov	r3, r0
   10ae0:	8a000010 	bhi	10b28 <check_one_fd+0xc0>
   10ae4:	e1550003 	cmp	r5, r3
   10ae8:	1a00000d 	bne	10b24 <check_one_fd+0xbc>
   10aec:	e1a01005 	mov	r1, r5
   10af0:	e1a0200d 	mov	r2, sp
   10af4:	e3a00003 	mov	r0, #3
   10af8:	eb005c9d 	bl	27d74 <___fxstat64>
   10afc:	e3500000 	cmp	r0, #0
   10b00:	1a000007 	bne	10b24 <check_one_fd+0xbc>
   10b04:	e59d3010 	ldr	r3, [sp, #16]
   10b08:	e2033a0f 	and	r3, r3, #61440	; 0xf000
   10b0c:	e3530a02 	cmp	r3, #8192	; 0x2000
   10b10:	1a000003 	bne	10b24 <check_one_fd+0xbc>
   10b14:	e1cd22d0 	ldrd	r2, [sp, #32]
   10b18:	e1530009 	cmp	r3, r9
   10b1c:	01520008 	cmpeq	r2, r8
   10b20:	0affffd8 	beq	10a88 <check_one_fd+0x20>
   10b24:	e7f000f0 	udf	#0
   10b28:	e59f2028 	ldr	r2, [pc, #40]	; 10b58 <check_one_fd+0xf0>
   10b2c:	e2601000 	rsb	r1, r0, #0
   10b30:	e3e03000 	mvn	r3, #0
   10b34:	e79f2002 	ldr	r2, [pc, r2]
   10b38:	eb000100 	bl	10f40 <__aeabi_read_tp>
   10b3c:	e7801002 	str	r1, [r0, r2]
   10b40:	eaffffe7 	b	10ae4 <check_one_fd+0x7c>
   10b44:	000743f8 	.word	0x000743f8
   10b48:	00000103 	.word	0x00000103
   10b4c:	0006fc44 	.word	0x0006fc44
   10b50:	0006fc38 	.word	0x0006fc38
   10b54:	00000107 	.word	0x00000107
   10b58:	0007435c 	.word	0x0007435c

00010b5c <__libc_check_standard_fds>:
   10b5c:	e92d4010 	push	{r4, lr}
   10b60:	e3a00000 	mov	r0, #0
   10b64:	e59f101c 	ldr	r1, [pc, #28]	; 10b88 <__libc_check_standard_fds+0x2c>
   10b68:	ebffffbe 	bl	10a68 <check_one_fd>
   10b6c:	e3a01902 	mov	r1, #32768	; 0x8000
   10b70:	e3a00001 	mov	r0, #1
   10b74:	ebffffbb 	bl	10a68 <check_one_fd>
   10b78:	e3a01902 	mov	r1, #32768	; 0x8000
   10b7c:	e3a00002 	mov	r0, #2
   10b80:	e8bd4010 	pop	{r4, lr}
   10b84:	eaffffb7 	b	10a68 <check_one_fd>
   10b88:	00008001 	.word	0x00008001

00010b8c <__libc_setup_tls>:
   10b8c:	e59f31dc 	ldr	r3, [pc, #476]	; 10d70 <__libc_setup_tls+0x1e4>
   10b90:	e92d4ff0 	push	{r4, r5, r6, r7, r8, r9, sl, fp, lr}
   10b94:	e1a05001 	mov	r5, r1
   10b98:	e5933000 	ldr	r3, [r3]
   10b9c:	e24dd01c 	sub	sp, sp, #28
   10ba0:	e3530000 	cmp	r3, #0
   10ba4:	0a00001c 	beq	10c1c <__libc_setup_tls+0x90>
   10ba8:	e59f21c4 	ldr	r2, [pc, #452]	; 10d74 <__libc_setup_tls+0x1e8>
   10bac:	e5921000 	ldr	r1, [r2]
   10bb0:	e0831281 	add	r1, r3, r1, lsl #5
   10bb4:	e1510003 	cmp	r1, r3
   10bb8:	8a000003 	bhi	10bcc <__libc_setup_tls+0x40>
   10bbc:	ea000015 	b	10c18 <__libc_setup_tls+0x8c>
   10bc0:	e2833020 	add	r3, r3, #32
   10bc4:	e1510003 	cmp	r1, r3
   10bc8:	9a000012 	bls	10c18 <__libc_setup_tls+0x8c>
   10bcc:	e5932000 	ldr	r2, [r3]
   10bd0:	e3520007 	cmp	r2, #7
   10bd4:	1afffff9 	bne	10bc0 <__libc_setup_tls+0x34>
   10bd8:	e593401c 	ldr	r4, [r3, #28]
   10bdc:	e5932014 	ldr	r2, [r3, #20]
   10be0:	e1550004 	cmp	r5, r4
   10be4:	e58d2000 	str	r2, [sp]
   10be8:	e5932010 	ldr	r2, [r3, #16]
   10bec:	e5933008 	ldr	r3, [r3, #8]
   10bf0:	31a05004 	movcc	r5, r4
   10bf4:	e3540000 	cmp	r4, #0
   10bf8:	e58d3008 	str	r3, [sp, #8]
   10bfc:	12443001 	subne	r3, r4, #1
   10c00:	e58d2004 	str	r2, [sp, #4]
   10c04:	158d300c 	strne	r3, [sp, #12]
   10c08:	10800003 	addne	r0, r0, r3
   10c0c:	158d4010 	strne	r4, [sp, #16]
   10c10:	1a000008 	bne	10c38 <__libc_setup_tls+0xac>
   10c14:	ea000003 	b	10c28 <__libc_setup_tls+0x9c>
   10c18:	e3a03000 	mov	r3, #0
   10c1c:	e58d3008 	str	r3, [sp, #8]
   10c20:	e58d3004 	str	r3, [sp, #4]
   10c24:	e58d3000 	str	r3, [sp]
   10c28:	e3a04001 	mov	r4, #1
   10c2c:	e3a03000 	mov	r3, #0
   10c30:	e58d300c 	str	r3, [sp, #12]
   10c34:	e58d3010 	str	r3, [sp, #16]
   10c38:	e1a01004 	mov	r1, r4
   10c3c:	eb016ff6 	bl	6cc1c <__udivsi3>
   10c40:	e59f3130 	ldr	r3, [pc, #304]	; 10d78 <__libc_setup_tls+0x1ec>
   10c44:	e59f9130 	ldr	r9, [pc, #304]	; 10d7c <__libc_setup_tls+0x1f0>
   10c48:	e58d3014 	str	r3, [sp, #20]
   10c4c:	e5932000 	ldr	r2, [r3]
   10c50:	e59d3000 	ldr	r3, [sp]
   10c54:	e2822d13 	add	r2, r2, #1216	; 0x4c0
   10c58:	e0822003 	add	r2, r2, r3
   10c5c:	e0822005 	add	r2, r2, r5
   10c60:	e2656000 	rsb	r6, r5, #0
   10c64:	e3a0b001 	mov	fp, #1
   10c68:	e2899008 	add	r9, r9, #8
   10c6c:	e59f710c 	ldr	r7, [pc, #268]	; 10d80 <__libc_setup_tls+0x1f4>
   10c70:	e00a0094 	mul	sl, r4, r0
   10c74:	e082000a 	add	r0, r2, sl
   10c78:	eb005f57 	bl	289dc <__sbrk>
   10c7c:	e59f2100 	ldr	r2, [pc, #256]	; 10d84 <__libc_setup_tls+0x1f8>
   10c80:	e245c001 	sub	ip, r5, #1
   10c84:	e5c9b00c 	strb	fp, [r9, #12]
   10c88:	e5928000 	ldr	r8, [r2]
   10c8c:	e3a0203e 	mov	r2, #62	; 0x3e
   10c90:	e5092008 	str	r2, [r9, #-8]
   10c94:	e588a23c 	str	sl, [r8, #572]	; 0x23c
   10c98:	e59d2004 	ldr	r2, [sp, #4]
   10c9c:	e59d1008 	ldr	r1, [sp, #8]
   10ca0:	e2800d13 	add	r0, r0, #1216	; 0x4c0
   10ca4:	e080000c 	add	r0, r0, ip
   10ca8:	e0066000 	and	r6, r6, r0
   10cac:	e086c00a 	add	ip, r6, sl
   10cb0:	e589c008 	str	ip, [r9, #8]
   10cb4:	e1a0000c 	mov	r0, ip
   10cb8:	eb005774 	bl	26a90 <memcpy>
   10cbc:	e5869000 	str	r9, [r6]
   10cc0:	e1a00006 	mov	r0, r6
   10cc4:	ef000000 	svc	0x00000000
   10cc8:	e3700a01 	cmn	r0, #4096	; 0x1000
   10ccc:	9a000001 	bls	10cd8 <__libc_setup_tls+0x14c>
   10cd0:	e59f00b0 	ldr	r0, [pc, #176]	; 10d88 <__libc_setup_tls+0x1fc>
   10cd4:	eb00231c 	bl	1994c <__libc_fatal>
   10cd8:	e59d0008 	ldr	r0, [sp, #8]
   10cdc:	e59d3010 	ldr	r3, [sp, #16]
   10ce0:	e5880228 	str	r0, [r8, #552]	; 0x228
   10ce4:	e59d0004 	ldr	r0, [sp, #4]
   10ce8:	e59f209c 	ldr	r2, [pc, #156]	; 10d8c <__libc_setup_tls+0x200>
   10cec:	e59fc09c 	ldr	ip, [pc, #156]	; 10d90 <__libc_setup_tls+0x204>
   10cf0:	e59f109c 	ldr	r1, [pc, #156]	; 10d94 <__libc_setup_tls+0x208>
   10cf4:	e5883234 	str	r3, [r8, #564]	; 0x234
   10cf8:	e588022c 	str	r0, [r8, #556]	; 0x22c
   10cfc:	e59d3000 	ldr	r3, [sp]
   10d00:	e59d000c 	ldr	r0, [sp, #12]
   10d04:	e3a0e040 	mov	lr, #64	; 0x40
   10d08:	e5883230 	str	r3, [r8, #560]	; 0x230
   10d0c:	e582e000 	str	lr, [r2]
   10d10:	e58c2000 	str	r2, [ip]
   10d14:	e581b000 	str	fp, [r1]
   10d18:	e5828014 	str	r8, [r2, #20]
   10d1c:	e1a01004 	mov	r1, r4
   10d20:	e588b240 	str	fp, [r8, #576]	; 0x240
   10d24:	e0830000 	add	r0, r3, r0
   10d28:	eb016fbb 	bl	6cc1c <__udivsi3>
   10d2c:	e59d3014 	ldr	r3, [sp, #20]
   10d30:	e59f1060 	ldr	r1, [pc, #96]	; 10d98 <__libc_setup_tls+0x20c>
   10d34:	e59fe060 	ldr	lr, [pc, #96]	; 10d9c <__libc_setup_tls+0x210>
   10d38:	e5932000 	ldr	r2, [r3]
   10d3c:	e59fc05c 	ldr	ip, [pc, #92]	; 10da0 <__libc_setup_tls+0x214>
   10d40:	e282200f 	add	r2, r2, #15
   10d44:	e3550010 	cmp	r5, #16
   10d48:	33a05010 	movcc	r5, #16
   10d4c:	e58e5000 	str	r5, [lr]
   10d50:	e58cb000 	str	fp, [ip]
   10d54:	e020a490 	mla	r0, r0, r4, sl
   10d58:	e0822000 	add	r2, r2, r0
   10d5c:	e3c2200f 	bic	r2, r2, #15
   10d60:	e5810000 	str	r0, [r1]
   10d64:	e5832000 	str	r2, [r3]
   10d68:	e28dd01c 	add	sp, sp, #28
   10d6c:	e8bd8ff0 	pop	{r4, r5, r6, r7, r8, r9, sl, fp, pc}
   10d70:	000867ec 	.word	0x000867ec
   10d74:	0008680c 	.word	0x0008680c
   10d78:	00084ee0 	.word	0x00084ee0
   10d7c:	00086588 	.word	0x00086588
   10d80:	000f0005 	.word	0x000f0005
   10d84:	00085a78 	.word	0x00085a78
   10d88:	0006fc50 	.word	0x0006fc50
   10d8c:	00085d44 	.word	0x00085d44
   10d90:	00086788 	.word	0x00086788
   10d94:	00086584 	.word	0x00086584
   10d98:	0008657c 	.word	0x0008657c
   10d9c:	00086580 	.word	0x00086580
   10da0:	00086794 	.word	0x00086794

00010da4 <_dl_tls_setup>:
   10da4:	e59f1054 	ldr	r1, [pc, #84]	; 10e00 <_dl_tls_setup+0x5c>
   10da8:	e92d4070 	push	{r4, r5, r6, lr}
   10dac:	e3a00000 	mov	r0, #0
   10db0:	e5913000 	ldr	r3, [r1]
   10db4:	e59f2048 	ldr	r2, [pc, #72]	; 10e04 <_dl_tls_setup+0x60>
   10db8:	e59f6048 	ldr	r6, [pc, #72]	; 10e08 <_dl_tls_setup+0x64>
   10dbc:	e283300f 	add	r3, r3, #15
   10dc0:	e59f5044 	ldr	r5, [pc, #68]	; 10e0c <_dl_tls_setup+0x68>
   10dc4:	e59f4044 	ldr	r4, [pc, #68]	; 10e10 <_dl_tls_setup+0x6c>
   10dc8:	e59fe044 	ldr	lr, [pc, #68]	; 10e14 <_dl_tls_setup+0x70>
   10dcc:	e59fc044 	ldr	ip, [pc, #68]	; 10e18 <_dl_tls_setup+0x74>
   10dd0:	e3c3300f 	bic	r3, r3, #15
   10dd4:	e5813000 	str	r3, [r1]
   10dd8:	e3a01040 	mov	r1, #64	; 0x40
   10ddc:	e3a03001 	mov	r3, #1
   10de0:	e5821000 	str	r1, [r2]
   10de4:	e5862000 	str	r2, [r6]
   10de8:	e3a02010 	mov	r2, #16
   10dec:	e5853000 	str	r3, [r5]
   10df0:	e5843000 	str	r3, [r4]
   10df4:	e58e0000 	str	r0, [lr]
   10df8:	e58c2000 	str	r2, [ip]
   10dfc:	e8bd8070 	pop	{r4, r5, r6, pc}
   10e00:	00084ee0 	.word	0x00084ee0
   10e04:	00085d44 	.word	0x00085d44
   10e08:	00086788 	.word	0x00086788
   10e0c:	00086584 	.word	0x00086584
   10e10:	00086794 	.word	0x00086794
   10e14:	0008657c 	.word	0x0008657c
   10e18:	00086580 	.word	0x00086580

00010e1c <__pthread_initialize_minimal>:
   10e1c:	e3a01010 	mov	r1, #16
   10e20:	e3a00008 	mov	r0, #8
   10e24:	eaffff58 	b	10b8c <__libc_setup_tls>

00010e28 <__tls_get_addr>:
   10e28:	e52de004 	push	{lr}		; (str lr, [sp, #-4]!)
   10e2c:	e1a03000 	mov	r3, r0
   10e30:	eb000042 	bl	10f40 <__aeabi_read_tp>
   10e34:	e5902000 	ldr	r2, [r0]
   10e38:	e5933004 	ldr	r3, [r3, #4]
   10e3c:	e5920008 	ldr	r0, [r2, #8]
   10e40:	e0800003 	add	r0, r0, r3
   10e44:	e49df004 	pop	{pc}		; (ldr pc, [sp], #4)

00010e48 <__libc_csu_init>:
   10e48:	e92d47f0 	push	{r4, r5, r6, r7, r8, r9, sl, lr}
   10e4c:	e1a06000 	mov	r6, r0
   10e50:	e59f907c 	ldr	r9, [pc, #124]	; 10ed4 <__libc_csu_init+0x8c>
   10e54:	e59f507c 	ldr	r5, [pc, #124]	; 10ed8 <__libc_csu_init+0x90>
   10e58:	e1a07001 	mov	r7, r1
   10e5c:	e0499005 	sub	r9, r9, r5
   10e60:	e1a08002 	mov	r8, r2
   10e64:	e1b09149 	asrs	r9, r9, #2
   10e68:	13a04000 	movne	r4, #0
   10e6c:	0a000007 	beq	10e90 <__libc_csu_init+0x48>
   10e70:	e2844001 	add	r4, r4, #1
   10e74:	e4953004 	ldr	r3, [r5], #4
   10e78:	e1a02008 	mov	r2, r8
   10e7c:	e1a01007 	mov	r1, r7
   10e80:	e1a00006 	mov	r0, r6
   10e84:	e12fff33 	blx	r3
   10e88:	e1590004 	cmp	r9, r4
   10e8c:	1afffff7 	bne	10e70 <__libc_csu_init+0x28>
   10e90:	e59f9044 	ldr	r9, [pc, #68]	; 10edc <__libc_csu_init+0x94>
   10e94:	e59f5044 	ldr	r5, [pc, #68]	; 10ee0 <__libc_csu_init+0x98>
   10e98:	ebfffc9e 	bl	10118 <__rel_iplt_end>
   10e9c:	e0499005 	sub	r9, r9, r5
   10ea0:	e1b09149 	asrs	r9, r9, #2
   10ea4:	13a04000 	movne	r4, #0
   10ea8:	0a000008 	beq	10ed0 <__libc_csu_init+0x88>
   10eac:	e2844001 	add	r4, r4, #1
   10eb0:	e4953004 	ldr	r3, [r5], #4
   10eb4:	e1a02008 	mov	r2, r8
   10eb8:	e1a01007 	mov	r1, r7
   10ebc:	e1a00006 	mov	r0, r6
   10ec0:	e12fff33 	blx	r3
   10ec4:	e1590004 	cmp	r9, r4
   10ec8:	1afffff7 	bne	10eac <__libc_csu_init+0x64>
   10ecc:	e8bd87f0 	pop	{r4, r5, r6, r7, r8, r9, sl, pc}
   10ed0:	e8bd87f0 	pop	{r4, r5, r6, r7, r8, r9, sl, pc}
   10ed4:	00084dd0 	.word	0x00084dd0
   10ed8:	00084dd0 	.word	0x00084dd0
   10edc:	00084dd4 	.word	0x00084dd4
   10ee0:	00084dd0 	.word	0x00084dd0

00010ee4 <__libc_csu_fini>:
   10ee4:	e92d4070 	push	{r4, r5, r6, lr}
   10ee8:	e59f5028 	ldr	r5, [pc, #40]	; 10f18 <__libc_csu_fini+0x34>
   10eec:	e59f4028 	ldr	r4, [pc, #40]	; 10f1c <__libc_csu_fini+0x38>
   10ef0:	e0444005 	sub	r4, r4, r5
   10ef4:	e1b04144 	asrs	r4, r4, #2
   10ef8:	10855104 	addne	r5, r5, r4, lsl #2
   10efc:	0a000003 	beq	10f10 <__libc_csu_fini+0x2c>
   10f00:	e5353004 	ldr	r3, [r5, #-4]!
   10f04:	e12fff33 	blx	r3
   10f08:	e2544001 	subs	r4, r4, #1
   10f0c:	1afffffb 	bne	10f00 <__libc_csu_fini+0x1c>
   10f10:	e8bd4070 	pop	{r4, r5, r6, lr}
   10f14:	ea017af1 	b	6fae0 <_fini>
   10f18:	00084dd4 	.word	0x00084dd4
   10f1c:	00084ddc 	.word	0x00084ddc

00010f20 <__errno_location>:
   10f20:	e59f3010 	ldr	r3, [pc, #16]	; 10f38 <__errno_location+0x18>
   10f24:	e52de004 	push	{lr}		; (str lr, [sp, #-4]!)
   10f28:	eb000004 	bl	10f40 <__aeabi_read_tp>
   10f2c:	e79f3003 	ldr	r3, [pc, r3]
   10f30:	e0800003 	add	r0, r0, r3
   10f34:	e49df004 	pop	{pc}		; (ldr pc, [sp], #4)
   10f38:	00073f64 	.word	0x00073f64
   10f3c:	00000000 	.word	0x00000000

00010f40 <__aeabi_read_tp>:
   10f40:	e3e00a0f 	mvn	r0, #61440	; 0xf000
   10f44:	e240f01f 	sub	pc, r0, #31

00010f48 <__assert_fail_base>:
   10f48:	e59fc140 	ldr	ip, [pc, #320]	; 11090 <__assert_fail_base+0x148>
   10f4c:	e92d4080 	push	{r7, lr}
   10f50:	e24dd020 	sub	sp, sp, #32
   10f54:	e35c0000 	cmp	ip, #0
   10f58:	e1a05000 	mov	r5, r0
   10f5c:	e1a06001 	mov	r6, r1
   10f60:	e1a07002 	mov	r7, r2
   10f64:	e1a08003 	mov	r8, r3
   10f68:	e59d4028 	ldr	r4, [sp, #40]	; 0x28
   10f6c:	0a000002 	beq	10f7c <__assert_fail_base+0x34>
   10f70:	e3a01000 	mov	r1, #0
   10f74:	e3a00001 	mov	r0, #1
   10f78:	e1a00000 	nop			; (mov r0, r0)
   10f7c:	e59f3110 	ldr	r3, [pc, #272]	; 11094 <__assert_fail_base+0x14c>
   10f80:	e59f1110 	ldr	r1, [pc, #272]	; 11098 <__assert_fail_base+0x150>
   10f84:	e59fc110 	ldr	ip, [pc, #272]	; 1109c <__assert_fail_base+0x154>
   10f88:	e5932000 	ldr	r2, [r3]
   10f8c:	e5d20000 	ldrb	r0, [r2]
   10f90:	e58d6010 	str	r6, [sp, #16]
   10f94:	e88d0180 	stm	sp, {r7, r8}
   10f98:	e3500000 	cmp	r0, #0
   10f9c:	11a03001 	movne	r3, r1
   10fa0:	01a0300c 	moveq	r3, ip
   10fa4:	e3540000 	cmp	r4, #0
   10fa8:	01a0400c 	moveq	r4, ip
   10fac:	01a01004 	moveq	r1, r4
   10fb0:	e28d001c 	add	r0, sp, #28
   10fb4:	e58d100c 	str	r1, [sp, #12]
   10fb8:	e58d0014 	str	r0, [sp, #20]
   10fbc:	e58d4008 	str	r4, [sp, #8]
   10fc0:	e1a01005 	mov	r1, r5
   10fc4:	e28d0018 	add	r0, sp, #24
   10fc8:	eb001832 	bl	17098 <___asprintf>
   10fcc:	e3500000 	cmp	r0, #0
   10fd0:	ba000029 	blt	1107c <__assert_fail_base+0x134>
   10fd4:	e59d2018 	ldr	r2, [sp, #24]
   10fd8:	e59f10c0 	ldr	r1, [pc, #192]	; 110a0 <__assert_fail_base+0x158>
   10fdc:	e3a00000 	mov	r0, #0
   10fe0:	eb001884 	bl	171f8 <__fxprintf>
   10fe4:	e59f30b8 	ldr	r3, [pc, #184]	; 110a4 <__assert_fail_base+0x15c>
   10fe8:	e5930000 	ldr	r0, [r3]
   10fec:	eb001a0f 	bl	17830 <_IO_fflush>
   10ff0:	e59f30b0 	ldr	r3, [pc, #176]	; 110a8 <__assert_fail_base+0x160>
   10ff4:	e59dc01c 	ldr	ip, [sp, #28]
   10ff8:	e3a00000 	mov	r0, #0
   10ffc:	e5933000 	ldr	r3, [r3]
   11000:	e3e02000 	mvn	r2, #0
   11004:	e083c00c 	add	ip, r3, ip
   11008:	e2633000 	rsb	r3, r3, #0
   1100c:	e00cc003 	and	ip, ip, r3
   11010:	e58d2000 	str	r2, [sp]
   11014:	e1a0100c 	mov	r1, ip
   11018:	e58d0004 	str	r0, [sp, #4]
   1101c:	e3a03022 	mov	r3, #34	; 0x22
   11020:	e3a02003 	mov	r2, #3
   11024:	e58dc01c 	str	ip, [sp, #28]
   11028:	eb005eb4 	bl	28b00 <__mmap>
   1102c:	e3700001 	cmn	r0, #1
   11030:	e1a04000 	mov	r4, r0
   11034:	0a00000d 	beq	11070 <__assert_fail_base+0x128>
   11038:	e59d301c 	ldr	r3, [sp, #28]
   1103c:	e59d1018 	ldr	r1, [sp, #24]
   11040:	e4803004 	str	r3, [r0], #4
   11044:	eb00504d 	bl	25180 <strcpy>
   11048:	e59f305c 	ldr	r3, [pc, #92]	; 110ac <__assert_fail_base+0x164>
   1104c:	e1930f9f 	ldrex	r0, [r3]
   11050:	e1832f94 	strex	r2, r4, [r3]
   11054:	e3520000 	cmp	r2, #0
   11058:	1afffffb 	bne	1104c <__assert_fail_base+0x104>
   1105c:	e3500000 	cmp	r0, #0
   11060:	ee070fba 	mcr	15, 0, r0, cr7, cr10, {5}
   11064:	0a000001 	beq	11070 <__assert_fail_base+0x128>
   11068:	e5901000 	ldr	r1, [r0]
   1106c:	eb005ee7 	bl	28c10 <__munmap>
   11070:	e59d0018 	ldr	r0, [sp, #24]
   11074:	eb004952 	bl	235c4 <__cfree>
   11078:	eb001186 	bl	15698 <abort>
   1107c:	e3a02012 	mov	r2, #18
   11080:	e59f1028 	ldr	r1, [pc, #40]	; 110b0 <__assert_fail_base+0x168>
   11084:	e3a00002 	mov	r0, #2
   11088:	eb005b9c 	bl	27f00 <__libc_write>
   1108c:	eafffff9 	b	11078 <__assert_fail_base+0x130>
   11090:	00000000 	.word	0x00000000
   11094:	000857b0 	.word	0x000857b0
   11098:	00081154 	.word	0x00081154
   1109c:	00081b04 	.word	0x00081b04
   110a0:	000836d0 	.word	0x000836d0
   110a4:	000852fc 	.word	0x000852fc
   110a8:	000857b8 	.word	0x000857b8
   110ac:	00086000 	.word	0x00086000
   110b0:	0006fc8c 	.word	0x0006fc8c

000110b4 <__assert_fail>:
   110b4:	e92d4080 	push	{r7, lr}
   110b8:	e24dd008 	sub	sp, sp, #8
   110bc:	e1a07003 	mov	r7, r3
   110c0:	e1a04000 	mov	r4, r0
   110c4:	e1a05001 	mov	r5, r1
   110c8:	e1a06002 	mov	r6, r2
   110cc:	e59f101c 	ldr	r1, [pc, #28]	; 110f0 <__assert_fail+0x3c>
   110d0:	e3a02005 	mov	r2, #5
   110d4:	e59f0018 	ldr	r0, [pc, #24]	; 110f4 <__assert_fail+0x40>
   110d8:	eb000006 	bl	110f8 <__dcgettext>
   110dc:	e58d7000 	str	r7, [sp]
   110e0:	e1a03006 	mov	r3, r6
   110e4:	e1a02005 	mov	r2, r5
   110e8:	e1a01004 	mov	r1, r4
   110ec:	ebffff95 	bl	10f48 <__assert_fail_base>
   110f0:	0006fc60 	.word	0x0006fc60
   110f4:	0007e700 	.word	0x0007e700

000110f8 <__dcgettext>:
   110f8:	e52de004 	push	{lr}		; (str lr, [sp, #-4]!)
   110fc:	e24dd00c 	sub	sp, sp, #12
   11100:	e3a03000 	mov	r3, #0
   11104:	e58d2004 	str	r2, [sp, #4]
   11108:	e58d3000 	str	r3, [sp]
   1110c:	e1a02003 	mov	r2, r3
   11110:	eb000346 	bl	11e30 <__dcigettext>
   11114:	e28dd00c 	add	sp, sp, #12
   11118:	e49df004 	pop	{pc}		; (ldr pc, [sp], #4)

0001111c <plural_eval>:
   1111c:	e92d41f0 	push	{r4, r5, r6, r7, r8, lr}
   11120:	e1a05000 	mov	r5, r0
   11124:	e1a04001 	mov	r4, r1
   11128:	e5953000 	ldr	r3, [r5]
   1112c:	e3530003 	cmp	r3, #3
   11130:	979ff103 	ldrls	pc, [pc, r3, lsl #2]
   11134:	ea000016 	b	11194 <plural_eval+0x78>
   11138:	000111b4 	.word	0x000111b4
   1113c:	0001119c 	.word	0x0001119c
   11140:	00011168 	.word	0x00011168
   11144:	00011148 	.word	0x00011148
   11148:	e5950008 	ldr	r0, [r5, #8]
   1114c:	e1a01004 	mov	r1, r4
   11150:	ebfffff1 	bl	1111c <plural_eval>
   11154:	e3500000 	cmp	r0, #0
   11158:	13a00003 	movne	r0, #3
   1115c:	03a00004 	moveq	r0, #4
   11160:	e7955100 	ldr	r5, [r5, r0, lsl #2]
   11164:	eaffffef 	b	11128 <plural_eval+0xc>
   11168:	e1a01004 	mov	r1, r4
   1116c:	e5950008 	ldr	r0, [r5, #8]
   11170:	ebffffe9 	bl	1111c <plural_eval>
   11174:	e5956004 	ldr	r6, [r5, #4]
   11178:	e356000f 	cmp	r6, #15
   1117c:	e1a07000 	mov	r7, r0
   11180:	0a000014 	beq	111d8 <plural_eval+0xbc>
   11184:	e356000e 	cmp	r6, #14
   11188:	1a00001c 	bne	11200 <plural_eval+0xe4>
   1118c:	e3500000 	cmp	r0, #0
   11190:	1a000014 	bne	111e8 <plural_eval+0xcc>
   11194:	e3a00000 	mov	r0, #0
   11198:	e8bd81f0 	pop	{r4, r5, r6, r7, r8, pc}
   1119c:	e1a01004 	mov	r1, r4
   111a0:	e5950008 	ldr	r0, [r5, #8]
   111a4:	ebffffdc 	bl	1111c <plural_eval>
   111a8:	e16f0f10 	clz	r0, r0
   111ac:	e1a002a0 	lsr	r0, r0, #5
   111b0:	e8bd81f0 	pop	{r4, r5, r6, r7, r8, pc}
   111b4:	e5953004 	ldr	r3, [r5, #4]
   111b8:	e3530000 	cmp	r3, #0
   111bc:	0a000003 	beq	111d0 <plural_eval+0xb4>
   111c0:	e3530001 	cmp	r3, #1
   111c4:	1afffff2 	bne	11194 <plural_eval+0x78>
   111c8:	e5950008 	ldr	r0, [r5, #8]
   111cc:	e8bd81f0 	pop	{r4, r5, r6, r7, r8, pc}
   111d0:	e1a00004 	mov	r0, r4
   111d4:	e8bd81f0 	pop	{r4, r5, r6, r7, r8, pc}
   111d8:	e3500000 	cmp	r0, #0
   111dc:	0a000001 	beq	111e8 <plural_eval+0xcc>
   111e0:	e3a00001 	mov	r0, #1
   111e4:	e8bd81f0 	pop	{r4, r5, r6, r7, r8, pc}
   111e8:	e1a01004 	mov	r1, r4
   111ec:	e595000c 	ldr	r0, [r5, #12]
   111f0:	ebffffc9 	bl	1111c <plural_eval>
   111f4:	e2900000 	adds	r0, r0, #0
   111f8:	13a00001 	movne	r0, #1
   111fc:	e8bd81f0 	pop	{r4, r5, r6, r7, r8, pc}
   11200:	e1a01004 	mov	r1, r4
   11204:	e595000c 	ldr	r0, [r5, #12]
   11208:	e2466003 	sub	r6, r6, #3
   1120c:	ebffffc2 	bl	1111c <plural_eval>
   11210:	e356000a 	cmp	r6, #10
   11214:	979ff106 	ldrls	pc, [pc, r6, lsl #2]
   11218:	eaffffdd 	b	11194 <plural_eval+0x78>
   1121c:	000112d8 	.word	0x000112d8
   11220:	000112c8 	.word	0x000112c8
   11224:	000112b4 	.word	0x000112b4
   11228:	000112ac 	.word	0x000112ac
   1122c:	000112a4 	.word	0x000112a4
   11230:	00011294 	.word	0x00011294
   11234:	00011284 	.word	0x00011284
   11238:	00011274 	.word	0x00011274
   1123c:	00011264 	.word	0x00011264
   11240:	00011254 	.word	0x00011254
   11244:	00011248 	.word	0x00011248
   11248:	e0570000 	subs	r0, r7, r0
   1124c:	13a00001 	movne	r0, #1
   11250:	e8bd81f0 	pop	{r4, r5, r6, r7, r8, pc}
   11254:	e0470000 	sub	r0, r7, r0
   11258:	e16f0f10 	clz	r0, r0
   1125c:	e1a002a0 	lsr	r0, r0, #5
   11260:	e8bd81f0 	pop	{r4, r5, r6, r7, r8, pc}
   11264:	e1570000 	cmp	r7, r0
   11268:	33a00000 	movcc	r0, #0
   1126c:	23a00001 	movcs	r0, #1
   11270:	e8bd81f0 	pop	{r4, r5, r6, r7, r8, pc}
   11274:	e1570000 	cmp	r7, r0
   11278:	83a00000 	movhi	r0, #0
   1127c:	93a00001 	movls	r0, #1
   11280:	e8bd81f0 	pop	{r4, r5, r6, r7, r8, pc}
   11284:	e1570000 	cmp	r7, r0
   11288:	93a00000 	movls	r0, #0
   1128c:	83a00001 	movhi	r0, #1
   11290:	e8bd81f0 	pop	{r4, r5, r6, r7, r8, pc}
   11294:	e1570000 	cmp	r7, r0
   11298:	23a00000 	movcs	r0, #0
   1129c:	33a00001 	movcc	r0, #1
   112a0:	e8bd81f0 	pop	{r4, r5, r6, r7, r8, pc}
   112a4:	e0470000 	sub	r0, r7, r0
   112a8:	e8bd81f0 	pop	{r4, r5, r6, r7, r8, pc}
   112ac:	e0870000 	add	r0, r7, r0
   112b0:	e8bd81f0 	pop	{r4, r5, r6, r7, r8, pc}
   112b4:	e1a01000 	mov	r1, r0
   112b8:	e1a00007 	mov	r0, r7
   112bc:	eb016ed1 	bl	6ce08 <__aeabi_uidivmod>
   112c0:	e1a00001 	mov	r0, r1
   112c4:	e8bd81f0 	pop	{r4, r5, r6, r7, r8, pc}
   112c8:	e1a01000 	mov	r1, r0
   112cc:	e1a00007 	mov	r0, r7
   112d0:	eb016e51 	bl	6cc1c <__udivsi3>
   112d4:	e8bd81f0 	pop	{r4, r5, r6, r7, r8, pc}
   112d8:	e0000790 	mul	r0, r0, r7
   112dc:	e8bd81f0 	pop	{r4, r5, r6, r7, r8, pc}

000112e0 <transcmp>:
   112e0:	e5903010 	ldr	r3, [r0, #16]
   112e4:	e92d4070 	push	{r4, r5, r6, lr}
   112e8:	e3530000 	cmp	r3, #0
   112ec:	e1a05000 	mov	r5, r0
   112f0:	e5913010 	ldr	r3, [r1, #16]
   112f4:	e1a04001 	mov	r4, r1
   112f8:	1280001c 	addne	r0, r0, #28
   112fc:	0595001c 	ldreq	r0, [r5, #28]
   11300:	e3530000 	cmp	r3, #0
   11304:	1281101c 	addne	r1, r1, #28
   11308:	0594101c 	ldreq	r1, [r4, #28]
   1130c:	eb004f8a 	bl	2513c <strcmp>
   11310:	e3500000 	cmp	r0, #0
   11314:	18bd8070 	popne	{r4, r5, r6, pc}
   11318:	e5941000 	ldr	r1, [r4]
   1131c:	e5950000 	ldr	r0, [r5]
   11320:	eb004f85 	bl	2513c <strcmp>
   11324:	e3500000 	cmp	r0, #0
   11328:	18bd8070 	popne	{r4, r5, r6, pc}
   1132c:	e5941008 	ldr	r1, [r4, #8]
   11330:	e5950008 	ldr	r0, [r5, #8]
   11334:	eb004f80 	bl	2513c <strcmp>
   11338:	e3500000 	cmp	r0, #0
   1133c:	05943004 	ldreq	r3, [r4, #4]
   11340:	05950004 	ldreq	r0, [r5, #4]
   11344:	00400003 	subeq	r0, r0, r3
   11348:	e8bd8070 	pop	{r4, r5, r6, pc}

0001134c <plural_lookup.isra.1>:
   1134c:	e92d41f0 	push	{r4, r5, r6, r7, r8, lr}
   11350:	e1a06000 	mov	r6, r0
   11354:	e5900060 	ldr	r0, [r0, #96]	; 0x60
   11358:	e1a05003 	mov	r5, r3
   1135c:	e1a07002 	mov	r7, r2
   11360:	ebffff6d 	bl	1111c <plural_eval>
   11364:	e5963064 	ldr	r3, [r6, #100]	; 0x64
   11368:	e1500003 	cmp	r0, r3
   1136c:	2a00000b 	bcs	113a0 <plural_lookup.isra.1+0x54>
   11370:	e1a04000 	mov	r4, r0
   11374:	e0875005 	add	r5, r7, r5
   11378:	e1a02007 	mov	r2, r7
   1137c:	e3a06000 	mov	r6, #0
   11380:	e2544001 	subs	r4, r4, #1
   11384:	e1a00002 	mov	r0, r2
   11388:	e1a01006 	mov	r1, r6
   1138c:	3a000005 	bcc	113a8 <plural_lookup.isra.1+0x5c>
   11390:	eb00568a 	bl	26dc0 <__rawmemchr>
   11394:	e2802001 	add	r2, r0, #1
   11398:	e1520005 	cmp	r2, r5
   1139c:	3afffff7 	bcc	11380 <plural_lookup.isra.1+0x34>
   113a0:	e1a00007 	mov	r0, r7
   113a4:	e8bd81f0 	pop	{r4, r5, r6, r7, r8, pc}
   113a8:	e8bd81f0 	pop	{r4, r5, r6, r7, r8, pc}

000113ac <_nl_find_msg>:
   113ac:	e92d4ff0 	push	{r4, r5, r6, r7, r8, r9, sl, fp, lr}
   113b0:	e1a08002 	mov	r8, r2
   113b4:	e28db020 	add	fp, sp, #32
   113b8:	e24dd03c 	sub	sp, sp, #60	; 0x3c
   113bc:	e5902004 	ldr	r2, [r0, #4]
   113c0:	e50b0048 	str	r0, [fp, #-72]	; 0xffffffb8
   113c4:	e3520000 	cmp	r2, #0
   113c8:	e50b304c 	str	r3, [fp, #-76]	; 0xffffffb4
   113cc:	e50b1050 	str	r1, [fp, #-80]	; 0xffffffb0
   113d0:	da0000c7 	ble	116f4 <_nl_find_msg+0x348>
   113d4:	e51b3048 	ldr	r3, [fp, #-72]	; 0xffffffb8
   113d8:	e5936008 	ldr	r6, [r3, #8]
   113dc:	e3560000 	cmp	r6, #0
   113e0:	0a00005e 	beq	11560 <_nl_find_msg+0x1b4>
   113e4:	e5963030 	ldr	r3, [r6, #48]	; 0x30
   113e8:	e5967014 	ldr	r7, [r6, #20]
   113ec:	e3530000 	cmp	r3, #0
   113f0:	01a05003 	moveq	r5, r3
   113f4:	050b703c 	streq	r7, [fp, #-60]	; 0xffffffc4
   113f8:	050b8038 	streq	r8, [fp, #-56]	; 0xffffffc8
   113fc:	0a000044 	beq	11514 <_nl_find_msg+0x168>
   11400:	e1a00008 	mov	r0, r8
   11404:	eb0050ad 	bl	256c0 <strlen>
   11408:	e1a0a000 	mov	sl, r0
   1140c:	e1a00008 	mov	r0, r8
   11410:	eb001091 	bl	1565c <__hash_string>
   11414:	e596402c 	ldr	r4, [r6, #44]	; 0x2c
   11418:	e1a01004 	mov	r1, r4
   1141c:	e1a09000 	mov	r9, r0
   11420:	eb016e78 	bl	6ce08 <__aeabi_uidivmod>
   11424:	e1a00009 	mov	r0, r9
   11428:	e1a05001 	mov	r5, r1
   1142c:	e2441002 	sub	r1, r4, #2
   11430:	eb016e74 	bl	6ce08 <__aeabi_uidivmod>
   11434:	e5963034 	ldr	r3, [r6, #52]	; 0x34
   11438:	e5969030 	ldr	r9, [r6, #48]	; 0x30
   1143c:	e2812001 	add	r2, r1, #1
   11440:	e1a01002 	mov	r1, r2
   11444:	e0411004 	sub	r1, r1, r4
   11448:	e50b103c 	str	r1, [fp, #-60]	; 0xffffffc4
   1144c:	e1a01008 	mov	r1, r8
   11450:	e50b2038 	str	r2, [fp, #-56]	; 0xffffffc8
   11454:	e1a08003 	mov	r8, r3
   11458:	e0442002 	sub	r2, r4, r2
   1145c:	e1a03001 	mov	r3, r1
   11460:	ea000018 	b	114c8 <_nl_find_msg+0x11c>
   11464:	e596100c 	ldr	r1, [r6, #12]
   11468:	e3510000 	cmp	r1, #0
   1146c:	e5961018 	ldr	r1, [r6, #24]
   11470:	e0810184 	add	r0, r1, r4, lsl #3
   11474:	e7911184 	ldr	r1, [r1, r4, lsl #3]
   11478:	0a00003c 	beq	11570 <_nl_find_msg+0x1c4>
   1147c:	e6bf1f31 	rev	r1, r1
   11480:	e15a0001 	cmp	sl, r1
   11484:	8a00000b 	bhi	114b8 <_nl_find_msg+0x10c>
   11488:	e5900004 	ldr	r0, [r0, #4]
   1148c:	e596c000 	ldr	ip, [r6]
   11490:	e6bf1f30 	rev	r1, r0
   11494:	e08c1001 	add	r1, ip, r1
   11498:	e50b2044 	str	r2, [fp, #-68]	; 0xffffffbc
   1149c:	e1a00003 	mov	r0, r3
   114a0:	e50b3040 	str	r3, [fp, #-64]	; 0xffffffc0
   114a4:	eb004f24 	bl	2513c <strcmp>
   114a8:	e51b3040 	ldr	r3, [fp, #-64]	; 0xffffffc0
   114ac:	e51b2044 	ldr	r2, [fp, #-68]	; 0xffffffbc
   114b0:	e3500000 	cmp	r0, #0
   114b4:	0a000033 	beq	11588 <_nl_find_msg+0x1dc>
   114b8:	e1550002 	cmp	r5, r2
   114bc:	251b103c 	ldrcs	r1, [fp, #-60]	; 0xffffffc4
   114c0:	351b1038 	ldrcc	r1, [fp, #-56]	; 0xffffffc8
   114c4:	e0855001 	add	r5, r5, r1
   114c8:	e7994105 	ldr	r4, [r9, r5, lsl #2]
   114cc:	e3580000 	cmp	r8, #0
   114d0:	16bf4f34 	revne	r4, r4
   114d4:	e3540000 	cmp	r4, #0
   114d8:	0a000020 	beq	11560 <_nl_find_msg+0x1b4>
   114dc:	e2444001 	sub	r4, r4, #1
   114e0:	e1570004 	cmp	r7, r4
   114e4:	8affffde 	bhi	11464 <_nl_find_msg+0xb8>
   114e8:	e5961024 	ldr	r1, [r6, #36]	; 0x24
   114ec:	e0440007 	sub	r0, r4, r7
   114f0:	e791c180 	ldr	ip, [r1, r0, lsl #3]
   114f4:	e0811180 	add	r1, r1, r0, lsl #3
   114f8:	e15a000c 	cmp	sl, ip
   114fc:	2affffed 	bcs	114b8 <_nl_find_msg+0x10c>
   11500:	e50b2044 	str	r2, [fp, #-68]	; 0xffffffbc
   11504:	e5911004 	ldr	r1, [r1, #4]
   11508:	eaffffe3 	b	1149c <_nl_find_msg+0xf0>
   1150c:	0a00001c 	beq	11584 <_nl_find_msg+0x1d8>
   11510:	e2845001 	add	r5, r4, #1
   11514:	e1550007 	cmp	r5, r7
   11518:	2a000010 	bcs	11560 <_nl_find_msg+0x1b4>
   1151c:	e5968000 	ldr	r8, [r6]
   11520:	e596900c 	ldr	r9, [r6, #12]
   11524:	e596a018 	ldr	sl, [r6, #24]
   11528:	e0854007 	add	r4, r5, r7
   1152c:	e3590000 	cmp	r9, #0
   11530:	e1a040a4 	lsr	r4, r4, #1
   11534:	e51b0038 	ldr	r0, [fp, #-56]	; 0xffffffc8
   11538:	e08a3184 	add	r3, sl, r4, lsl #3
   1153c:	e5931004 	ldr	r1, [r3, #4]
   11540:	16bf1f31 	revne	r1, r1
   11544:	e0881001 	add	r1, r8, r1
   11548:	eb004efb 	bl	2513c <strcmp>
   1154c:	e3500000 	cmp	r0, #0
   11550:	aaffffed 	bge	1150c <_nl_find_msg+0x160>
   11554:	e1550004 	cmp	r5, r4
   11558:	e1a07004 	mov	r7, r4
   1155c:	3afffff1 	bcc	11528 <_nl_find_msg+0x17c>
   11560:	e3a05000 	mov	r5, #0
   11564:	e1a00005 	mov	r0, r5
   11568:	e24bd020 	sub	sp, fp, #32
   1156c:	e8bd8ff0 	pop	{r4, r5, r6, r7, r8, r9, sl, fp, pc}
   11570:	e15a0001 	cmp	sl, r1
   11574:	8affffcf 	bhi	114b8 <_nl_find_msg+0x10c>
   11578:	e5901004 	ldr	r1, [r0, #4]
   1157c:	e596c000 	ldr	ip, [r6]
   11580:	eaffffc3 	b	11494 <_nl_find_msg+0xe8>
   11584:	e51b703c 	ldr	r7, [fp, #-60]	; 0xffffffc4
   11588:	e1540007 	cmp	r4, r7
   1158c:	2a000042 	bcs	1169c <_nl_find_msg+0x2f0>
   11590:	e596300c 	ldr	r3, [r6, #12]
   11594:	e5965000 	ldr	r5, [r6]
   11598:	e3530000 	cmp	r3, #0
   1159c:	e596301c 	ldr	r3, [r6, #28]
   115a0:	0a00004c 	beq	116d8 <_nl_find_msg+0x32c>
   115a4:	e0832184 	add	r2, r3, r4, lsl #3
   115a8:	e7933184 	ldr	r3, [r3, r4, lsl #3]
   115ac:	e5922004 	ldr	r2, [r2, #4]
   115b0:	e6bf3f33 	rev	r3, r3
   115b4:	e2833001 	add	r3, r3, #1
   115b8:	e50b3038 	str	r3, [fp, #-56]	; 0xffffffc8
   115bc:	e51b304c 	ldr	r3, [fp, #-76]	; 0xffffffb4
   115c0:	e6bf2f32 	rev	r2, r2
   115c4:	e3530000 	cmp	r3, #0
   115c8:	e0855002 	add	r5, r5, r2
   115cc:	0a00003b 	beq	116c0 <_nl_find_msg+0x314>
   115d0:	e51b3050 	ldr	r3, [fp, #-80]	; 0xffffffb0
   115d4:	e3530000 	cmp	r3, #0
   115d8:	0a00006d 	beq	11794 <_nl_find_msg+0x3e8>
   115dc:	e5939008 	ldr	r9, [r3, #8]
   115e0:	e3590000 	cmp	r9, #0
   115e4:	0a00006a 	beq	11794 <_nl_find_msg+0x3e8>
   115e8:	e59f380c 	ldr	r3, [pc, #2060]	; 11dfc <_nl_find_msg+0xa50>
   115ec:	e3530000 	cmp	r3, #0
   115f0:	0a000001 	beq	115fc <_nl_find_msg+0x250>
   115f4:	e2860040 	add	r0, r6, #64	; 0x40
   115f8:	e1a00000 	nop			; (mov r0, r0)
   115fc:	e596a03c 	ldr	sl, [r6, #60]	; 0x3c
   11600:	e35a0000 	cmp	sl, #0
   11604:	0a00003c 	beq	116fc <_nl_find_msg+0x350>
   11608:	e08a308a 	add	r3, sl, sl, lsl #1
   1160c:	e5962038 	ldr	r2, [r6, #56]	; 0x38
   11610:	e0823103 	add	r3, r2, r3, lsl #2
   11614:	ea000001 	b	11620 <_nl_find_msg+0x274>
   11618:	e35a0000 	cmp	sl, #0
   1161c:	0a000036 	beq	116fc <_nl_find_msg+0x350>
   11620:	e513000c 	ldr	r0, [r3, #-12]
   11624:	e1a01009 	mov	r1, r9
   11628:	e243800c 	sub	r8, r3, #12
   1162c:	eb004ec2 	bl	2513c <strcmp>
   11630:	e24aa001 	sub	sl, sl, #1
   11634:	e1a03008 	mov	r3, r8
   11638:	e3500000 	cmp	r0, #0
   1163c:	1afffff5 	bne	11618 <_nl_find_msg+0x26c>
   11640:	e59f37b8 	ldr	r3, [pc, #1976]	; 11e00 <_nl_find_msg+0xa54>
   11644:	e3530000 	cmp	r3, #0
   11648:	e50b303c 	str	r3, [fp, #-60]	; 0xffffffc4
   1164c:	0a000001 	beq	11658 <_nl_find_msg+0x2ac>
   11650:	e2860040 	add	r0, r6, #64	; 0x40
   11654:	e1a00000 	nop			; (mov r0, r0)
   11658:	e3580000 	cmp	r8, #0
   1165c:	0a00002b 	beq	11710 <_nl_find_msg+0x364>
   11660:	e5983004 	ldr	r3, [r8, #4]
   11664:	e3730001 	cmn	r3, #1
   11668:	0a000014 	beq	116c0 <_nl_find_msg+0x314>
   1166c:	e5983008 	ldr	r3, [r8, #8]
   11670:	e3530000 	cmp	r3, #0
   11674:	0a000066 	beq	11814 <_nl_find_msg+0x468>
   11678:	e3730001 	cmn	r3, #1
   1167c:	0a000057 	beq	117e0 <_nl_find_msg+0x434>
   11680:	e7933104 	ldr	r3, [r3, r4, lsl #2]
   11684:	e3530000 	cmp	r3, #0
   11688:	0a000114 	beq	11ae0 <_nl_find_msg+0x734>
   1168c:	e5932000 	ldr	r2, [r3]
   11690:	e2835004 	add	r5, r3, #4
   11694:	e50b2038 	str	r2, [fp, #-56]	; 0xffffffc8
   11698:	ea000008 	b	116c0 <_nl_find_msg+0x314>
   1169c:	e0443007 	sub	r3, r4, r7
   116a0:	e5962028 	ldr	r2, [r6, #40]	; 0x28
   116a4:	e0821183 	add	r1, r2, r3, lsl #3
   116a8:	e7923183 	ldr	r3, [r2, r3, lsl #3]
   116ac:	e5915004 	ldr	r5, [r1, #4]
   116b0:	e50b3038 	str	r3, [fp, #-56]	; 0xffffffc8
   116b4:	e51b304c 	ldr	r3, [fp, #-76]	; 0xffffffb4
   116b8:	e3530000 	cmp	r3, #0
   116bc:	1affffc3 	bne	115d0 <_nl_find_msg+0x224>
   116c0:	e59b3004 	ldr	r3, [fp, #4]
   116c4:	e51b2038 	ldr	r2, [fp, #-56]	; 0xffffffc8
   116c8:	e1a00005 	mov	r0, r5
   116cc:	e5832000 	str	r2, [r3]
   116d0:	e24bd020 	sub	sp, fp, #32
   116d4:	e8bd8ff0 	pop	{r4, r5, r6, r7, r8, r9, sl, fp, pc}
   116d8:	e0831184 	add	r1, r3, r4, lsl #3
   116dc:	e7932184 	ldr	r2, [r3, r4, lsl #3]
   116e0:	e5913004 	ldr	r3, [r1, #4]
   116e4:	e2822001 	add	r2, r2, #1
   116e8:	e50b2038 	str	r2, [fp, #-56]	; 0xffffffc8
   116ec:	e0855003 	add	r5, r5, r3
   116f0:	eaffffef 	b	116b4 <_nl_find_msg+0x308>
   116f4:	eb000477 	bl	128d8 <_nl_load_domain>
   116f8:	eaffff35 	b	113d4 <_nl_find_msg+0x28>
   116fc:	e59f36fc 	ldr	r3, [pc, #1788]	; 11e00 <_nl_find_msg+0xa54>
   11700:	e3530000 	cmp	r3, #0
   11704:	e50b303c 	str	r3, [fp, #-60]	; 0xffffffc4
   11708:	13a08000 	movne	r8, #0
   1170c:	1affffcf 	bne	11650 <_nl_find_msg+0x2a4>
   11710:	e59f36ec 	ldr	r3, [pc, #1772]	; 11e04 <_nl_find_msg+0xa58>
   11714:	e3530000 	cmp	r3, #0
   11718:	0a000001 	beq	11724 <_nl_find_msg+0x378>
   1171c:	e2860040 	add	r0, r6, #64	; 0x40
   11720:	e1a00000 	nop			; (mov r0, r0)
   11724:	e596303c 	ldr	r3, [r6, #60]	; 0x3c
   11728:	e3530000 	cmp	r3, #0
   1172c:	e50b3040 	str	r3, [fp, #-64]	; 0xffffffc0
   11730:	e5963038 	ldr	r3, [r6, #56]	; 0x38
   11734:	050b3044 	streq	r3, [fp, #-68]	; 0xffffffbc
   11738:	0a000053 	beq	1188c <_nl_find_msg+0x4e0>
   1173c:	e51ba040 	ldr	sl, [fp, #-64]	; 0xffffffc0
   11740:	e1a02003 	mov	r2, r3
   11744:	e50b3044 	str	r3, [fp, #-68]	; 0xffffffbc
   11748:	e08a308a 	add	r3, sl, sl, lsl #1
   1174c:	e0823103 	add	r3, r2, r3, lsl #2
   11750:	ea000001 	b	1175c <_nl_find_msg+0x3b0>
   11754:	e35a0000 	cmp	sl, #0
   11758:	0a00004b 	beq	1188c <_nl_find_msg+0x4e0>
   1175c:	e513000c 	ldr	r0, [r3, #-12]
   11760:	e1a01009 	mov	r1, r9
   11764:	e243800c 	sub	r8, r3, #12
   11768:	eb004e73 	bl	2513c <strcmp>
   1176c:	e24aa001 	sub	sl, sl, #1
   11770:	e1a03008 	mov	r3, r8
   11774:	e3500000 	cmp	r0, #0
   11778:	1afffff5 	bne	11754 <_nl_find_msg+0x3a8>
   1177c:	e51b303c 	ldr	r3, [fp, #-60]	; 0xffffffc4
   11780:	e3530000 	cmp	r3, #0
   11784:	0affffb5 	beq	11660 <_nl_find_msg+0x2b4>
   11788:	e2860040 	add	r0, r6, #64	; 0x40
   1178c:	e1a00000 	nop			; (mov r0, r0)
   11790:	eaffffb2 	b	11660 <_nl_find_msg+0x2b4>
   11794:	e59fa66c 	ldr	sl, [pc, #1644]	; 11e08 <_nl_find_msg+0xa5c>
   11798:	e59a3008 	ldr	r3, [sl, #8]
   1179c:	e3530000 	cmp	r3, #0
   117a0:	0a000010 	beq	117e8 <_nl_find_msg+0x43c>
   117a4:	e59a900c 	ldr	r9, [sl, #12]
   117a8:	e3590000 	cmp	r9, #0
   117ac:	1affff8d 	bne	115e8 <_nl_find_msg+0x23c>
   117b0:	e59f3654 	ldr	r3, [pc, #1620]	; 11e0c <_nl_find_msg+0xa60>
   117b4:	ebfffde1 	bl	10f40 <__aeabi_read_tp>
   117b8:	e79f3003 	ldr	r3, [pc, r3]
   117bc:	e7903003 	ldr	r3, [r0, r3]
   117c0:	e5933000 	ldr	r3, [r3]
   117c4:	e593905c 	ldr	r9, [r3, #92]	; 0x5c
   117c8:	eaffff86 	b	115e8 <_nl_find_msg+0x23c>
   117cc:	e51b303c 	ldr	r3, [fp, #-60]	; 0xffffffc4
   117d0:	e3530000 	cmp	r3, #0
   117d4:	0a000001 	beq	117e0 <_nl_find_msg+0x434>
   117d8:	e2860040 	add	r0, r6, #64	; 0x40
   117dc:	e1a00000 	nop			; (mov r0, r0)
   117e0:	e3e05000 	mvn	r5, #0
   117e4:	eaffff5e 	b	11564 <_nl_find_msg+0x1b8>
   117e8:	e59f0620 	ldr	r0, [pc, #1568]	; 11e10 <_nl_find_msg+0xa64>
   117ec:	eb00119b 	bl	15e60 <getenv>
   117f0:	e2508000 	subs	r8, r0, #0
   117f4:	0a000002 	beq	11804 <_nl_find_msg+0x458>
   117f8:	e5d83000 	ldrb	r3, [r8]
   117fc:	e3530000 	cmp	r3, #0
   11800:	1a00011a 	bne	11c70 <_nl_find_msg+0x8c4>
   11804:	e59a900c 	ldr	r9, [sl, #12]
   11808:	e3a03001 	mov	r3, #1
   1180c:	e58a3008 	str	r3, [sl, #8]
   11810:	eaffffe4 	b	117a8 <_nl_find_msg+0x3fc>
   11814:	e50b3028 	str	r3, [fp, #-40]	; 0xffffffd8
   11818:	e59f35f4 	ldr	r3, [pc, #1524]	; 11e14 <_nl_find_msg+0xa68>
   1181c:	e3a02001 	mov	r2, #1
   11820:	e1a00003 	mov	r0, r3
   11824:	e1a01003 	mov	r1, r3
   11828:	e50b303c 	str	r3, [fp, #-60]	; 0xffffffc4
   1182c:	e1913f9f 	ldrex	r3, [r1]
   11830:	e3530000 	cmp	r3, #0
   11834:	1a000003 	bne	11848 <_nl_find_msg+0x49c>
   11838:	e181cf92 	strex	ip, r2, [r1]
   1183c:	e35c0000 	cmp	ip, #0
   11840:	1afffff9 	bne	1182c <_nl_find_msg+0x480>
   11844:	ee070fba 	mcr	15, 0, r0, cr7, cr10, {5}
   11848:	0a000001 	beq	11854 <_nl_find_msg+0x4a8>
   1184c:	e50b3028 	str	r3, [fp, #-40]	; 0xffffffd8
   11850:	eb006139 	bl	29d3c <__lll_lock_wait_private>
   11854:	e5983008 	ldr	r3, [r8, #8]
   11858:	e3530000 	cmp	r3, #0
   1185c:	0a00010f 	beq	11ca0 <_nl_find_msg+0x8f4>
   11860:	e3a03000 	mov	r3, #0
   11864:	e51b103c 	ldr	r1, [fp, #-60]	; 0xffffffc4
   11868:	ee070fba 	mcr	15, 0, r0, cr7, cr10, {5}
   1186c:	e1912f9f 	ldrex	r2, [r1]
   11870:	e1810f93 	strex	r0, r3, [r1]
   11874:	e3500000 	cmp	r0, #0
   11878:	1afffffb 	bne	1186c <_nl_find_msg+0x4c0>
   1187c:	e3520001 	cmp	r2, #1
   11880:	ca000125 	bgt	11d1c <_nl_find_msg+0x970>
   11884:	e5983008 	ldr	r3, [r8, #8]
   11888:	eaffff7a 	b	11678 <_nl_find_msg+0x2cc>
   1188c:	e51b3044 	ldr	r3, [fp, #-68]	; 0xffffffbc
   11890:	e3530000 	cmp	r3, #0
   11894:	0a00010b 	beq	11cc8 <_nl_find_msg+0x91c>
   11898:	e51b2040 	ldr	r2, [fp, #-64]	; 0xffffffc0
   1189c:	e1a00003 	mov	r0, r3
   118a0:	e2821001 	add	r1, r2, #1
   118a4:	e0811081 	add	r1, r1, r1, lsl #1
   118a8:	e1a01101 	lsl	r1, r1, #2
   118ac:	eb004778 	bl	23694 <__libc_realloc>
   118b0:	e1a02000 	mov	r2, r0
   118b4:	e3520000 	cmp	r2, #0
   118b8:	0affffc3 	beq	117cc <_nl_find_msg+0x420>
   118bc:	e1a00009 	mov	r0, r9
   118c0:	e5862038 	str	r2, [r6, #56]	; 0x38
   118c4:	e50b2044 	str	r2, [fp, #-68]	; 0xffffffbc
   118c8:	eb004f13 	bl	2551c <__strdup>
   118cc:	e2509000 	subs	r9, r0, #0
   118d0:	0affffbd 	beq	117cc <_nl_find_msg+0x420>
   118d4:	e51b3040 	ldr	r3, [fp, #-64]	; 0xffffffc0
   118d8:	e51b2044 	ldr	r2, [fp, #-68]	; 0xffffffbc
   118dc:	e3e0c000 	mvn	ip, #0
   118e0:	e0833083 	add	r3, r3, r3, lsl #1
   118e4:	e51b1050 	ldr	r1, [fp, #-80]	; 0xffffffb0
   118e8:	e1a03103 	lsl	r3, r3, #2
   118ec:	e0828003 	add	r8, r2, r3
   118f0:	e7829003 	str	r9, [r2, r3]
   118f4:	e24b2028 	sub	r2, fp, #40	; 0x28
   118f8:	e588c004 	str	ip, [r8, #4]
   118fc:	e51b0048 	ldr	r0, [fp, #-72]	; 0xffffffb8
   11900:	e58d2000 	str	r2, [sp]
   11904:	e3a03000 	mov	r3, #0
   11908:	e59f2508 	ldr	r2, [pc, #1288]	; 11e18 <_nl_find_msg+0xa6c>
   1190c:	ebfffea6 	bl	113ac <_nl_find_msg>
   11910:	e3700001 	cmn	r0, #1
   11914:	0affffb1 	beq	117e0 <_nl_find_msg+0x434>
   11918:	e3500000 	cmp	r0, #0
   1191c:	0a000069 	beq	11ac8 <_nl_find_msg+0x71c>
   11920:	e59f14f4 	ldr	r1, [pc, #1268]	; 11e1c <_nl_find_msg+0xa70>
   11924:	eb005107 	bl	25d48 <strstr>
   11928:	e3500000 	cmp	r0, #0
   1192c:	0a000065 	beq	11ac8 <_nl_find_msg+0x71c>
   11930:	e280a008 	add	sl, r0, #8
   11934:	e59f14e4 	ldr	r1, [pc, #1252]	; 11e20 <_nl_find_msg+0xa74>
   11938:	e1a0000a 	mov	r0, sl
   1193c:	eb004ea4 	bl	253d4 <strcspn>
   11940:	e1a0100a 	mov	r1, sl
   11944:	e280200f 	add	r2, r0, #15
   11948:	e3c22007 	bic	r2, r2, #7
   1194c:	e04dd002 	sub	sp, sp, r2
   11950:	e1a03000 	mov	r3, r0
   11954:	e28d2008 	add	r2, sp, #8
   11958:	e50b2040 	str	r2, [fp, #-64]	; 0xffffffc0
   1195c:	e1a00002 	mov	r0, r2
   11960:	e1a02003 	mov	r2, r3
   11964:	e50b3044 	str	r3, [fp, #-68]	; 0xffffffbc
   11968:	eb005448 	bl	26a90 <memcpy>
   1196c:	e51b3044 	ldr	r3, [fp, #-68]	; 0xffffffbc
   11970:	e3a0c000 	mov	ip, #0
   11974:	e1a01009 	mov	r1, r9
   11978:	e1a02009 	mov	r2, r9
   1197c:	e7c0c003 	strb	ip, [r0, r3]
   11980:	ea000002 	b	11990 <_nl_find_msg+0x5e4>
   11984:	e350002f 	cmp	r0, #47	; 0x2f
   11988:	e1a02003 	mov	r2, r3
   1198c:	028cc001 	addeq	ip, ip, #1
   11990:	e1a03002 	mov	r3, r2
   11994:	e4d30001 	ldrb	r0, [r3], #1
   11998:	e3500000 	cmp	r0, #0
   1199c:	1afffff8 	bne	11984 <_nl_find_msg+0x5d8>
   119a0:	e0423009 	sub	r3, r2, r9
   119a4:	e2833019 	add	r3, r3, #25
   119a8:	e5d92000 	ldrb	r2, [r9]
   119ac:	e3c33007 	bic	r3, r3, #7
   119b0:	e04dd003 	sub	sp, sp, r3
   119b4:	e28d3008 	add	r3, sp, #8
   119b8:	e3520000 	cmp	r2, #0
   119bc:	e50b3044 	str	r3, [fp, #-68]	; 0xffffffbc
   119c0:	0a0000c7 	beq	11ce4 <_nl_find_msg+0x938>
   119c4:	e59f0458 	ldr	r0, [pc, #1112]	; 11e24 <_nl_find_msg+0xa78>
   119c8:	e590e03c 	ldr	lr, [r0, #60]	; 0x3c
   119cc:	e79e0102 	ldr	r0, [lr, r2, lsl #2]
   119d0:	e5f12001 	ldrb	r2, [r1, #1]!
   119d4:	e4c30001 	strb	r0, [r3], #1
   119d8:	e3520000 	cmp	r2, #0
   119dc:	1afffffa 	bne	119cc <_nl_find_msg+0x620>
   119e0:	e35c0001 	cmp	ip, #1
   119e4:	8a000009 	bhi	11a10 <_nl_find_msg+0x664>
   119e8:	e35c0000 	cmp	ip, #0
   119ec:	e3a0102f 	mov	r1, #47	; 0x2f
   119f0:	059f2430 	ldreq	r2, [pc, #1072]	; 11e28 <_nl_find_msg+0xa7c>
   119f4:	e5c31000 	strb	r1, [r3]
   119f8:	05c31001 	strbeq	r1, [r3, #1]
   119fc:	08b20003 	ldmeq	r2!, {r0, r1}
   11a00:	12833001 	addne	r3, r3, #1
   11a04:	05830002 	streq	r0, [r3, #2]
   11a08:	05831006 	streq	r1, [r3, #6]
   11a0c:	0283300a 	addeq	r3, r3, #10
   11a10:	e51b2040 	ldr	r2, [fp, #-64]	; 0xffffffc0
   11a14:	e3a0c000 	mov	ip, #0
   11a18:	e5c3c000 	strb	ip, [r3]
   11a1c:	e1a01002 	mov	r1, r2
   11a20:	ea000002 	b	11a30 <_nl_find_msg+0x684>
   11a24:	e350002f 	cmp	r0, #47	; 0x2f
   11a28:	e1a02003 	mov	r2, r3
   11a2c:	028cc001 	addeq	ip, ip, #1
   11a30:	e1a03002 	mov	r3, r2
   11a34:	e4d30001 	ldrb	r0, [r3], #1
   11a38:	e3500000 	cmp	r0, #0
   11a3c:	1afffff8 	bne	11a24 <_nl_find_msg+0x678>
   11a40:	e51b3040 	ldr	r3, [fp, #-64]	; 0xffffffc0
   11a44:	e0422003 	sub	r2, r2, r3
   11a48:	e5d33000 	ldrb	r3, [r3]
   11a4c:	e2822011 	add	r2, r2, #17
   11a50:	e3c22007 	bic	r2, r2, #7
   11a54:	e04dd002 	sub	sp, sp, r2
   11a58:	e3530000 	cmp	r3, #0
   11a5c:	e28da008 	add	sl, sp, #8
   11a60:	0a0000ab 	beq	11d14 <_nl_find_msg+0x968>
   11a64:	e59f03b8 	ldr	r0, [pc, #952]	; 11e24 <_nl_find_msg+0xa78>
   11a68:	e1a0200a 	mov	r2, sl
   11a6c:	e590e03c 	ldr	lr, [r0, #60]	; 0x3c
   11a70:	e79e0103 	ldr	r0, [lr, r3, lsl #2]
   11a74:	e5f13001 	ldrb	r3, [r1, #1]!
   11a78:	e4c20001 	strb	r0, [r2], #1
   11a7c:	e3530000 	cmp	r3, #0
   11a80:	1afffffa 	bne	11a70 <_nl_find_msg+0x6c4>
   11a84:	e35c0001 	cmp	ip, #1
   11a88:	8a000005 	bhi	11aa4 <_nl_find_msg+0x6f8>
   11a8c:	e35c0000 	cmp	ip, #0
   11a90:	e3a0302f 	mov	r3, #47	; 0x2f
   11a94:	e5c23000 	strb	r3, [r2]
   11a98:	05c23001 	strbeq	r3, [r2, #1]
   11a9c:	12822001 	addne	r2, r2, #1
   11aa0:	02822002 	addeq	r2, r2, #2
   11aa4:	e3a0c000 	mov	ip, #0
   11aa8:	e5c2c000 	strb	ip, [r2]
   11aac:	e1a0100a 	mov	r1, sl
   11ab0:	e51b0044 	ldr	r0, [fp, #-68]	; 0xffffffbc
   11ab4:	e3a03001 	mov	r3, #1
   11ab8:	e2882004 	add	r2, r8, #4
   11abc:	eb0066b8 	bl	2b5a4 <__gconv_open>
   11ac0:	e3500000 	cmp	r0, #0
   11ac4:	1a000088 	bne	11cec <_nl_find_msg+0x940>
   11ac8:	e596303c 	ldr	r3, [r6, #60]	; 0x3c
   11acc:	e3a02000 	mov	r2, #0
   11ad0:	e2833001 	add	r3, r3, #1
   11ad4:	e5882008 	str	r2, [r8, #8]
   11ad8:	e586303c 	str	r3, [r6, #60]	; 0x3c
   11adc:	eaffff26 	b	1177c <_nl_find_msg+0x3d0>
   11ae0:	e50b3028 	str	r3, [fp, #-40]	; 0xffffffd8
   11ae4:	e59f3328 	ldr	r3, [pc, #808]	; 11e14 <_nl_find_msg+0xa68>
   11ae8:	e3a02001 	mov	r2, #1
   11aec:	e1a00003 	mov	r0, r3
   11af0:	e1a01003 	mov	r1, r3
   11af4:	e50b303c 	str	r3, [fp, #-60]	; 0xffffffc4
   11af8:	e1913f9f 	ldrex	r3, [r1]
   11afc:	e3530000 	cmp	r3, #0
   11b00:	1a000003 	bne	11b14 <_nl_find_msg+0x768>
   11b04:	e181cf92 	strex	ip, r2, [r1]
   11b08:	e35c0000 	cmp	ip, #0
   11b0c:	1afffff9 	bne	11af8 <_nl_find_msg+0x74c>
   11b10:	ee070fba 	mcr	15, 0, r0, cr7, cr10, {5}
   11b14:	0a000001 	beq	11b20 <_nl_find_msg+0x774>
   11b18:	e50b3028 	str	r3, [fp, #-40]	; 0xffffffd8
   11b1c:	eb006086 	bl	29d3c <__lll_lock_wait_private>
   11b20:	e59fa2e0 	ldr	sl, [pc, #736]	; 11e08 <_nl_find_msg+0xa5c>
   11b24:	e24b3024 	sub	r3, fp, #36	; 0x24
   11b28:	e1a01003 	mov	r1, r3
   11b2c:	e59a2014 	ldr	r2, [sl, #20]
   11b30:	e59a3018 	ldr	r3, [sl, #24]
   11b34:	e2822004 	add	r2, r2, #4
   11b38:	e5212008 	str	r2, [r1, #-8]!
   11b3c:	e3a06000 	mov	r6, #0
   11b40:	e50b5030 	str	r5, [fp, #-48]	; 0xffffffd0
   11b44:	e50b1040 	str	r1, [fp, #-64]	; 0xffffffc0
   11b48:	ea000012 	b	11b98 <_nl_find_msg+0x7ec>
   11b4c:	e3560000 	cmp	r6, #0
   11b50:	e2866001 	add	r6, r6, #1
   11b54:	0a000024 	beq	11bec <_nl_find_msg+0x840>
   11b58:	e0663406 	rsb	r3, r6, r6, lsl #8
   11b5c:	e59a7004 	ldr	r7, [sl, #4]
   11b60:	e1a09203 	lsl	r9, r3, #4
   11b64:	e1a01009 	mov	r1, r9
   11b68:	e1a00007 	mov	r0, r7
   11b6c:	e58a9018 	str	r9, [sl, #24]
   11b70:	eb0046c7 	bl	23694 <__libc_realloc>
   11b74:	e2493004 	sub	r3, r9, #4
   11b78:	e3500000 	cmp	r0, #0
   11b7c:	0a000025 	beq	11c18 <_nl_find_msg+0x86c>
   11b80:	e58a0004 	str	r0, [sl, #4]
   11b84:	e2802004 	add	r2, r0, #4
   11b88:	e2800008 	add	r0, r0, #8
   11b8c:	e58a3018 	str	r3, [sl, #24]
   11b90:	e58a2014 	str	r2, [sl, #20]
   11b94:	e50b002c 	str	r0, [fp, #-44]	; 0xffffffd4
   11b98:	e3530003 	cmp	r3, #3
   11b9c:	9affffea 	bls	11b4c <_nl_find_msg+0x7a0>
   11ba0:	e51b102c 	ldr	r1, [fp, #-44]	; 0xffffffd4
   11ba4:	e2433004 	sub	r3, r3, #4
   11ba8:	e0813003 	add	r3, r1, r3
   11bac:	e5980004 	ldr	r0, [r8, #4]
   11bb0:	e58d3000 	str	r3, [sp]
   11bb4:	e24b3028 	sub	r3, fp, #40	; 0x28
   11bb8:	e51b2030 	ldr	r2, [fp, #-48]	; 0xffffffd0
   11bbc:	e58d3004 	str	r3, [sp, #4]
   11bc0:	e51b3038 	ldr	r3, [fp, #-56]	; 0xffffffc8
   11bc4:	e24b1030 	sub	r1, fp, #48	; 0x30
   11bc8:	e0822003 	add	r2, r2, r3
   11bcc:	e51b3040 	ldr	r3, [fp, #-64]	; 0xffffffc0
   11bd0:	eb0067c4 	bl	2bae8 <__gconv>
   11bd4:	e3d03004 	bics	r3, r0, #4
   11bd8:	0a000065 	beq	11d74 <_nl_find_msg+0x9c8>
   11bdc:	e3500005 	cmp	r0, #5
   11be0:	1a000053 	bne	11d34 <_nl_find_msg+0x988>
   11be4:	e50b5030 	str	r5, [fp, #-48]	; 0xffffffd0
   11be8:	eaffffd7 	b	11b4c <_nl_find_msg+0x7a0>
   11bec:	e3a00eff 	mov	r0, #4080	; 0xff0
   11bf0:	e58a0018 	str	r0, [sl, #24]
   11bf4:	eb0044f8 	bl	22fdc <__libc_malloc>
   11bf8:	e3a06001 	mov	r6, #1
   11bfc:	e59f3228 	ldr	r3, [pc, #552]	; 11e2c <_nl_find_msg+0xa80>
   11c00:	e3500000 	cmp	r0, #0
   11c04:	0a000007 	beq	11c28 <_nl_find_msg+0x87c>
   11c08:	e59a2004 	ldr	r2, [sl, #4]
   11c0c:	e58a0004 	str	r0, [sl, #4]
   11c10:	e5802000 	str	r2, [r0]
   11c14:	eaffffda 	b	11b84 <_nl_find_msg+0x7d8>
   11c18:	e5973000 	ldr	r3, [r7]
   11c1c:	e1a00007 	mov	r0, r7
   11c20:	e58a3004 	str	r3, [sl, #4]
   11c24:	eb004666 	bl	235c4 <__cfree>
   11c28:	e3a03000 	mov	r3, #0
   11c2c:	e58a3014 	str	r3, [sl, #20]
   11c30:	e58a3018 	str	r3, [sl, #24]
   11c34:	e51b103c 	ldr	r1, [fp, #-60]	; 0xffffffc4
   11c38:	ee070fba 	mcr	15, 0, r0, cr7, cr10, {5}
   11c3c:	e1912f9f 	ldrex	r2, [r1]
   11c40:	e1810f93 	strex	r0, r3, [r1]
   11c44:	e3500000 	cmp	r0, #0
   11c48:	1afffffb 	bne	11c3c <_nl_find_msg+0x890>
   11c4c:	e3520001 	cmp	r2, #1
   11c50:	dafffee2 	ble	117e0 <_nl_find_msg+0x434>
   11c54:	e59f01b8 	ldr	r0, [pc, #440]	; 11e14 <_nl_find_msg+0xa68>
   11c58:	e3a01081 	mov	r1, #129	; 0x81
   11c5c:	e3a02001 	mov	r2, #1
   11c60:	e3a070f0 	mov	r7, #240	; 0xf0
   11c64:	ef000000 	svc	0x00000000
   11c68:	e3e05000 	mvn	r5, #0
   11c6c:	eafffe3c 	b	11564 <_nl_find_msg+0x1b8>
   11c70:	eb004e92 	bl	256c0 <strlen>
   11c74:	e2802001 	add	r2, r0, #1
   11c78:	e1a00002 	mov	r0, r2
   11c7c:	e50b203c 	str	r2, [fp, #-60]	; 0xffffffc4
   11c80:	eb0044d5 	bl	22fdc <__libc_malloc>
   11c84:	e2509000 	subs	r9, r0, #0
   11c88:	0a000002 	beq	11c98 <_nl_find_msg+0x8ec>
   11c8c:	e51b203c 	ldr	r2, [fp, #-60]	; 0xffffffc4
   11c90:	e1a01008 	mov	r1, r8
   11c94:	eb00537d 	bl	26a90 <memcpy>
   11c98:	e58a900c 	str	r9, [sl, #12]
   11c9c:	eafffed9 	b	11808 <_nl_find_msg+0x45c>
   11ca0:	e5960020 	ldr	r0, [r6, #32]
   11ca4:	e3a01004 	mov	r1, #4
   11ca8:	e0870000 	add	r0, r7, r0
   11cac:	eb00473a 	bl	2399c <__calloc>
   11cb0:	e3500000 	cmp	r0, #0
   11cb4:	e5880008 	str	r0, [r8, #8]
   11cb8:	1affff98 	bne	11b20 <_nl_find_msg+0x774>
   11cbc:	e3e03000 	mvn	r3, #0
   11cc0:	e5883008 	str	r3, [r8, #8]
   11cc4:	eafffee5 	b	11860 <_nl_find_msg+0x4b4>
   11cc8:	e51b3040 	ldr	r3, [fp, #-64]	; 0xffffffc0
   11ccc:	e2830001 	add	r0, r3, #1
   11cd0:	e0800080 	add	r0, r0, r0, lsl #1
   11cd4:	e1a00100 	lsl	r0, r0, #2
   11cd8:	eb0044bf 	bl	22fdc <__libc_malloc>
   11cdc:	e1a02000 	mov	r2, r0
   11ce0:	eafffef3 	b	118b4 <_nl_find_msg+0x508>
   11ce4:	e51b3044 	ldr	r3, [fp, #-68]	; 0xffffffbc
   11ce8:	eaffff3c 	b	119e0 <_nl_find_msg+0x634>
   11cec:	e3700001 	cmn	r0, #1
   11cf0:	0a000039 	beq	11ddc <_nl_find_msg+0xa30>
   11cf4:	e51b303c 	ldr	r3, [fp, #-60]	; 0xffffffc4
   11cf8:	e3530000 	cmp	r3, #0
   11cfc:	0a000001 	beq	11d08 <_nl_find_msg+0x95c>
   11d00:	e2860040 	add	r0, r6, #64	; 0x40
   11d04:	e1a00000 	nop			; (mov r0, r0)
   11d08:	e1a00009 	mov	r0, r9
   11d0c:	eb00462c 	bl	235c4 <__cfree>
   11d10:	eafffe12 	b	11560 <_nl_find_msg+0x1b4>
   11d14:	e1a0200a 	mov	r2, sl
   11d18:	eaffff59 	b	11a84 <_nl_find_msg+0x6d8>
   11d1c:	e59f00f0 	ldr	r0, [pc, #240]	; 11e14 <_nl_find_msg+0xa68>
   11d20:	e3a01081 	mov	r1, #129	; 0x81
   11d24:	e3a02001 	mov	r2, #1
   11d28:	e3a070f0 	mov	r7, #240	; 0xf0
   11d2c:	ef000000 	svc	0x00000000
   11d30:	eafffed3 	b	11884 <_nl_find_msg+0x4d8>
   11d34:	e3a03000 	mov	r3, #0
   11d38:	e51b103c 	ldr	r1, [fp, #-60]	; 0xffffffc4
   11d3c:	ee070fba 	mcr	15, 0, r0, cr7, cr10, {5}
   11d40:	e1912f9f 	ldrex	r2, [r1]
   11d44:	e1810f93 	strex	r0, r3, [r1]
   11d48:	e3500000 	cmp	r0, #0
   11d4c:	1afffffb 	bne	11d40 <_nl_find_msg+0x994>
   11d50:	e3520001 	cmp	r2, #1
   11d54:	dafffe01 	ble	11560 <_nl_find_msg+0x1b4>
   11d58:	e59f00b4 	ldr	r0, [pc, #180]	; 11e14 <_nl_find_msg+0xa68>
   11d5c:	e3a01081 	mov	r1, #129	; 0x81
   11d60:	e3a02001 	mov	r2, #1
   11d64:	e3a070f0 	mov	r7, #240	; 0xf0
   11d68:	ef000000 	svc	0x00000000
   11d6c:	e1a05003 	mov	r5, r3
   11d70:	eafffdfb 	b	11564 <_nl_find_msg+0x1b8>
   11d74:	e59ac014 	ldr	ip, [sl, #20]
   11d78:	e51b102c 	ldr	r1, [fp, #-44]	; 0xffffffd4
   11d7c:	e59a2018 	ldr	r2, [sl, #24]
   11d80:	e598e008 	ldr	lr, [r8, #8]
   11d84:	e041000c 	sub	r0, r1, ip
   11d88:	e0422000 	sub	r2, r2, r0
   11d8c:	e2400004 	sub	r0, r0, #4
   11d90:	e58c0000 	str	r0, [ip]
   11d94:	e2020003 	and	r0, r2, #3
   11d98:	e78ec104 	str	ip, [lr, r4, lsl #2]
   11d9c:	e1a04104 	lsl	r4, r4, #2
   11da0:	e0811000 	add	r1, r1, r0
   11da4:	e3c22003 	bic	r2, r2, #3
   11da8:	e58a1014 	str	r1, [sl, #20]
   11dac:	e58a2018 	str	r2, [sl, #24]
   11db0:	e51b103c 	ldr	r1, [fp, #-60]	; 0xffffffc4
   11db4:	ee070fba 	mcr	15, 0, r0, cr7, cr10, {5}
   11db8:	e1912f9f 	ldrex	r2, [r1]
   11dbc:	e1810f93 	strex	r0, r3, [r1]
   11dc0:	e3500000 	cmp	r0, #0
   11dc4:	1afffffb 	bne	11db8 <_nl_find_msg+0xa0c>
   11dc8:	e3520001 	cmp	r2, #1
   11dcc:	ca000004 	bgt	11de4 <_nl_find_msg+0xa38>
   11dd0:	e5983008 	ldr	r3, [r8, #8]
   11dd4:	e7933004 	ldr	r3, [r3, r4]
   11dd8:	eafffe2b 	b	1168c <_nl_find_msg+0x2e0>
   11ddc:	e5880004 	str	r0, [r8, #4]
   11de0:	eaffff38 	b	11ac8 <_nl_find_msg+0x71c>
   11de4:	e59f0028 	ldr	r0, [pc, #40]	; 11e14 <_nl_find_msg+0xa68>
   11de8:	e3a01081 	mov	r1, #129	; 0x81
   11dec:	e3a02001 	mov	r2, #1
   11df0:	e3a070f0 	mov	r7, #240	; 0xf0
   11df4:	ef000000 	svc	0x00000000
   11df8:	eafffff4 	b	11dd0 <_nl_find_msg+0xa24>
	...
   11e08:	00085f4c 	.word	0x00085f4c
   11e0c:	000736d4 	.word	0x000736d4
   11e10:	0006fca0 	.word	0x0006fca0
   11e14:	00085f5c 	.word	0x00085f5c
   11e18:	00081b04 	.word	0x00081b04
   11e1c:	0006fcb0 	.word	0x0006fcb0
   11e20:	0006fcbc 	.word	0x0006fcbc
   11e24:	0007e71c 	.word	0x0007e71c
   11e28:	000711a4 	.word	0x000711a4
   11e2c:	00000fec 	.word	0x00000fec

00011e30 <__dcigettext>:
   11e30:	e92d4ff0 	push	{r4, r5, r6, r7, r8, r9, sl, fp, lr}
   11e34:	e28db020 	add	fp, sp, #32
   11e38:	e3510000 	cmp	r1, #0
   11e3c:	e24dd06c 	sub	sp, sp, #108	; 0x6c
   11e40:	e50b1050 	str	r1, [fp, #-80]	; 0xffffffb0
   11e44:	e50b2064 	str	r2, [fp, #-100]	; 0xffffff9c
   11e48:	e50b3060 	str	r3, [fp, #-96]	; 0xffffffa0
   11e4c:	0a0000d9 	beq	121b8 <__dcigettext+0x388>
   11e50:	e59b2008 	ldr	r2, [fp, #8]
   11e54:	e2425006 	sub	r5, r2, #6
   11e58:	e16f5f15 	clz	r5, r5
   11e5c:	e1a052a5 	lsr	r5, r5, #5
   11e60:	e352000c 	cmp	r2, #12
   11e64:	83855001 	orrhi	r5, r5, #1
   11e68:	e3550000 	cmp	r5, #0
   11e6c:	1a0000d5 	bne	121c8 <__dcigettext+0x398>
   11e70:	e59f3788 	ldr	r3, [pc, #1928]	; 12600 <__dcigettext+0x7d0>
   11e74:	e59f4788 	ldr	r4, [pc, #1928]	; 12604 <__dcigettext+0x7d4>
   11e78:	e1a08000 	mov	r8, r0
   11e7c:	e79f3003 	ldr	r3, [pc, r3]
   11e80:	ebfffc2e 	bl	10f40 <__aeabi_read_tp>
   11e84:	e3540000 	cmp	r4, #0
   11e88:	e7903003 	ldr	r3, [r0, r3]
   11e8c:	e50b306c 	str	r3, [fp, #-108]	; 0xffffff94
   11e90:	0a000110 	beq	122d8 <__dcigettext+0x4a8>
   11e94:	e59f076c 	ldr	r0, [pc, #1900]	; 12608 <__dcigettext+0x7d8>
   11e98:	e1a00000 	nop			; (mov r0, r0)
   11e9c:	e59f0768 	ldr	r0, [pc, #1896]	; 1260c <__dcigettext+0x7dc>
   11ea0:	e1a00000 	nop			; (mov r0, r0)
   11ea4:	e3580000 	cmp	r8, #0
   11ea8:	0a00013b 	beq	1239c <__dcigettext+0x56c>
   11eac:	e51b3050 	ldr	r3, [fp, #-80]	; 0xffffffb0
   11eb0:	e59b0008 	ldr	r0, [fp, #8]
   11eb4:	e50b3028 	str	r3, [fp, #-40]	; 0xffffffd8
   11eb8:	e50b5034 	str	r5, [fp, #-52]	; 0xffffffcc
   11ebc:	e50b8044 	str	r8, [fp, #-68]	; 0xffffffbc
   11ec0:	e50b0040 	str	r0, [fp, #-64]	; 0xffffffc0
   11ec4:	eb00912e 	bl	36384 <__current_locale_name>
   11ec8:	e1a04000 	mov	r4, r0
   11ecc:	eb004dfb 	bl	256c0 <strlen>
   11ed0:	e1a01004 	mov	r1, r4
   11ed4:	e280300f 	add	r3, r0, #15
   11ed8:	e3c33007 	bic	r3, r3, #7
   11edc:	e04dd003 	sub	sp, sp, r3
   11ee0:	e2802001 	add	r2, r0, #1
   11ee4:	e28d0008 	add	r0, sp, #8
   11ee8:	eb0052e8 	bl	26a90 <memcpy>
   11eec:	e50b0074 	str	r0, [fp, #-116]	; 0xffffff8c
   11ef0:	e50b003c 	str	r0, [fp, #-60]	; 0xffffffc4
   11ef4:	e59f0714 	ldr	r0, [pc, #1812]	; 12610 <__dcigettext+0x7e0>
   11ef8:	e1a00000 	nop			; (mov r0, r0)
   11efc:	e59f2710 	ldr	r2, [pc, #1808]	; 12614 <__dcigettext+0x7e4>
   11f00:	e59f1710 	ldr	r1, [pc, #1808]	; 12618 <__dcigettext+0x7e8>
   11f04:	e24b0044 	sub	r0, fp, #68	; 0x44
   11f08:	eb005c47 	bl	2902c <__tfind>
   11f0c:	e59f3708 	ldr	r3, [pc, #1800]	; 1261c <__dcigettext+0x7ec>
   11f10:	e3530000 	cmp	r3, #0
   11f14:	e50b0068 	str	r0, [fp, #-104]	; 0xffffff98
   11f18:	0a000001 	beq	11f24 <__dcigettext+0xf4>
   11f1c:	e59f06ec 	ldr	r0, [pc, #1772]	; 12610 <__dcigettext+0x7e0>
   11f20:	e1a00000 	nop			; (mov r0, r0)
   11f24:	e51b3068 	ldr	r3, [fp, #-104]	; 0xffffff98
   11f28:	e3530000 	cmp	r3, #0
   11f2c:	0a000005 	beq	11f48 <__dcigettext+0x118>
   11f30:	e5932000 	ldr	r2, [r3]
   11f34:	e59f36e4 	ldr	r3, [pc, #1764]	; 12620 <__dcigettext+0x7f0>
   11f38:	e592100c 	ldr	r1, [r2, #12]
   11f3c:	e5933000 	ldr	r3, [r3]
   11f40:	e1510003 	cmp	r1, r3
   11f44:	0a0000ff 	beq	12348 <__dcigettext+0x518>
   11f48:	e59f36d4 	ldr	r3, [pc, #1748]	; 12624 <__dcigettext+0x7f4>
   11f4c:	e5935000 	ldr	r5, [r3]
   11f50:	e3550000 	cmp	r5, #0
   11f54:	1a000004 	bne	11f6c <__dcigettext+0x13c>
   11f58:	ea0000f3 	b	1232c <__dcigettext+0x4fc>
   11f5c:	ba0000f5 	blt	12338 <__dcigettext+0x508>
   11f60:	e5955000 	ldr	r5, [r5]
   11f64:	e3550000 	cmp	r5, #0
   11f68:	0a0000ef 	beq	1232c <__dcigettext+0x4fc>
   11f6c:	e285100c 	add	r1, r5, #12
   11f70:	e1a00008 	mov	r0, r8
   11f74:	eb004c70 	bl	2513c <strcmp>
   11f78:	e3500000 	cmp	r0, #0
   11f7c:	1afffff6 	bne	11f5c <__dcigettext+0x12c>
   11f80:	e5953004 	ldr	r3, [r5, #4]
   11f84:	e1a07000 	mov	r7, r0
   11f88:	e50b3054 	str	r3, [fp, #-84]	; 0xffffffac
   11f8c:	e5d33000 	ldrb	r3, [r3]
   11f90:	e353002f 	cmp	r3, #47	; 0x2f
   11f94:	0a000026 	beq	12034 <__dcigettext+0x204>
   11f98:	e51b0054 	ldr	r0, [fp, #-84]	; 0xffffffac
   11f9c:	eb004dc7 	bl	256c0 <strlen>
   11fa0:	e59f4680 	ldr	r4, [pc, #1664]	; 12628 <__dcigettext+0x7f8>
   11fa4:	e59fa680 	ldr	sl, [pc, #1664]	; 1262c <__dcigettext+0x7fc>
   11fa8:	e50b5058 	str	r5, [fp, #-88]	; 0xffffffa8
   11fac:	e2803001 	add	r3, r0, #1
   11fb0:	e1a06003 	mov	r6, r3
   11fb4:	ea000003 	b	11fc8 <__dcigettext+0x198>
   11fb8:	e79f3003 	ldr	r3, [pc, r3]
   11fbc:	e7993003 	ldr	r3, [r9, r3]
   11fc0:	e3530022 	cmp	r3, #34	; 0x22
   11fc4:	1a00006a 	bne	12174 <__dcigettext+0x344>
   11fc8:	e0843006 	add	r3, r4, r6
   11fcc:	e283300e 	add	r3, r3, #14
   11fd0:	e3c33007 	bic	r3, r3, #7
   11fd4:	e04dd003 	sub	sp, sp, r3
   11fd8:	e79f300a 	ldr	r3, [pc, sl]
   11fdc:	ebfffbd7 	bl	10f40 <__aeabi_read_tp>
   11fe0:	e28d5008 	add	r5, sp, #8
   11fe4:	e1a09000 	mov	r9, r0
   11fe8:	e1a01004 	mov	r1, r4
   11fec:	e1a00005 	mov	r0, r5
   11ff0:	e7897003 	str	r7, [r9, r3]
   11ff4:	eb005868 	bl	2819c <__getcwd>
   11ff8:	e08440a4 	add	r4, r4, r4, lsr #1
   11ffc:	e59f362c 	ldr	r3, [pc, #1580]	; 12630 <__dcigettext+0x800>
   12000:	e2844020 	add	r4, r4, #32
   12004:	e3500000 	cmp	r0, #0
   12008:	0affffea 	beq	11fb8 <__dcigettext+0x188>
   1200c:	e1a09005 	mov	r9, r5
   12010:	e3a01000 	mov	r1, #0
   12014:	e1a00009 	mov	r0, r9
   12018:	eb005368 	bl	26dc0 <__rawmemchr>
   1201c:	e3a0202f 	mov	r2, #47	; 0x2f
   12020:	e51b1054 	ldr	r1, [fp, #-84]	; 0xffffffac
   12024:	e51b5058 	ldr	r5, [fp, #-88]	; 0xffffffa8
   12028:	e50b9054 	str	r9, [fp, #-84]	; 0xffffffac
   1202c:	e4c02001 	strb	r2, [r0], #1
   12030:	eb004c52 	bl	25180 <strcpy>
   12034:	e59f25f8 	ldr	r2, [pc, #1528]	; 12634 <__dcigettext+0x804>
   12038:	e59b0008 	ldr	r0, [fp, #8]
   1203c:	e59f35f4 	ldr	r3, [pc, #1524]	; 12638 <__dcigettext+0x808>
   12040:	e7d26000 	ldrb	r6, [r2, r0]
   12044:	e0866003 	add	r6, r6, r3
   12048:	eb0090cd 	bl	36384 <__current_locale_name>
   1204c:	e5d03000 	ldrb	r3, [r0]
   12050:	e1a04000 	mov	r4, r0
   12054:	e3530043 	cmp	r3, #67	; 0x43
   12058:	1a000062 	bne	121e8 <__dcigettext+0x3b8>
   1205c:	e5d03001 	ldrb	r3, [r0, #1]
   12060:	e3530000 	cmp	r3, #0
   12064:	1a00005f 	bne	121e8 <__dcigettext+0x3b8>
   12068:	e1a00008 	mov	r0, r8
   1206c:	eb004d93 	bl	256c0 <strlen>
   12070:	e59f95c4 	ldr	r9, [pc, #1476]	; 1263c <__dcigettext+0x80c>
   12074:	e24ba048 	sub	sl, fp, #72	; 0x48
   12078:	e3a07001 	mov	r7, #1
   1207c:	e50b0070 	str	r0, [fp, #-112]	; 0xffffff90
   12080:	e1a00006 	mov	r0, r6
   12084:	eb004d8d 	bl	256c0 <strlen>
   12088:	e1a01006 	mov	r1, r6
   1208c:	e51b6070 	ldr	r6, [fp, #-112]	; 0xffffff90
   12090:	e0863000 	add	r3, r6, r0
   12094:	e2833013 	add	r3, r3, #19
   12098:	e3c33007 	bic	r3, r3, #7
   1209c:	e04dd003 	sub	sp, sp, r3
   120a0:	e28d3008 	add	r3, sp, #8
   120a4:	e1a00003 	mov	r0, r3
   120a8:	e50b3058 	str	r3, [fp, #-88]	; 0xffffffa8
   120ac:	eb004c2f 	bl	25170 <__stpcpy>
   120b0:	e59f3588 	ldr	r3, [pc, #1416]	; 12640 <__dcigettext+0x810>
   120b4:	e1a02006 	mov	r2, r6
   120b8:	e1a01008 	mov	r1, r8
   120bc:	e1d330b0 	ldrh	r3, [r3]
   120c0:	e0c030b1 	strh	r3, [r0], #1
   120c4:	eb005271 	bl	26a90 <memcpy>
   120c8:	e59f2574 	ldr	r2, [pc, #1396]	; 12644 <__dcigettext+0x814>
   120cc:	e1a03000 	mov	r3, r0
   120d0:	e5920000 	ldr	r0, [r2]
   120d4:	e7830006 	str	r0, [r3, r6]
   120d8:	e1a00004 	mov	r0, r4
   120dc:	eb004d77 	bl	256c0 <strlen>
   120e0:	e280000f 	add	r0, r0, #15
   120e4:	e3c00007 	bic	r0, r0, #7
   120e8:	e04dd000 	sub	sp, sp, r0
   120ec:	e28d6008 	add	r6, sp, #8
   120f0:	e5d43000 	ldrb	r3, [r4]
   120f4:	e353003a 	cmp	r3, #58	; 0x3a
   120f8:	0a00005a 	beq	12268 <__dcigettext+0x438>
   120fc:	e3530000 	cmp	r3, #0
   12100:	1a000040 	bne	12208 <__dcigettext+0x3d8>
   12104:	e3a02043 	mov	r2, #67	; 0x43
   12108:	e5c62000 	strb	r2, [r6]
   1210c:	e5c63001 	strb	r3, [r6, #1]
   12110:	e5d63001 	ldrb	r3, [r6, #1]
   12114:	e3530000 	cmp	r3, #0
   12118:	0a000015 	beq	12174 <__dcigettext+0x344>
   1211c:	e59f1524 	ldr	r1, [pc, #1316]	; 12648 <__dcigettext+0x818>
   12120:	e1a00006 	mov	r0, r6
   12124:	eb004c04 	bl	2513c <strcmp>
   12128:	e3500000 	cmp	r0, #0
   1212c:	0a000010 	beq	12174 <__dcigettext+0x344>
   12130:	e1a03005 	mov	r3, r5
   12134:	e51b2058 	ldr	r2, [fp, #-88]	; 0xffffffa8
   12138:	e1a01006 	mov	r1, r6
   1213c:	e51b0054 	ldr	r0, [fp, #-84]	; 0xffffffac
   12140:	eb000148 	bl	12668 <_nl_find_domain>
   12144:	e2503000 	subs	r3, r0, #0
   12148:	e50b305c 	str	r3, [fp, #-92]	; 0xffffffa4
   1214c:	0affffe7 	beq	120f0 <__dcigettext+0x2c0>
   12150:	e1a03007 	mov	r3, r7
   12154:	e58da000 	str	sl, [sp]
   12158:	e51b2050 	ldr	r2, [fp, #-80]	; 0xffffffb0
   1215c:	e1a01005 	mov	r1, r5
   12160:	ebfffc91 	bl	113ac <_nl_find_msg>
   12164:	e2503000 	subs	r3, r0, #0
   12168:	0a000040 	beq	12270 <__dcigettext+0x440>
   1216c:	e3730001 	cmn	r3, #1
   12170:	1a0000a7 	bne	12414 <__dcigettext+0x5e4>
   12174:	e59f34a0 	ldr	r3, [pc, #1184]	; 1261c <__dcigettext+0x7ec>
   12178:	e3530000 	cmp	r3, #0
   1217c:	0a000003 	beq	12190 <__dcigettext+0x360>
   12180:	e59f0484 	ldr	r0, [pc, #1156]	; 1260c <__dcigettext+0x7dc>
   12184:	e1a00000 	nop			; (mov r0, r0)
   12188:	e59f0478 	ldr	r0, [pc, #1144]	; 12608 <__dcigettext+0x7d8>
   1218c:	e1a00000 	nop			; (mov r0, r0)
   12190:	e59f34b4 	ldr	r3, [pc, #1204]	; 1264c <__dcigettext+0x81c>
   12194:	e59b2004 	ldr	r2, [fp, #4]
   12198:	e51b1060 	ldr	r1, [fp, #-96]	; 0xffffffa0
   1219c:	e79f3003 	ldr	r3, [pc, r3]
   121a0:	ebfffb66 	bl	10f40 <__aeabi_read_tp>
   121a4:	e3510000 	cmp	r1, #0
   121a8:	13520001 	cmpne	r2, #1
   121ac:	e51b206c 	ldr	r2, [fp, #-108]	; 0xffffff94
   121b0:	e7802003 	str	r2, [r0, r3]
   121b4:	1a000007 	bne	121d8 <__dcigettext+0x3a8>
   121b8:	e51b3050 	ldr	r3, [fp, #-80]	; 0xffffffb0
   121bc:	e1a00003 	mov	r0, r3
   121c0:	e24bd020 	sub	sp, fp, #32
   121c4:	e8bd8ff0 	pop	{r4, r5, r6, r7, r8, r9, sl, fp, pc}
   121c8:	e59b2004 	ldr	r2, [fp, #4]
   121cc:	e3530000 	cmp	r3, #0
   121d0:	13520001 	cmpne	r2, #1
   121d4:	0afffff7 	beq	121b8 <__dcigettext+0x388>
   121d8:	e51b3064 	ldr	r3, [fp, #-100]	; 0xffffff9c
   121dc:	e1a00003 	mov	r0, r3
   121e0:	e24bd020 	sub	sp, fp, #32
   121e4:	e8bd8ff0 	pop	{r4, r5, r6, r7, r8, r9, sl, fp, pc}
   121e8:	e59f0460 	ldr	r0, [pc, #1120]	; 12650 <__dcigettext+0x820>
   121ec:	eb000f1b 	bl	15e60 <getenv>
   121f0:	e3500000 	cmp	r0, #0
   121f4:	0affff9b 	beq	12068 <__dcigettext+0x238>
   121f8:	e5d03000 	ldrb	r3, [r0]
   121fc:	e3530000 	cmp	r3, #0
   12200:	11a04000 	movne	r4, r0
   12204:	eaffff97 	b	12068 <__dcigettext+0x238>
   12208:	e2842001 	add	r2, r4, #1
   1220c:	e1a01006 	mov	r1, r6
   12210:	e4c13001 	strb	r3, [r1], #1
   12214:	e5d23000 	ldrb	r3, [r2]
   12218:	e1a04002 	mov	r4, r2
   1221c:	e2822001 	add	r2, r2, #1
   12220:	e3530000 	cmp	r3, #0
   12224:	1353003a 	cmpne	r3, #58	; 0x3a
   12228:	13a00001 	movne	r0, #1
   1222c:	03a00000 	moveq	r0, #0
   12230:	1afffff6 	bne	12210 <__dcigettext+0x3e0>
   12234:	e5993000 	ldr	r3, [r9]
   12238:	e5c10000 	strb	r0, [r1]
   1223c:	e3530000 	cmp	r3, #0
   12240:	0a000004 	beq	12258 <__dcigettext+0x428>
   12244:	e3a0102f 	mov	r1, #47	; 0x2f
   12248:	e1a00006 	mov	r0, r6
   1224c:	eb004b87 	bl	25070 <strchr>
   12250:	e3500000 	cmp	r0, #0
   12254:	1affffa5 	bne	120f0 <__dcigettext+0x2c0>
   12258:	e5d63000 	ldrb	r3, [r6]
   1225c:	e3530043 	cmp	r3, #67	; 0x43
   12260:	1affffad 	bne	1211c <__dcigettext+0x2ec>
   12264:	eaffffa9 	b	12110 <__dcigettext+0x2e0>
   12268:	e2844001 	add	r4, r4, #1
   1226c:	eaffff9f 	b	120f0 <__dcigettext+0x2c0>
   12270:	e51b205c 	ldr	r2, [fp, #-92]	; 0xffffffa4
   12274:	e5920010 	ldr	r0, [r2, #16]
   12278:	e3500000 	cmp	r0, #0
   1227c:	0affff9b 	beq	120f0 <__dcigettext+0x2c0>
   12280:	e2822014 	add	r2, r2, #20
   12284:	e50b407c 	str	r4, [fp, #-124]	; 0xffffff84
   12288:	e50b6080 	str	r6, [fp, #-128]	; 0xffffff80
   1228c:	e50b8078 	str	r8, [fp, #-120]	; 0xffffff88
   12290:	e1a04002 	mov	r4, r2
   12294:	e1a06003 	mov	r6, r3
   12298:	e51b8050 	ldr	r8, [fp, #-80]	; 0xffffffb0
   1229c:	ea000005 	b	122b8 <__dcigettext+0x488>
   122a0:	e3500000 	cmp	r0, #0
   122a4:	1a000054 	bne	123fc <__dcigettext+0x5cc>
   122a8:	e4940004 	ldr	r0, [r4], #4
   122ac:	e2866001 	add	r6, r6, #1
   122b0:	e3500000 	cmp	r0, #0
   122b4:	0a00007b 	beq	124a8 <__dcigettext+0x678>
   122b8:	e58da000 	str	sl, [sp]
   122bc:	e1a03007 	mov	r3, r7
   122c0:	e1a02008 	mov	r2, r8
   122c4:	e1a01005 	mov	r1, r5
   122c8:	ebfffc37 	bl	113ac <_nl_find_msg>
   122cc:	e3700001 	cmn	r0, #1
   122d0:	1afffff2 	bne	122a0 <__dcigettext+0x470>
   122d4:	eaffffa6 	b	12174 <__dcigettext+0x344>
   122d8:	e3580000 	cmp	r8, #0
   122dc:	0a00002e 	beq	1239c <__dcigettext+0x56c>
   122e0:	e51b3050 	ldr	r3, [fp, #-80]	; 0xffffffb0
   122e4:	e59b0008 	ldr	r0, [fp, #8]
   122e8:	e50b3028 	str	r3, [fp, #-40]	; 0xffffffd8
   122ec:	e50b4034 	str	r4, [fp, #-52]	; 0xffffffcc
   122f0:	e50b8044 	str	r8, [fp, #-68]	; 0xffffffbc
   122f4:	e50b0040 	str	r0, [fp, #-64]	; 0xffffffc0
   122f8:	eb009021 	bl	36384 <__current_locale_name>
   122fc:	e1a04000 	mov	r4, r0
   12300:	eb004cee 	bl	256c0 <strlen>
   12304:	e1a01004 	mov	r1, r4
   12308:	e280300f 	add	r3, r0, #15
   1230c:	e3c33007 	bic	r3, r3, #7
   12310:	e04dd003 	sub	sp, sp, r3
   12314:	e2802001 	add	r2, r0, #1
   12318:	e28d0008 	add	r0, sp, #8
   1231c:	eb0051db 	bl	26a90 <memcpy>
   12320:	e50b0074 	str	r0, [fp, #-116]	; 0xffffff8c
   12324:	e50b003c 	str	r0, [fp, #-60]	; 0xffffffc4
   12328:	eafffef3 	b	11efc <__dcigettext+0xcc>
   1232c:	e59f3320 	ldr	r3, [pc, #800]	; 12654 <__dcigettext+0x824>
   12330:	e50b3054 	str	r3, [fp, #-84]	; 0xffffffac
   12334:	eaffff3e 	b	12034 <__dcigettext+0x204>
   12338:	e59f3314 	ldr	r3, [pc, #788]	; 12654 <__dcigettext+0x824>
   1233c:	e3a05000 	mov	r5, #0
   12340:	e50b3054 	str	r3, [fp, #-84]	; 0xffffffac
   12344:	eaffff3a 	b	12034 <__dcigettext+0x204>
   12348:	e51b3060 	ldr	r3, [fp, #-96]	; 0xffffffa0
   1234c:	e3530000 	cmp	r3, #0
   12350:	05923014 	ldreq	r3, [r2, #20]
   12354:	1a00004c 	bne	1248c <__dcigettext+0x65c>
   12358:	e59f22bc 	ldr	r2, [pc, #700]	; 1261c <__dcigettext+0x7ec>
   1235c:	e3520000 	cmp	r2, #0
   12360:	0a000005 	beq	1237c <__dcigettext+0x54c>
   12364:	e59f02a0 	ldr	r0, [pc, #672]	; 1260c <__dcigettext+0x7dc>
   12368:	e50b3050 	str	r3, [fp, #-80]	; 0xffffffb0
   1236c:	e1a00000 	nop			; (mov r0, r0)
   12370:	e59f0290 	ldr	r0, [pc, #656]	; 12608 <__dcigettext+0x7d8>
   12374:	e1a00000 	nop			; (mov r0, r0)
   12378:	e51b3050 	ldr	r3, [fp, #-80]	; 0xffffffb0
   1237c:	e59f22d4 	ldr	r2, [pc, #724]	; 12658 <__dcigettext+0x828>
   12380:	e51b106c 	ldr	r1, [fp, #-108]	; 0xffffff94
   12384:	ebfffaed 	bl	10f40 <__aeabi_read_tp>
   12388:	e79f2002 	ldr	r2, [pc, r2]
   1238c:	e7801002 	str	r1, [r0, r2]
   12390:	e1a00003 	mov	r0, r3
   12394:	e24bd020 	sub	sp, fp, #32
   12398:	e8bd8ff0 	pop	{r4, r5, r6, r7, r8, r9, sl, fp, pc}
   1239c:	e59f22b8 	ldr	r2, [pc, #696]	; 1265c <__dcigettext+0x82c>
   123a0:	e59b0008 	ldr	r0, [fp, #8]
   123a4:	e3a03000 	mov	r3, #0
   123a8:	e5928000 	ldr	r8, [r2]
   123ac:	e51b2050 	ldr	r2, [fp, #-80]	; 0xffffffb0
   123b0:	e50b3034 	str	r3, [fp, #-52]	; 0xffffffcc
   123b4:	e50b2028 	str	r2, [fp, #-40]	; 0xffffffd8
   123b8:	e50b0040 	str	r0, [fp, #-64]	; 0xffffffc0
   123bc:	e50b8044 	str	r8, [fp, #-68]	; 0xffffffbc
   123c0:	eb008fef 	bl	36384 <__current_locale_name>
   123c4:	e1a05000 	mov	r5, r0
   123c8:	eb004cbc 	bl	256c0 <strlen>
   123cc:	e1a01005 	mov	r1, r5
   123d0:	e280300f 	add	r3, r0, #15
   123d4:	e3c33007 	bic	r3, r3, #7
   123d8:	e04dd003 	sub	sp, sp, r3
   123dc:	e2802001 	add	r2, r0, #1
   123e0:	e28d0008 	add	r0, sp, #8
   123e4:	eb0051a9 	bl	26a90 <memcpy>
   123e8:	e3540000 	cmp	r4, #0
   123ec:	e50b0074 	str	r0, [fp, #-116]	; 0xffffff8c
   123f0:	e50b003c 	str	r0, [fp, #-60]	; 0xffffffc4
   123f4:	1afffebe 	bne	11ef4 <__dcigettext+0xc4>
   123f8:	eafffebf 	b	11efc <__dcigettext+0xcc>
   123fc:	e51b205c 	ldr	r2, [fp, #-92]	; 0xffffffa4
   12400:	e2867004 	add	r7, r6, #4
   12404:	e51b8078 	ldr	r8, [fp, #-120]	; 0xffffff88
   12408:	e7922107 	ldr	r2, [r2, r7, lsl #2]
   1240c:	e1a03000 	mov	r3, r0
   12410:	e50b205c 	str	r2, [fp, #-92]	; 0xffffffa4
   12414:	e51b2068 	ldr	r2, [fp, #-104]	; 0xffffff98
   12418:	e3520000 	cmp	r2, #0
   1241c:	0a00002d 	beq	124d8 <__dcigettext+0x6a8>
   12420:	e51b2068 	ldr	r2, [fp, #-104]	; 0xffffff98
   12424:	e59f01f4 	ldr	r0, [pc, #500]	; 12620 <__dcigettext+0x7f0>
   12428:	e51b1048 	ldr	r1, [fp, #-72]	; 0xffffffb8
   1242c:	e5922000 	ldr	r2, [r2]
   12430:	e5900000 	ldr	r0, [r0]
   12434:	e51bc05c 	ldr	ip, [fp, #-92]	; 0xffffffa4
   12438:	e5823014 	str	r3, [r2, #20]
   1243c:	e582c010 	str	ip, [r2, #16]
   12440:	e582000c 	str	r0, [r2, #12]
   12444:	e5821018 	str	r1, [r2, #24]
   12448:	e59f2210 	ldr	r2, [pc, #528]	; 12660 <__dcigettext+0x830>
   1244c:	e51b1060 	ldr	r1, [fp, #-96]	; 0xffffffa0
   12450:	ebfffaba 	bl	10f40 <__aeabi_read_tp>
   12454:	e79f2002 	ldr	r2, [pc, r2]
   12458:	e3510000 	cmp	r1, #0
   1245c:	e51b106c 	ldr	r1, [fp, #-108]	; 0xffffff94
   12460:	e7801002 	str	r1, [r0, r2]
   12464:	1a000013 	bne	124b8 <__dcigettext+0x688>
   12468:	e59f21ac 	ldr	r2, [pc, #428]	; 1261c <__dcigettext+0x7ec>
   1246c:	e3520000 	cmp	r2, #0
   12470:	0affff59 	beq	121dc <__dcigettext+0x3ac>
   12474:	e59f0190 	ldr	r0, [pc, #400]	; 1260c <__dcigettext+0x7dc>
   12478:	e50b3050 	str	r3, [fp, #-80]	; 0xffffffb0
   1247c:	e1a00000 	nop			; (mov r0, r0)
   12480:	e59f0180 	ldr	r0, [pc, #384]	; 12608 <__dcigettext+0x7d8>
   12484:	e1a00000 	nop			; (mov r0, r0)
   12488:	eaffff4a 	b	121b8 <__dcigettext+0x388>
   1248c:	e2821010 	add	r1, r2, #16
   12490:	e891000e 	ldm	r1, {r1, r2, r3}
   12494:	e5910008 	ldr	r0, [r1, #8]
   12498:	e59b1004 	ldr	r1, [fp, #4]
   1249c:	ebfffbaa 	bl	1134c <plural_lookup.isra.1>
   124a0:	e1a03000 	mov	r3, r0
   124a4:	eaffffab 	b	12358 <__dcigettext+0x528>
   124a8:	e51b407c 	ldr	r4, [fp, #-124]	; 0xffffff84
   124ac:	e51b6080 	ldr	r6, [fp, #-128]	; 0xffffff80
   124b0:	e51b8078 	ldr	r8, [fp, #-120]	; 0xffffff88
   124b4:	eaffff0d 	b	120f0 <__dcigettext+0x2c0>
   124b8:	e1a02003 	mov	r2, r3
   124bc:	e51b305c 	ldr	r3, [fp, #-92]	; 0xffffffa4
   124c0:	e59b1004 	ldr	r1, [fp, #4]
   124c4:	e5930008 	ldr	r0, [r3, #8]
   124c8:	e51b3048 	ldr	r3, [fp, #-72]	; 0xffffffb8
   124cc:	ebfffb9e 	bl	1134c <plural_lookup.isra.1>
   124d0:	e1a03000 	mov	r3, r0
   124d4:	eaffffe3 	b	12468 <__dcigettext+0x638>
   124d8:	e51ba050 	ldr	sl, [fp, #-80]	; 0xffffffb0
   124dc:	e50b3054 	str	r3, [fp, #-84]	; 0xffffffac
   124e0:	e1a0000a 	mov	r0, sl
   124e4:	eb004c75 	bl	256c0 <strlen>
   124e8:	e51b9074 	ldr	r9, [fp, #-116]	; 0xffffff8c
   124ec:	e2804001 	add	r4, r0, #1
   124f0:	e1a00009 	mov	r0, r9
   124f4:	eb004c71 	bl	256c0 <strlen>
   124f8:	e51b6070 	ldr	r6, [fp, #-112]	; 0xffffff90
   124fc:	e1a07000 	mov	r7, r0
   12500:	e286001e 	add	r0, r6, #30
   12504:	e0800007 	add	r0, r0, r7
   12508:	e0800004 	add	r0, r0, r4
   1250c:	eb0042b2 	bl	22fdc <__libc_malloc>
   12510:	e51b3054 	ldr	r3, [fp, #-84]	; 0xffffffac
   12514:	e2505000 	subs	r5, r0, #0
   12518:	0affffca 	beq	12448 <__dcigettext+0x618>
   1251c:	e1a02004 	mov	r2, r4
   12520:	e1a0100a 	mov	r1, sl
   12524:	e285001c 	add	r0, r5, #28
   12528:	e50b3050 	str	r3, [fp, #-80]	; 0xffffffb0
   1252c:	eb005157 	bl	26a90 <memcpy>
   12530:	e2862001 	add	r2, r6, #1
   12534:	e1a01008 	mov	r1, r8
   12538:	e0804004 	add	r4, r0, r4
   1253c:	e0846002 	add	r6, r4, r2
   12540:	e1a00004 	mov	r0, r4
   12544:	eb005151 	bl	26a90 <memcpy>
   12548:	e2872001 	add	r2, r7, #1
   1254c:	e1a01009 	mov	r1, r9
   12550:	e1a00006 	mov	r0, r6
   12554:	eb00514d 	bl	26a90 <memcpy>
   12558:	e59b3008 	ldr	r3, [fp, #8]
   1255c:	e59f10bc 	ldr	r1, [pc, #188]	; 12620 <__dcigettext+0x7f0>
   12560:	e5853004 	str	r3, [r5, #4]
   12564:	e51b305c 	ldr	r3, [fp, #-92]	; 0xffffffa4
   12568:	e59f00f4 	ldr	r0, [pc, #244]	; 12664 <__dcigettext+0x834>
   1256c:	e51b2048 	ldr	r2, [fp, #-72]	; 0xffffffb8
   12570:	e5911000 	ldr	r1, [r1]
   12574:	e5853010 	str	r3, [r5, #16]
   12578:	e51b3050 	ldr	r3, [fp, #-80]	; 0xffffffb0
   1257c:	e3500000 	cmp	r0, #0
   12580:	e5856008 	str	r6, [r5, #8]
   12584:	e5854000 	str	r4, [r5]
   12588:	e5853014 	str	r3, [r5, #20]
   1258c:	e585100c 	str	r1, [r5, #12]
   12590:	e5852018 	str	r2, [r5, #24]
   12594:	0a000002 	beq	125a4 <__dcigettext+0x774>
   12598:	e59f0070 	ldr	r0, [pc, #112]	; 12610 <__dcigettext+0x7e0>
   1259c:	e1a00000 	nop			; (mov r0, r0)
   125a0:	e51b3050 	ldr	r3, [fp, #-80]	; 0xffffffb0
   125a4:	e59f2068 	ldr	r2, [pc, #104]	; 12614 <__dcigettext+0x7e4>
   125a8:	e59f1068 	ldr	r1, [pc, #104]	; 12618 <__dcigettext+0x7e8>
   125ac:	e1a00005 	mov	r0, r5
   125b0:	e50b3050 	str	r3, [fp, #-80]	; 0xffffffb0
   125b4:	eb005a40 	bl	28ebc <__tsearch>
   125b8:	e59f305c 	ldr	r3, [pc, #92]	; 1261c <__dcigettext+0x7ec>
   125bc:	e3530000 	cmp	r3, #0
   125c0:	e51b3050 	ldr	r3, [fp, #-80]	; 0xffffffb0
   125c4:	e1a04000 	mov	r4, r0
   125c8:	0a000002 	beq	125d8 <__dcigettext+0x7a8>
   125cc:	e59f003c 	ldr	r0, [pc, #60]	; 12610 <__dcigettext+0x7e0>
   125d0:	e1a00000 	nop			; (mov r0, r0)
   125d4:	e51b3050 	ldr	r3, [fp, #-80]	; 0xffffffb0
   125d8:	e3540000 	cmp	r4, #0
   125dc:	0a000002 	beq	125ec <__dcigettext+0x7bc>
   125e0:	e5942000 	ldr	r2, [r4]
   125e4:	e1550002 	cmp	r5, r2
   125e8:	0affff96 	beq	12448 <__dcigettext+0x618>
   125ec:	e1a00005 	mov	r0, r5
   125f0:	e50b3050 	str	r3, [fp, #-80]	; 0xffffffb0
   125f4:	eb0043f2 	bl	235c4 <__cfree>
   125f8:	e51b3050 	ldr	r3, [fp, #-80]	; 0xffffffb0
   125fc:	eaffff91 	b	12448 <__dcigettext+0x618>
   12600:	00073014 	.word	0x00073014
   12604:	00000000 	.word	0x00000000
   12608:	000862e0 	.word	0x000862e0
   1260c:	00085f68 	.word	0x00085f68
   12610:	00085f88 	.word	0x00085f88
   12614:	000112e0 	.word	0x000112e0
   12618:	00085f4c 	.word	0x00085f4c
   1261c:	00000000 	.word	0x00000000
   12620:	0008679c 	.word	0x0008679c
   12624:	00086798 	.word	0x00086798
   12628:	00001002 	.word	0x00001002
   1262c:	00072eb8 	.word	0x00072eb8
   12630:	00072ed8 	.word	0x00072ed8
   12634:	000725bc 	.word	0x000725bc
   12638:	00072530 	.word	0x00072530
   1263c:	00084e30 	.word	0x00084e30
   12640:	00071dd8 	.word	0x00071dd8
   12644:	0006fccc 	.word	0x0006fccc
   12648:	0006fcd0 	.word	0x0006fcd0
   1264c:	00072cf4 	.word	0x00072cf4
   12650:	0006fcc0 	.word	0x0006fcc0
   12654:	0006fcd8 	.word	0x0006fcd8
   12658:	00072b08 	.word	0x00072b08
   1265c:	00084ee4 	.word	0x00084ee4
   12660:	00072a3c 	.word	0x00072a3c
   12664:	00000000 	.word	0x00000000

00012668 <_nl_find_domain>:
   12668:	e59fc254 	ldr	ip, [pc, #596]	; 128c4 <_nl_find_domain+0x25c>
   1266c:	e92d4ff0 	push	{r4, r5, r6, r7, r8, r9, sl, fp, lr}
   12670:	e35c0000 	cmp	ip, #0
   12674:	e24dd03c 	sub	sp, sp, #60	; 0x3c
   12678:	e1a04000 	mov	r4, r0
   1267c:	e1a07001 	mov	r7, r1
   12680:	e1a09002 	mov	r9, r2
   12684:	e1a06003 	mov	r6, r3
   12688:	0a000001 	beq	12694 <_nl_find_domain+0x2c>
   1268c:	e59f0234 	ldr	r0, [pc, #564]	; 128c8 <_nl_find_domain+0x260>
   12690:	e1a00000 	nop			; (mov r0, r0)
   12694:	e1a00004 	mov	r0, r4
   12698:	eb004c08 	bl	256c0 <strlen>
   1269c:	e3a03000 	mov	r3, #0
   126a0:	e58d9014 	str	r9, [sp, #20]
   126a4:	e58d7000 	str	r7, [sp]
   126a8:	e58d3018 	str	r3, [sp, #24]
   126ac:	e58d3010 	str	r3, [sp, #16]
   126b0:	e58d300c 	str	r3, [sp, #12]
   126b4:	e58d3008 	str	r3, [sp, #8]
   126b8:	e58d3004 	str	r3, [sp, #4]
   126bc:	e1a01004 	mov	r1, r4
   126c0:	e59f8204 	ldr	r8, [pc, #516]	; 128cc <_nl_find_domain+0x264>
   126c4:	e2802001 	add	r2, r0, #1
   126c8:	e59f0200 	ldr	r0, [pc, #512]	; 128d0 <_nl_find_domain+0x268>
   126cc:	eb000710 	bl	14314 <_nl_make_l10nflist>
   126d0:	e3580000 	cmp	r8, #0
   126d4:	e1a05000 	mov	r5, r0
   126d8:	0a000001 	beq	126e4 <_nl_find_domain+0x7c>
   126dc:	e59f01e4 	ldr	r0, [pc, #484]	; 128c8 <_nl_find_domain+0x260>
   126e0:	e1a00000 	nop			; (mov r0, r0)
   126e4:	e3550000 	cmp	r5, #0
   126e8:	0a00001e 	beq	12768 <_nl_find_domain+0x100>
   126ec:	e5953004 	ldr	r3, [r5, #4]
   126f0:	e3530000 	cmp	r3, #0
   126f4:	da000017 	ble	12758 <_nl_find_domain+0xf0>
   126f8:	e5953008 	ldr	r3, [r5, #8]
   126fc:	e3530000 	cmp	r3, #0
   12700:	0a000002 	beq	12710 <_nl_find_domain+0xa8>
   12704:	e1a00005 	mov	r0, r5
   12708:	e28dd03c 	add	sp, sp, #60	; 0x3c
   1270c:	e8bd8ff0 	pop	{r4, r5, r6, r7, r8, r9, sl, fp, pc}
   12710:	e5950010 	ldr	r0, [r5, #16]
   12714:	e3500000 	cmp	r0, #0
   12718:	0afffff9 	beq	12704 <_nl_find_domain+0x9c>
   1271c:	e2854010 	add	r4, r5, #16
   12720:	ea000006 	b	12740 <_nl_find_domain+0xd8>
   12724:	e4943004 	ldr	r3, [r4], #4
   12728:	e5933008 	ldr	r3, [r3, #8]
   1272c:	e3530000 	cmp	r3, #0
   12730:	1afffff3 	bne	12704 <_nl_find_domain+0x9c>
   12734:	e5940000 	ldr	r0, [r4]
   12738:	e3500000 	cmp	r0, #0
   1273c:	0afffff0 	beq	12704 <_nl_find_domain+0x9c>
   12740:	e5903004 	ldr	r3, [r0, #4]
   12744:	e3530000 	cmp	r3, #0
   12748:	cafffff5 	bgt	12724 <_nl_find_domain+0xbc>
   1274c:	e1a01006 	mov	r1, r6
   12750:	eb000060 	bl	128d8 <_nl_load_domain>
   12754:	eafffff2 	b	12724 <_nl_find_domain+0xbc>
   12758:	e1a01006 	mov	r1, r6
   1275c:	e1a00005 	mov	r0, r5
   12760:	eb00005c 	bl	128d8 <_nl_load_domain>
   12764:	eaffffe3 	b	126f8 <_nl_find_domain+0x90>
   12768:	e1a00007 	mov	r0, r7
   1276c:	eb000680 	bl	14174 <_nl_expand_alias>
   12770:	e250b000 	subs	fp, r0, #0
   12774:	0a000002 	beq	12784 <_nl_find_domain+0x11c>
   12778:	eb004b67 	bl	2551c <__strdup>
   1277c:	e2507000 	subs	r7, r0, #0
   12780:	0affffdf 	beq	12704 <_nl_find_domain+0x9c>
   12784:	e28d2034 	add	r2, sp, #52	; 0x34
   12788:	e28d3030 	add	r3, sp, #48	; 0x30
   1278c:	e58d2004 	str	r2, [sp, #4]
   12790:	e58d3000 	str	r3, [sp]
   12794:	e28d2028 	add	r2, sp, #40	; 0x28
   12798:	e28d302c 	add	r3, sp, #44	; 0x2c
   1279c:	e28d1024 	add	r1, sp, #36	; 0x24
   127a0:	e1a00007 	mov	r0, r7
   127a4:	eb000860 	bl	1492c <_nl_explode_name>
   127a8:	e3700001 	cmn	r0, #1
   127ac:	e1a0a000 	mov	sl, r0
   127b0:	0affffd3 	beq	12704 <_nl_find_domain+0x9c>
   127b4:	e59f3118 	ldr	r3, [pc, #280]	; 128d4 <_nl_find_domain+0x26c>
   127b8:	e3530000 	cmp	r3, #0
   127bc:	0a000001 	beq	127c8 <_nl_find_domain+0x160>
   127c0:	e59f0100 	ldr	r0, [pc, #256]	; 128c8 <_nl_find_domain+0x260>
   127c4:	e1a00000 	nop			; (mov r0, r0)
   127c8:	e1a00004 	mov	r0, r4
   127cc:	eb004bbb 	bl	256c0 <strlen>
   127d0:	e59dc028 	ldr	ip, [sp, #40]	; 0x28
   127d4:	e59d2034 	ldr	r2, [sp, #52]	; 0x34
   127d8:	e59d3030 	ldr	r3, [sp, #48]	; 0x30
   127dc:	e58dc010 	str	ip, [sp, #16]
   127e0:	e58d200c 	str	r2, [sp, #12]
   127e4:	e59dc02c 	ldr	ip, [sp, #44]	; 0x2c
   127e8:	e59d2024 	ldr	r2, [sp, #36]	; 0x24
   127ec:	e58d3008 	str	r3, [sp, #8]
   127f0:	e3a03001 	mov	r3, #1
   127f4:	e88d1004 	stm	sp, {r2, ip}
   127f8:	e58d3018 	str	r3, [sp, #24]
   127fc:	e58d9014 	str	r9, [sp, #20]
   12800:	e1a01004 	mov	r1, r4
   12804:	e1a0300a 	mov	r3, sl
   12808:	e2802001 	add	r2, r0, #1
   1280c:	e59f00bc 	ldr	r0, [pc, #188]	; 128d0 <_nl_find_domain+0x268>
   12810:	eb0006bf 	bl	14314 <_nl_make_l10nflist>
   12814:	e3580000 	cmp	r8, #0
   12818:	e1a05000 	mov	r5, r0
   1281c:	0a000001 	beq	12828 <_nl_find_domain+0x1c0>
   12820:	e59f00a0 	ldr	r0, [pc, #160]	; 128c8 <_nl_find_domain+0x260>
   12824:	e1a00000 	nop			; (mov r0, r0)
   12828:	e3550000 	cmp	r5, #0
   1282c:	0a000009 	beq	12858 <_nl_find_domain+0x1f0>
   12830:	e5953004 	ldr	r3, [r5, #4]
   12834:	e3530000 	cmp	r3, #0
   12838:	da00001d 	ble	128b4 <_nl_find_domain+0x24c>
   1283c:	e5953008 	ldr	r3, [r5, #8]
   12840:	e3530000 	cmp	r3, #0
   12844:	0a000008 	beq	1286c <_nl_find_domain+0x204>
   12848:	e35b0000 	cmp	fp, #0
   1284c:	0a000001 	beq	12858 <_nl_find_domain+0x1f0>
   12850:	e1a00007 	mov	r0, r7
   12854:	eb00435a 	bl	235c4 <__cfree>
   12858:	e31a0001 	tst	sl, #1
   1285c:	0affffa8 	beq	12704 <_nl_find_domain+0x9c>
   12860:	e59d0034 	ldr	r0, [sp, #52]	; 0x34
   12864:	eb004356 	bl	235c4 <__cfree>
   12868:	eaffffa5 	b	12704 <_nl_find_domain+0x9c>
   1286c:	e5950010 	ldr	r0, [r5, #16]
   12870:	e3500000 	cmp	r0, #0
   12874:	0afffff3 	beq	12848 <_nl_find_domain+0x1e0>
   12878:	e2854010 	add	r4, r5, #16
   1287c:	ea000006 	b	1289c <_nl_find_domain+0x234>
   12880:	e4943004 	ldr	r3, [r4], #4
   12884:	e5933008 	ldr	r3, [r3, #8]
   12888:	e3530000 	cmp	r3, #0
   1288c:	1affffed 	bne	12848 <_nl_find_domain+0x1e0>
   12890:	e5940000 	ldr	r0, [r4]
   12894:	e3500000 	cmp	r0, #0
   12898:	0affffea 	beq	12848 <_nl_find_domain+0x1e0>
   1289c:	e5903004 	ldr	r3, [r0, #4]
   128a0:	e3530000 	cmp	r3, #0
   128a4:	cafffff5 	bgt	12880 <_nl_find_domain+0x218>
   128a8:	e1a01006 	mov	r1, r6
   128ac:	eb000009 	bl	128d8 <_nl_load_domain>
   128b0:	eafffff2 	b	12880 <_nl_find_domain+0x218>
   128b4:	e1a01006 	mov	r1, r6
   128b8:	e1a00005 	mov	r0, r5
   128bc:	eb000005 	bl	128d8 <_nl_load_domain>
   128c0:	eaffffdd 	b	1283c <_nl_find_domain+0x1d4>
   128c4:	00000000 	.word	0x00000000
   128c8:	00085fa8 	.word	0x00085fa8
   128cc:	00000000 	.word	0x00000000
   128d0:	00085fc8 	.word	0x00085fc8
   128d4:	00000000 	.word	0x00000000

000128d8 <_nl_load_domain>:
   128d8:	e92d4ff0 	push	{r4, r5, r6, r7, r8, r9, sl, fp, lr}
   128dc:	e28db020 	add	fp, sp, #32
   128e0:	e59f4fbc 	ldr	r4, [pc, #4028]	; 138a4 <_nl_load_domain+0xfcc>
   128e4:	e24dd0d4 	sub	sp, sp, #212	; 0xd4
   128e8:	e5943008 	ldr	r3, [r4, #8]
   128ec:	e1a06000 	mov	r6, r0
   128f0:	ebfff992 	bl	10f40 <__aeabi_read_tp>
   128f4:	e2405d13 	sub	r5, r0, #1216	; 0x4c0
   128f8:	e1550003 	cmp	r5, r3
   128fc:	e50b1098 	str	r1, [fp, #-152]	; 0xffffff68
   12900:	0a00000b 	beq	12934 <_nl_load_domain+0x5c>
   12904:	e3a03000 	mov	r3, #0
   12908:	e50b308c 	str	r3, [fp, #-140]	; 0xffffff74
   1290c:	e3a03001 	mov	r3, #1
   12910:	e1942f9f 	ldrex	r2, [r4]
   12914:	e3520000 	cmp	r2, #0
   12918:	1a000003 	bne	1292c <_nl_load_domain+0x54>
   1291c:	e1841f93 	strex	r1, r3, [r4]
   12920:	e3510000 	cmp	r1, #0
   12924:	1afffff9 	bne	12910 <_nl_load_domain+0x38>
   12928:	ee070fba 	mcr	15, 0, r0, cr7, cr10, {5}
   1292c:	1a0000e8 	bne	12cd4 <_nl_load_domain+0x3fc>
   12930:	e5845008 	str	r5, [r4, #8]
   12934:	e5943004 	ldr	r3, [r4, #4]
   12938:	e5961004 	ldr	r1, [r6, #4]
   1293c:	e2833001 	add	r3, r3, #1
   12940:	e3510000 	cmp	r1, #0
   12944:	e5843004 	str	r3, [r4, #4]
   12948:	1a0000db 	bne	12cbc <_nl_load_domain+0x3e4>
   1294c:	e5960000 	ldr	r0, [r6]
   12950:	e3e02000 	mvn	r2, #0
   12954:	e3500000 	cmp	r0, #0
   12958:	e5861008 	str	r1, [r6, #8]
   1295c:	e5862004 	str	r2, [r6, #4]
   12960:	0a0000d3 	beq	12cb4 <_nl_load_domain+0x3dc>
   12964:	e3a07005 	mov	r7, #5
   12968:	ef000000 	svc	0x00000000
   1296c:	e3700a01 	cmn	r0, #4096	; 0x1000
   12970:	e1a05000 	mov	r5, r0
   12974:	8a0000c8 	bhi	12c9c <_nl_load_domain+0x3c4>
   12978:	e1a01000 	mov	r1, r0
   1297c:	e24b208c 	sub	r2, fp, #140	; 0x8c
   12980:	e3a00003 	mov	r0, #3
   12984:	eb0054fa 	bl	27d74 <___fxstat64>
   12988:	e2503000 	subs	r3, r0, #0
   1298c:	e1a01003 	mov	r1, r3
   12990:	e50b309c 	str	r3, [fp, #-156]	; 0xffffff64
   12994:	1a0000d9 	bne	12d00 <_nl_load_domain+0x428>
   12998:	e14b25dc 	ldrd	r2, [fp, #-92]	; 0xffffffa4
   1299c:	e1a09003 	mov	r9, r3
   129a0:	e3a03000 	mov	r3, #0
   129a4:	e1530009 	cmp	r3, r9
   129a8:	e1a08002 	mov	r8, r2
   129ac:	01520008 	cmpeq	r2, r8
   129b0:	13a03001 	movne	r3, #1
   129b4:	03a03000 	moveq	r3, #0
   129b8:	e358002f 	cmp	r8, #47	; 0x2f
   129bc:	93833001 	orrls	r3, r3, #1
   129c0:	e3530000 	cmp	r3, #0
   129c4:	e14b8af4 	strd	r8, [fp, #-164]	; 0xffffff5c
   129c8:	1a0000cc 	bne	12d00 <_nl_load_domain+0x428>
   129cc:	e58d1004 	str	r1, [sp, #4]
   129d0:	e58d5000 	str	r5, [sp]
   129d4:	e1a01008 	mov	r1, r8
   129d8:	e3a03002 	mov	r3, #2
   129dc:	e3a02001 	mov	r2, #1
   129e0:	eb005846 	bl	28b00 <__mmap>
   129e4:	e3700001 	cmn	r0, #1
   129e8:	e1a08000 	mov	r8, r0
   129ec:	0a000174 	beq	12fc4 <_nl_load_domain+0x6ec>
   129f0:	e1a00005 	mov	r0, r5
   129f4:	e3a07006 	mov	r7, #6
   129f8:	ef000000 	svc	0x00000000
   129fc:	e59f2ea4 	ldr	r2, [pc, #3748]	; 138a8 <_nl_load_domain+0xfd0>
   12a00:	e5983000 	ldr	r3, [r8]
   12a04:	e59f1ea0 	ldr	r1, [pc, #3744]	; 138ac <_nl_load_domain+0xfd4>
   12a08:	e0537002 	subs	r7, r3, r2
   12a0c:	13a07001 	movne	r7, #1
   12a10:	e1530001 	cmp	r3, r1
   12a14:	11530002 	cmpne	r3, r2
   12a18:	1a0001ac 	bne	130d0 <_nl_load_domain+0x7f8>
   12a1c:	e3a03001 	mov	r3, #1
   12a20:	e50b309c 	str	r3, [fp, #-156]	; 0xffffff64
   12a24:	e3a00068 	mov	r0, #104	; 0x68
   12a28:	eb00416b 	bl	22fdc <__libc_malloc>
   12a2c:	e2505000 	subs	r5, r0, #0
   12a30:	0a0000d6 	beq	12d90 <_nl_load_domain+0x4b8>
   12a34:	e51b309c 	ldr	r3, [fp, #-156]	; 0xffffff64
   12a38:	e3a00000 	mov	r0, #0
   12a3c:	e5853004 	str	r3, [r5, #4]
   12a40:	e51b30a4 	ldr	r3, [fp, #-164]	; 0xffffff5c
   12a44:	e3570000 	cmp	r7, #0
   12a48:	e5853008 	str	r3, [r5, #8]
   12a4c:	e5865008 	str	r5, [r6, #8]
   12a50:	e5858000 	str	r8, [r5]
   12a54:	e585700c 	str	r7, [r5, #12]
   12a58:	e5850010 	str	r0, [r5, #16]
   12a5c:	e5983004 	ldr	r3, [r8, #4]
   12a60:	0a0000cc 	beq	12d98 <_nl_load_domain+0x4c0>
   12a64:	e6bf3f33 	rev	r3, r3
   12a68:	e3530802 	cmp	r3, #131072	; 0x20000
   12a6c:	2a0000bc 	bcs	12d64 <_nl_load_domain+0x48c>
   12a70:	e2880008 	add	r0, r8, #8
   12a74:	e8901007 	ldm	r0, {r0, r1, r2, ip}
   12a78:	e6bfef3c 	rev	lr, ip
   12a7c:	e6bf1f31 	rev	r1, r1
   12a80:	e6bf2f32 	rev	r2, r2
   12a84:	e0881001 	add	r1, r8, r1
   12a88:	e6bf0f30 	rev	r0, r0
   12a8c:	e0882002 	add	r2, r8, r2
   12a90:	e35e0002 	cmp	lr, #2
   12a94:	e5851018 	str	r1, [r5, #24]
   12a98:	e5850014 	str	r0, [r5, #20]
   12a9c:	e585201c 	str	r2, [r5, #28]
   12aa0:	e585e02c 	str	lr, [r5, #44]	; 0x2c
   12aa4:	9a0000e7 	bls	12e48 <_nl_load_domain+0x570>
   12aa8:	e5982018 	ldr	r2, [r8, #24]
   12aac:	e6bf2f32 	rev	r2, r2
   12ab0:	e6ff3073 	uxth	r3, r3
   12ab4:	e3530000 	cmp	r3, #0
   12ab8:	e0883002 	add	r3, r8, r2
   12abc:	e5853030 	str	r3, [r5, #48]	; 0x30
   12ac0:	e5857034 	str	r7, [r5, #52]	; 0x34
   12ac4:	0a0000c6 	beq	12de4 <_nl_load_domain+0x50c>
   12ac8:	e3530000 	cmp	r3, #0
   12acc:	0a0000e3 	beq	12e60 <_nl_load_domain+0x588>
   12ad0:	e3570000 	cmp	r7, #0
   12ad4:	e5983024 	ldr	r3, [r8, #36]	; 0x24
   12ad8:	0a0000e2 	beq	12e68 <_nl_load_domain+0x590>
   12adc:	e6bf3f33 	rev	r3, r3
   12ae0:	e3530000 	cmp	r3, #0
   12ae4:	e50b30ac 	str	r3, [fp, #-172]	; 0xffffff54
   12ae8:	0a0000bd 	beq	12de4 <_nl_load_domain+0x50c>
   12aec:	e598301c 	ldr	r3, [r8, #28]
   12af0:	e5982020 	ldr	r2, [r8, #32]
   12af4:	e6bf3f33 	rev	r3, r3
   12af8:	e50b30c0 	str	r3, [fp, #-192]	; 0xffffff40
   12afc:	e3530000 	cmp	r3, #0
   12b00:	e1a03103 	lsl	r3, r3, #2
   12b04:	e283300e 	add	r3, r3, #14
   12b08:	e3c33007 	bic	r3, r3, #7
   12b0c:	e04dd003 	sub	sp, sp, r3
   12b10:	e6bf2f32 	rev	r2, r2
   12b14:	e28d3008 	add	r3, sp, #8
   12b18:	e50b30b4 	str	r3, [fp, #-180]	; 0xffffff4c
   12b1c:	e088c002 	add	ip, r8, r2
   12b20:	0a000172 	beq	130f0 <_nl_load_domain+0x818>
   12b24:	e51b30b4 	ldr	r3, [fp, #-180]	; 0xffffff4c
   12b28:	e50be0b0 	str	lr, [fp, #-176]	; 0xffffff50
   12b2c:	e243a004 	sub	sl, r3, #4
   12b30:	e1a0900c 	mov	r9, ip
   12b34:	e3a00000 	mov	r0, #0
   12b38:	e50b50a8 	str	r5, [fp, #-168]	; 0xffffff58
   12b3c:	e51be0c0 	ldr	lr, [fp, #-192]	; 0xffffff40
   12b40:	ea00000b 	b	12b74 <_nl_load_domain+0x29c>
   12b44:	e3510049 	cmp	r1, #73	; 0x49
   12b48:	1a000004 	bne	12b60 <_nl_load_domain+0x288>
   12b4c:	e5d32001 	ldrb	r2, [r3, #1]
   12b50:	e59f3d58 	ldr	r3, [pc, #3416]	; 138b0 <_nl_load_domain+0xfd8>
   12b54:	e3520000 	cmp	r2, #0
   12b58:	13a03000 	movne	r3, #0
   12b5c:	e1a02003 	mov	r2, r3
   12b60:	e2800001 	add	r0, r0, #1
   12b64:	e15e0000 	cmp	lr, r0
   12b68:	e5aa2004 	str	r2, [sl, #4]!
   12b6c:	e2899008 	add	r9, r9, #8
   12b70:	9a00015a 	bls	130e0 <_nl_load_domain+0x808>
   12b74:	e5993004 	ldr	r3, [r9, #4]
   12b78:	e79c2180 	ldr	r2, [ip, r0, lsl #3]
   12b7c:	e3570000 	cmp	r7, #0
   12b80:	16bf3f33 	revne	r3, r3
   12b84:	16bf2f32 	revne	r2, r2
   12b88:	10883003 	addne	r3, r8, r3
   12b8c:	00883003 	addeq	r3, r8, r3
   12b90:	e3520000 	cmp	r2, #0
   12b94:	0a00014a 	beq	130c4 <_nl_load_domain+0x7ec>
   12b98:	e0832002 	add	r2, r3, r2
   12b9c:	e5522001 	ldrb	r2, [r2, #-1]
   12ba0:	e3520000 	cmp	r2, #0
   12ba4:	1a000146 	bne	130c4 <_nl_load_domain+0x7ec>
   12ba8:	e5d31000 	ldrb	r1, [r3]
   12bac:	e3510050 	cmp	r1, #80	; 0x50
   12bb0:	1affffe3 	bne	12b44 <_nl_load_domain+0x26c>
   12bb4:	e5d31001 	ldrb	r1, [r3, #1]
   12bb8:	e3510052 	cmp	r1, #82	; 0x52
   12bbc:	1affffe7 	bne	12b60 <_nl_load_domain+0x288>
   12bc0:	e5d31002 	ldrb	r1, [r3, #2]
   12bc4:	e3510049 	cmp	r1, #73	; 0x49
   12bc8:	1affffe4 	bne	12b60 <_nl_load_domain+0x288>
   12bcc:	e5d31003 	ldrb	r1, [r3, #3]
   12bd0:	e3510069 	cmp	r1, #105	; 0x69
   12bd4:	13510064 	cmpne	r1, #100	; 0x64
   12bd8:	03a05001 	moveq	r5, #1
   12bdc:	13a05000 	movne	r5, #0
   12be0:	e50b50b8 	str	r5, [fp, #-184]	; 0xffffff48
   12be4:	e351006f 	cmp	r1, #111	; 0x6f
   12be8:	03855001 	orreq	r5, r5, #1
   12bec:	e50b50bc 	str	r5, [fp, #-188]	; 0xffffff44
   12bf0:	e3510075 	cmp	r1, #117	; 0x75
   12bf4:	03855001 	orreq	r5, r5, #1
   12bf8:	e50b50c4 	str	r5, [fp, #-196]	; 0xffffff3c
   12bfc:	e3510078 	cmp	r1, #120	; 0x78
   12c00:	03855001 	orreq	r5, r5, #1
   12c04:	e50b50c8 	str	r5, [fp, #-200]	; 0xffffff38
   12c08:	e3510058 	cmp	r1, #88	; 0x58
   12c0c:	03855001 	orreq	r5, r5, #1
   12c10:	e3550000 	cmp	r5, #0
   12c14:	01a02005 	moveq	r2, r5
   12c18:	0affffd0 	beq	12b60 <_nl_load_domain+0x288>
   12c1c:	e5d35004 	ldrb	r5, [r3, #4]
   12c20:	e3550038 	cmp	r5, #56	; 0x38
   12c24:	0a000137 	beq	13108 <_nl_load_domain+0x830>
   12c28:	e3550031 	cmp	r5, #49	; 0x31
   12c2c:	0a000149 	beq	13158 <_nl_load_domain+0x880>
   12c30:	e3550033 	cmp	r5, #51	; 0x33
   12c34:	1a00015f 	bne	131b8 <_nl_load_domain+0x8e0>
   12c38:	e5d32005 	ldrb	r2, [r3, #5]
   12c3c:	e3520032 	cmp	r2, #50	; 0x32
   12c40:	13a02000 	movne	r2, #0
   12c44:	1affffc5 	bne	12b60 <_nl_load_domain+0x288>
   12c48:	e5d33006 	ldrb	r3, [r3, #6]
   12c4c:	e3530000 	cmp	r3, #0
   12c50:	13a02000 	movne	r2, #0
   12c54:	1affffc1 	bne	12b60 <_nl_load_domain+0x288>
   12c58:	e3510064 	cmp	r1, #100	; 0x64
   12c5c:	0a00026f 	beq	13620 <_nl_load_domain+0xd48>
   12c60:	e51b30b8 	ldr	r3, [fp, #-184]	; 0xffffff48
   12c64:	e3530000 	cmp	r3, #0
   12c68:	1a000278 	bne	13650 <_nl_load_domain+0xd78>
   12c6c:	e51b30bc 	ldr	r3, [fp, #-188]	; 0xffffff44
   12c70:	e3530000 	cmp	r3, #0
   12c74:	1a000273 	bne	13648 <_nl_load_domain+0xd70>
   12c78:	e51b30c4 	ldr	r3, [fp, #-196]	; 0xffffff3c
   12c7c:	e3530000 	cmp	r3, #0
   12c80:	1a000274 	bne	13658 <_nl_load_domain+0xd80>
   12c84:	e51b10c8 	ldr	r1, [fp, #-200]	; 0xffffff38
   12c88:	e59f3c48 	ldr	r3, [pc, #3144]	; 138d8 <_nl_load_domain+0x1000>
   12c8c:	e3510000 	cmp	r1, #0
   12c90:	e59f2c44 	ldr	r2, [pc, #3140]	; 138dc <_nl_load_domain+0x1004>
   12c94:	11a02003 	movne	r2, r3
   12c98:	eaffffb0 	b	12b60 <_nl_load_domain+0x288>
   12c9c:	e59f2c10 	ldr	r2, [pc, #3088]	; 138b4 <_nl_load_domain+0xfdc>
   12ca0:	e5943004 	ldr	r3, [r4, #4]
   12ca4:	e2605000 	rsb	r5, r0, #0
   12ca8:	e79f2002 	ldr	r2, [pc, r2]
   12cac:	ebfff8a3 	bl	10f40 <__aeabi_read_tp>
   12cb0:	e7805002 	str	r5, [r0, r2]
   12cb4:	e3a02001 	mov	r2, #1
   12cb8:	e5862004 	str	r2, [r6, #4]
   12cbc:	e2433001 	sub	r3, r3, #1
   12cc0:	e3530000 	cmp	r3, #0
   12cc4:	e5843004 	str	r3, [r4, #4]
   12cc8:	0a000011 	beq	12d14 <_nl_load_domain+0x43c>
   12ccc:	e24bd020 	sub	sp, fp, #32
   12cd0:	e8bd8ff0 	pop	{r4, r5, r6, r7, r8, r9, sl, fp, pc}
   12cd4:	e1a00004 	mov	r0, r4
   12cd8:	e50b208c 	str	r2, [fp, #-140]	; 0xffffff74
   12cdc:	eb005c16 	bl	29d3c <__lll_lock_wait_private>
   12ce0:	eaffff12 	b	12930 <_nl_load_domain+0x58>
   12ce4:	e59f1bcc 	ldr	r1, [pc, #3020]	; 138b8 <_nl_load_domain+0xfe0>
   12ce8:	e2602000 	rsb	r2, r0, #0
   12cec:	ebfff893 	bl	10f40 <__aeabi_read_tp>
   12cf0:	e79f1001 	ldr	r1, [pc, r1]
   12cf4:	e3520004 	cmp	r2, #4
   12cf8:	e7802001 	str	r2, [r0, r1]
   12cfc:	0a0000c2 	beq	1300c <_nl_load_domain+0x734>
   12d00:	e1a00005 	mov	r0, r5
   12d04:	e3a07006 	mov	r7, #6
   12d08:	ef000000 	svc	0x00000000
   12d0c:	e5943004 	ldr	r3, [r4, #4]
   12d10:	eaffffe7 	b	12cb4 <_nl_load_domain+0x3dc>
   12d14:	e5843008 	str	r3, [r4, #8]
   12d18:	ee070fba 	mcr	15, 0, r0, cr7, cr10, {5}
   12d1c:	e1942f9f 	ldrex	r2, [r4]
   12d20:	e1841f93 	strex	r1, r3, [r4]
   12d24:	e3510000 	cmp	r1, #0
   12d28:	1afffffb 	bne	12d1c <_nl_load_domain+0x444>
   12d2c:	e3520001 	cmp	r2, #1
   12d30:	daffffe5 	ble	12ccc <_nl_load_domain+0x3f4>
   12d34:	e59f0b68 	ldr	r0, [pc, #2920]	; 138a4 <_nl_load_domain+0xfcc>
   12d38:	e3a01081 	mov	r1, #129	; 0x81
   12d3c:	e3a02001 	mov	r2, #1
   12d40:	e3a070f0 	mov	r7, #240	; 0xf0
   12d44:	ef000000 	svc	0x00000000
   12d48:	eaffffdf 	b	12ccc <_nl_load_domain+0x3f4>
   12d4c:	e59f3b68 	ldr	r3, [pc, #2920]	; 138bc <_nl_load_domain+0xfe4>
   12d50:	e3530000 	cmp	r3, #0
   12d54:	0a000041 	beq	12e60 <_nl_load_domain+0x588>
   12d58:	e2850040 	add	r0, r5, #64	; 0x40
   12d5c:	e1a00000 	nop			; (mov r0, r0)
   12d60:	e5950010 	ldr	r0, [r5, #16]
   12d64:	eb004216 	bl	235c4 <__cfree>
   12d68:	e51b309c 	ldr	r3, [fp, #-156]	; 0xffffff64
   12d6c:	e3530000 	cmp	r3, #0
   12d70:	0a000016 	beq	12dd0 <_nl_load_domain+0x4f8>
   12d74:	e51b10a4 	ldr	r1, [fp, #-164]	; 0xffffff5c
   12d78:	e1a00008 	mov	r0, r8
   12d7c:	eb0057a3 	bl	28c10 <__munmap>
   12d80:	e1a00005 	mov	r0, r5
   12d84:	eb00420e 	bl	235c4 <__cfree>
   12d88:	e3a03000 	mov	r3, #0
   12d8c:	e5863008 	str	r3, [r6, #8]
   12d90:	e5943004 	ldr	r3, [r4, #4]
   12d94:	eaffffc6 	b	12cb4 <_nl_load_domain+0x3dc>
   12d98:	e3530802 	cmp	r3, #131072	; 0x20000
   12d9c:	2a00000e 	bcs	12ddc <_nl_load_domain+0x504>
   12da0:	e2880008 	add	r0, r8, #8
   12da4:	e8904007 	ldm	r0, {r0, r1, r2, lr}
   12da8:	e0881001 	add	r1, r8, r1
   12dac:	e0882002 	add	r2, r8, r2
   12db0:	e35e0002 	cmp	lr, #2
   12db4:	e5851018 	str	r1, [r5, #24]
   12db8:	e5850014 	str	r0, [r5, #20]
   12dbc:	e585201c 	str	r2, [r5, #28]
   12dc0:	e585e02c 	str	lr, [r5, #44]	; 0x2c
   12dc4:	9a00001f 	bls	12e48 <_nl_load_domain+0x570>
   12dc8:	e5982018 	ldr	r2, [r8, #24]
   12dcc:	eaffff37 	b	12ab0 <_nl_load_domain+0x1d8>
   12dd0:	e1a00008 	mov	r0, r8
   12dd4:	eb0041fa 	bl	235c4 <__cfree>
   12dd8:	eaffffe8 	b	12d80 <_nl_load_domain+0x4a8>
   12ddc:	e1a00007 	mov	r0, r7
   12de0:	eaffffdf 	b	12d64 <_nl_load_domain+0x48c>
   12de4:	e3a03000 	mov	r3, #0
   12de8:	e5853020 	str	r3, [r5, #32]
   12dec:	e5853024 	str	r3, [r5, #36]	; 0x24
   12df0:	e5853028 	str	r3, [r5, #40]	; 0x28
   12df4:	e59f3ac4 	ldr	r3, [pc, #2756]	; 138c0 <_nl_load_domain+0xfe8>
   12df8:	e3a01000 	mov	r1, #0
   12dfc:	e1530001 	cmp	r3, r1
   12e00:	e5851038 	str	r1, [r5, #56]	; 0x38
   12e04:	e585103c 	str	r1, [r5, #60]	; 0x3c
   12e08:	0a000001 	beq	12e14 <_nl_load_domain+0x53c>
   12e0c:	e2850040 	add	r0, r5, #64	; 0x40
   12e10:	e1a00000 	nop			; (mov r0, r0)
   12e14:	e24b3094 	sub	r3, fp, #148	; 0x94
   12e18:	e58d3000 	str	r3, [sp]
   12e1c:	e51b1098 	ldr	r1, [fp, #-152]	; 0xffffff68
   12e20:	e3a03000 	mov	r3, #0
   12e24:	e59f2a98 	ldr	r2, [pc, #2712]	; 138c4 <_nl_load_domain+0xfec>
   12e28:	e1a00006 	mov	r0, r6
   12e2c:	ebfff95e 	bl	113ac <_nl_find_msg>
   12e30:	e3700001 	cmn	r0, #1
   12e34:	0affffc4 	beq	12d4c <_nl_load_domain+0x474>
   12e38:	e2852064 	add	r2, r5, #100	; 0x64
   12e3c:	e2851060 	add	r1, r5, #96	; 0x60
   12e40:	eb0009c6 	bl	15560 <__gettext_extract_plural>
   12e44:	eaffffd1 	b	12d90 <_nl_load_domain+0x4b8>
   12e48:	e6ff3073 	uxth	r3, r3
   12e4c:	e3530000 	cmp	r3, #0
   12e50:	e3a03000 	mov	r3, #0
   12e54:	e5857034 	str	r7, [r5, #52]	; 0x34
   12e58:	e5853030 	str	r3, [r5, #48]	; 0x30
   12e5c:	0affffe0 	beq	12de4 <_nl_load_domain+0x50c>
   12e60:	e5950010 	ldr	r0, [r5, #16]
   12e64:	eaffffbe 	b	12d64 <_nl_load_domain+0x48c>
   12e68:	e3530000 	cmp	r3, #0
   12e6c:	e50b30ac 	str	r3, [fp, #-172]	; 0xffffff54
   12e70:	0affffdb 	beq	12de4 <_nl_load_domain+0x50c>
   12e74:	e598301c 	ldr	r3, [r8, #28]
   12e78:	e5982020 	ldr	r2, [r8, #32]
   12e7c:	e50b30c0 	str	r3, [fp, #-192]	; 0xffffff40
   12e80:	e3530000 	cmp	r3, #0
   12e84:	e1a03103 	lsl	r3, r3, #2
   12e88:	e283300e 	add	r3, r3, #14
   12e8c:	e3c33007 	bic	r3, r3, #7
   12e90:	e04dd003 	sub	sp, sp, r3
   12e94:	e28d3008 	add	r3, sp, #8
   12e98:	e50b30b4 	str	r3, [fp, #-180]	; 0xffffff4c
   12e9c:	e088c002 	add	ip, r8, r2
   12ea0:	1affff1f 	bne	12b24 <_nl_load_domain+0x24c>
   12ea4:	e5983028 	ldr	r3, [r8, #40]	; 0x28
   12ea8:	e598202c 	ldr	r2, [r8, #44]	; 0x2c
   12eac:	e0883003 	add	r3, r8, r3
   12eb0:	e50b50d4 	str	r5, [fp, #-212]	; 0xffffff2c
   12eb4:	e51b50c0 	ldr	r5, [fp, #-192]	; 0xffffff40
   12eb8:	e50b60c0 	str	r6, [fp, #-192]	; 0xffffff40
   12ebc:	e51b60b4 	ldr	r6, [fp, #-180]	; 0xffffff4c
   12ec0:	e1a0110e 	lsl	r1, lr, #2
   12ec4:	e0882002 	add	r2, r8, r2
   12ec8:	e3a00000 	mov	r0, #0
   12ecc:	e50b10d8 	str	r1, [fp, #-216]	; 0xffffff28
   12ed0:	e50b30d0 	str	r3, [fp, #-208]	; 0xffffff30
   12ed4:	e50b20cc 	str	r2, [fp, #-204]	; 0xffffff34
   12ed8:	e50b00c4 	str	r0, [fp, #-196]	; 0xffffff3c
   12edc:	e50b20a8 	str	r2, [fp, #-168]	; 0xffffff58
   12ee0:	e50b30bc 	str	r3, [fp, #-188]	; 0xffffff44
   12ee4:	e50b10c8 	str	r1, [fp, #-200]	; 0xffffff38
   12ee8:	e50b00b0 	str	r0, [fp, #-176]	; 0xffffff50
   12eec:	e50b80b8 	str	r8, [fp, #-184]	; 0xffffff48
   12ef0:	e3a09000 	mov	r9, #0
   12ef4:	e3570000 	cmp	r7, #0
   12ef8:	0a00006c 	beq	130b0 <_nl_load_domain+0x7d8>
   12efc:	e3590000 	cmp	r9, #0
   12f00:	051b30bc 	ldreq	r3, [fp, #-188]	; 0xffffff44
   12f04:	151b30a8 	ldrne	r3, [fp, #-168]	; 0xffffff58
   12f08:	e5933000 	ldr	r3, [r3]
   12f0c:	e6bfaf33 	rev	sl, r3
   12f10:	e51b30b8 	ldr	r3, [fp, #-184]	; 0xffffff48
   12f14:	e083a00a 	add	sl, r3, sl
   12f18:	e59a3008 	ldr	r3, [sl, #8]
   12f1c:	e2933001 	adds	r3, r3, #1
   12f20:	13a03001 	movne	r3, #1
   12f24:	e3530000 	cmp	r3, #0
   12f28:	1a000047 	bne	1304c <_nl_load_domain+0x774>
   12f2c:	e3a08000 	mov	r8, #0
   12f30:	e24b3094 	sub	r3, fp, #148	; 0x94
   12f34:	e7838109 	str	r8, [r3, r9, lsl #2]
   12f38:	e2899001 	add	r9, r9, #1
   12f3c:	e3590002 	cmp	r9, #2
   12f40:	1affffeb 	bne	12ef4 <_nl_load_domain+0x61c>
   12f44:	e51b2090 	ldr	r2, [fp, #-144]	; 0xffffff70
   12f48:	e51b3094 	ldr	r3, [fp, #-148]	; 0xffffff6c
   12f4c:	e51b10b0 	ldr	r1, [fp, #-176]	; 0xffffff50
   12f50:	e0833002 	add	r3, r3, r2
   12f54:	e51b20c8 	ldr	r2, [fp, #-200]	; 0xffffff38
   12f58:	e2811001 	add	r1, r1, #1
   12f5c:	e0823003 	add	r3, r2, r3
   12f60:	e50b10b0 	str	r1, [fp, #-176]	; 0xffffff50
   12f64:	e50b30c8 	str	r3, [fp, #-200]	; 0xffffff38
   12f68:	e51b30c4 	ldr	r3, [fp, #-196]	; 0xffffff3c
   12f6c:	e51b20ac 	ldr	r2, [fp, #-172]	; 0xffffff54
   12f70:	e2833001 	add	r3, r3, #1
   12f74:	e50b30c4 	str	r3, [fp, #-196]	; 0xffffff3c
   12f78:	e1530002 	cmp	r3, r2
   12f7c:	e51b30bc 	ldr	r3, [fp, #-188]	; 0xffffff44
   12f80:	e2833004 	add	r3, r3, #4
   12f84:	e50b30bc 	str	r3, [fp, #-188]	; 0xffffff44
   12f88:	e51b30a8 	ldr	r3, [fp, #-168]	; 0xffffff58
   12f8c:	e2833004 	add	r3, r3, #4
   12f90:	e50b30a8 	str	r3, [fp, #-168]	; 0xffffff58
   12f94:	3affffd5 	bcc	12ef0 <_nl_load_domain+0x618>
   12f98:	e51b30b0 	ldr	r3, [fp, #-176]	; 0xffffff50
   12f9c:	e51b80b8 	ldr	r8, [fp, #-184]	; 0xffffff48
   12fa0:	e3530000 	cmp	r3, #0
   12fa4:	e51b50d4 	ldr	r5, [fp, #-212]	; 0xffffff2c
   12fa8:	e51b60c0 	ldr	r6, [fp, #-192]	; 0xffffff40
   12fac:	1a00009c 	bne	13224 <_nl_load_domain+0x94c>
   12fb0:	e51b30b0 	ldr	r3, [fp, #-176]	; 0xffffff50
   12fb4:	e5853020 	str	r3, [r5, #32]
   12fb8:	e5853024 	str	r3, [r5, #36]	; 0x24
   12fbc:	e5853028 	str	r3, [r5, #40]	; 0x28
   12fc0:	eaffff8b 	b	12df4 <_nl_load_domain+0x51c>
   12fc4:	e51b00a4 	ldr	r0, [fp, #-164]	; 0xffffff5c
   12fc8:	eb004003 	bl	22fdc <__libc_malloc>
   12fcc:	e2508000 	subs	r8, r0, #0
   12fd0:	0affff4a 	beq	12d00 <_nl_load_domain+0x428>
   12fd4:	e51b30a4 	ldr	r3, [fp, #-164]	; 0xffffff5c
   12fd8:	e1a0a008 	mov	sl, r8
   12fdc:	e3a09003 	mov	r9, #3
   12fe0:	e1a00005 	mov	r0, r5
   12fe4:	e1a0100a 	mov	r1, sl
   12fe8:	e1a02003 	mov	r2, r3
   12fec:	e1a07009 	mov	r7, r9
   12ff0:	ef000000 	svc	0x00000000
   12ff4:	e3700a01 	cmn	r0, #4096	; 0x1000
   12ff8:	8affff39 	bhi	12ce4 <_nl_load_domain+0x40c>
   12ffc:	e3500000 	cmp	r0, #0
   13000:	daffff3e 	ble	12d00 <_nl_load_domain+0x428>
   13004:	e08aa000 	add	sl, sl, r0
   13008:	e0433000 	sub	r3, r3, r0
   1300c:	e3530000 	cmp	r3, #0
   13010:	1afffff2 	bne	12fe0 <_nl_load_domain+0x708>
   13014:	e1a00005 	mov	r0, r5
   13018:	e3a07006 	mov	r7, #6
   1301c:	ef000000 	svc	0x00000000
   13020:	e59f2880 	ldr	r2, [pc, #2176]	; 138a8 <_nl_load_domain+0xfd0>
   13024:	e5983000 	ldr	r3, [r8]
   13028:	e59f187c 	ldr	r1, [pc, #2172]	; 138ac <_nl_load_domain+0xfd4>
   1302c:	e0537002 	subs	r7, r3, r2
   13030:	13a07001 	movne	r7, #1
   13034:	e1530001 	cmp	r3, r1
   13038:	11530002 	cmpne	r3, r2
   1303c:	0afffe78 	beq	12a24 <_nl_load_domain+0x14c>
   13040:	e1a00008 	mov	r0, r8
   13044:	eb00415e 	bl	235c4 <__cfree>
   13048:	eaffff50 	b	12d90 <_nl_load_domain+0x4b8>
   1304c:	e28aa00c 	add	sl, sl, #12
   13050:	e3a00000 	mov	r0, #0
   13054:	ea000005 	b	13070 <_nl_load_domain+0x798>
   13058:	e7960103 	ldr	r0, [r6, r3, lsl #2]
   1305c:	e28aa008 	add	sl, sl, #8
   13060:	e3500000 	cmp	r0, #0
   13064:	0affffbf 	beq	12f68 <_nl_load_domain+0x690>
   13068:	eb004994 	bl	256c0 <strlen>
   1306c:	e0800008 	add	r0, r0, r8
   13070:	e51a8008 	ldr	r8, [sl, #-8]
   13074:	e51a3004 	ldr	r3, [sl, #-4]
   13078:	e3570000 	cmp	r7, #0
   1307c:	16bf8f38 	revne	r8, r8
   13080:	16bf3f33 	revne	r3, r3
   13084:	10808008 	addne	r8, r0, r8
   13088:	00808008 	addeq	r8, r0, r8
   1308c:	e3730001 	cmn	r3, #1
   13090:	0affffa6 	beq	12f30 <_nl_load_domain+0x658>
   13094:	e1530005 	cmp	r3, r5
   13098:	3affffee 	bcc	13058 <_nl_load_domain+0x780>
   1309c:	e51b50d4 	ldr	r5, [fp, #-212]	; 0xffffff2c
   130a0:	e51b80b8 	ldr	r8, [fp, #-184]	; 0xffffff48
   130a4:	e51b60c0 	ldr	r6, [fp, #-192]	; 0xffffff40
   130a8:	e5950010 	ldr	r0, [r5, #16]
   130ac:	eaffff2c 	b	12d64 <_nl_load_domain+0x48c>
   130b0:	e3590000 	cmp	r9, #0
   130b4:	051b30bc 	ldreq	r3, [fp, #-188]	; 0xffffff44
   130b8:	151b30a8 	ldrne	r3, [fp, #-168]	; 0xffffff58
   130bc:	e593a000 	ldr	sl, [r3]
   130c0:	eaffff92 	b	12f10 <_nl_load_domain+0x638>
   130c4:	e51b50a8 	ldr	r5, [fp, #-168]	; 0xffffff58
   130c8:	e5950010 	ldr	r0, [r5, #16]
   130cc:	eaffff24 	b	12d64 <_nl_load_domain+0x48c>
   130d0:	e51b10a4 	ldr	r1, [fp, #-164]	; 0xffffff5c
   130d4:	e1a00008 	mov	r0, r8
   130d8:	eb0056cc 	bl	28c10 <__munmap>
   130dc:	eaffff2b 	b	12d90 <_nl_load_domain+0x4b8>
   130e0:	e3570000 	cmp	r7, #0
   130e4:	e51be0b0 	ldr	lr, [fp, #-176]	; 0xffffff50
   130e8:	e51b50a8 	ldr	r5, [fp, #-168]	; 0xffffff58
   130ec:	0affff6c 	beq	12ea4 <_nl_load_domain+0x5cc>
   130f0:	e5983028 	ldr	r3, [r8, #40]	; 0x28
   130f4:	e598202c 	ldr	r2, [r8, #44]	; 0x2c
   130f8:	e6bf3f33 	rev	r3, r3
   130fc:	e0883003 	add	r3, r8, r3
   13100:	e6bf2f32 	rev	r2, r2
   13104:	eaffff69 	b	12eb0 <_nl_load_domain+0x5d8>
   13108:	e5d33005 	ldrb	r3, [r3, #5]
   1310c:	e3530000 	cmp	r3, #0
   13110:	1afffe92 	bne	12b60 <_nl_load_domain+0x288>
   13114:	e3510064 	cmp	r1, #100	; 0x64
   13118:	0a00013b 	beq	1360c <_nl_load_domain+0xd34>
   1311c:	e51b30b8 	ldr	r3, [fp, #-184]	; 0xffffff48
   13120:	e3530000 	cmp	r3, #0
   13124:	1a000136 	bne	13604 <_nl_load_domain+0xd2c>
   13128:	e51b30bc 	ldr	r3, [fp, #-188]	; 0xffffff44
   1312c:	e3530000 	cmp	r3, #0
   13130:	1a000131 	bne	135fc <_nl_load_domain+0xd24>
   13134:	e51b30c4 	ldr	r3, [fp, #-196]	; 0xffffff3c
   13138:	e3530000 	cmp	r3, #0
   1313c:	1a000134 	bne	13614 <_nl_load_domain+0xd3c>
   13140:	e51b10c8 	ldr	r1, [fp, #-200]	; 0xffffff38
   13144:	e59f378c 	ldr	r3, [pc, #1932]	; 138d8 <_nl_load_domain+0x1000>
   13148:	e3510000 	cmp	r1, #0
   1314c:	e59f2788 	ldr	r2, [pc, #1928]	; 138dc <_nl_load_domain+0x1004>
   13150:	11a02003 	movne	r2, r3
   13154:	eafffe81 	b	12b60 <_nl_load_domain+0x288>
   13158:	e5d35005 	ldrb	r5, [r3, #5]
   1315c:	e3550036 	cmp	r5, #54	; 0x36
   13160:	1afffe7e 	bne	12b60 <_nl_load_domain+0x288>
   13164:	e5d33006 	ldrb	r3, [r3, #6]
   13168:	e3530000 	cmp	r3, #0
   1316c:	13a02000 	movne	r2, #0
   13170:	1afffe7a 	bne	12b60 <_nl_load_domain+0x288>
   13174:	e3510064 	cmp	r1, #100	; 0x64
   13178:	0a000130 	beq	13640 <_nl_load_domain+0xd68>
   1317c:	e51b30b8 	ldr	r3, [fp, #-184]	; 0xffffff48
   13180:	e3530000 	cmp	r3, #0
   13184:	1a00012b 	bne	13638 <_nl_load_domain+0xd60>
   13188:	e51b30bc 	ldr	r3, [fp, #-188]	; 0xffffff44
   1318c:	e3530000 	cmp	r3, #0
   13190:	1a000126 	bne	13630 <_nl_load_domain+0xd58>
   13194:	e51b30c4 	ldr	r3, [fp, #-196]	; 0xffffff3c
   13198:	e3530000 	cmp	r3, #0
   1319c:	1a000121 	bne	13628 <_nl_load_domain+0xd50>
   131a0:	e51b10c8 	ldr	r1, [fp, #-200]	; 0xffffff38
   131a4:	e59f372c 	ldr	r3, [pc, #1836]	; 138d8 <_nl_load_domain+0x1000>
   131a8:	e3510000 	cmp	r1, #0
   131ac:	e59f2728 	ldr	r2, [pc, #1832]	; 138dc <_nl_load_domain+0x1004>
   131b0:	11a02003 	movne	r2, r3
   131b4:	eafffe69 	b	12b60 <_nl_load_domain+0x288>
   131b8:	e3550036 	cmp	r5, #54	; 0x36
   131bc:	1a00012f 	bne	13680 <_nl_load_domain+0xda8>
   131c0:	e5d32005 	ldrb	r2, [r3, #5]
   131c4:	e3520034 	cmp	r2, #52	; 0x34
   131c8:	13a02000 	movne	r2, #0
   131cc:	1afffe63 	bne	12b60 <_nl_load_domain+0x288>
   131d0:	e5d33006 	ldrb	r3, [r3, #6]
   131d4:	e3530000 	cmp	r3, #0
   131d8:	13a02000 	movne	r2, #0
   131dc:	1afffe5f 	bne	12b60 <_nl_load_domain+0x288>
   131e0:	e3510064 	cmp	r1, #100	; 0x64
   131e4:	0a000123 	beq	13678 <_nl_load_domain+0xda0>
   131e8:	e51b30b8 	ldr	r3, [fp, #-184]	; 0xffffff48
   131ec:	e3530000 	cmp	r3, #0
   131f0:	1a00011e 	bne	13670 <_nl_load_domain+0xd98>
   131f4:	e51b30bc 	ldr	r3, [fp, #-188]	; 0xffffff44
   131f8:	e3530000 	cmp	r3, #0
   131fc:	1a000119 	bne	13668 <_nl_load_domain+0xd90>
   13200:	e51b30c4 	ldr	r3, [fp, #-196]	; 0xffffff3c
   13204:	e3530000 	cmp	r3, #0
   13208:	1a000114 	bne	13660 <_nl_load_domain+0xd88>
   1320c:	e51b10c8 	ldr	r1, [fp, #-200]	; 0xffffff38
   13210:	e59f36b0 	ldr	r3, [pc, #1712]	; 138c8 <_nl_load_domain+0xff0>
   13214:	e3510000 	cmp	r1, #0
   13218:	e59f26ac 	ldr	r2, [pc, #1708]	; 138cc <_nl_load_domain+0xff4>
   1321c:	01a02003 	moveq	r2, r3
   13220:	eafffe4e 	b	12b60 <_nl_load_domain+0x288>
   13224:	e51b20b0 	ldr	r2, [fp, #-176]	; 0xffffff50
   13228:	e51b30c8 	ldr	r3, [fp, #-200]	; 0xffffff38
   1322c:	e0830202 	add	r0, r3, r2, lsl #4
   13230:	eb003f69 	bl	22fdc <__libc_malloc>
   13234:	e2503000 	subs	r3, r0, #0
   13238:	e50b30c4 	str	r3, [fp, #-196]	; 0xffffff3c
   1323c:	0affff07 	beq	12e60 <_nl_load_domain+0x588>
   13240:	e51b20b0 	ldr	r2, [fp, #-176]	; 0xffffff50
   13244:	e51b30c4 	ldr	r3, [fp, #-196]	; 0xffffff3c
   13248:	e51b00d8 	ldr	r0, [fp, #-216]	; 0xffffff28
   1324c:	e083a202 	add	sl, r3, r2, lsl #4
   13250:	e08a9000 	add	r9, sl, r0
   13254:	e50ba0e4 	str	sl, [fp, #-228]	; 0xffffff1c
   13258:	e51ba0b4 	ldr	sl, [fp, #-180]	; 0xffffff4c
   1325c:	e3a01000 	mov	r1, #0
   13260:	e5853010 	str	r3, [r5, #16]
   13264:	e0833182 	add	r3, r3, r2, lsl #3
   13268:	e50b10c0 	str	r1, [fp, #-192]	; 0xffffff40
   1326c:	e50b10c8 	str	r1, [fp, #-200]	; 0xffffff38
   13270:	e50b30dc 	str	r3, [fp, #-220]	; 0xffffff24
   13274:	e50b80b8 	str	r8, [fp, #-184]	; 0xffffff48
   13278:	e50b50d4 	str	r5, [fp, #-212]	; 0xffffff2c
   1327c:	e50b60e8 	str	r6, [fp, #-232]	; 0xffffff18
   13280:	e51b30d4 	ldr	r3, [fp, #-212]	; 0xffffff2c
   13284:	e3a01000 	mov	r1, #0
   13288:	e593700c 	ldr	r7, [r3, #12]
   1328c:	e3570000 	cmp	r7, #0
   13290:	0a000099 	beq	134fc <_nl_load_domain+0xc24>
   13294:	e3510000 	cmp	r1, #0
   13298:	051b30d0 	ldreq	r3, [fp, #-208]	; 0xffffff30
   1329c:	151b30cc 	ldrne	r3, [fp, #-204]	; 0xffffff34
   132a0:	e5933000 	ldr	r3, [r3]
   132a4:	e6bf2f33 	rev	r2, r3
   132a8:	e51b30b8 	ldr	r3, [fp, #-184]	; 0xffffff48
   132ac:	e0832002 	add	r2, r3, r2
   132b0:	e5923008 	ldr	r3, [r2, #8]
   132b4:	e2933001 	adds	r3, r3, #1
   132b8:	13a03001 	movne	r3, #1
   132bc:	e3530000 	cmp	r3, #0
   132c0:	0a00000a 	beq	132f0 <_nl_load_domain+0xa18>
   132c4:	e2822004 	add	r2, r2, #4
   132c8:	ea000003 	b	132dc <_nl_load_domain+0xa04>
   132cc:	e79a3103 	ldr	r3, [sl, r3, lsl #2]
   132d0:	e3530000 	cmp	r3, #0
   132d4:	0a000035 	beq	133b0 <_nl_load_domain+0xad8>
   132d8:	e2822008 	add	r2, r2, #8
   132dc:	e5923004 	ldr	r3, [r2, #4]
   132e0:	e3570000 	cmp	r7, #0
   132e4:	16bf3f33 	revne	r3, r3
   132e8:	e3730001 	cmn	r3, #1
   132ec:	1afffff6 	bne	132cc <_nl_load_domain+0x9f4>
   132f0:	e2811001 	add	r1, r1, #1
   132f4:	e3510002 	cmp	r1, #2
   132f8:	1affffe3 	bne	1328c <_nl_load_domain+0x9b4>
   132fc:	e51b30c0 	ldr	r3, [fp, #-192]	; 0xffffff40
   13300:	e51b20c4 	ldr	r2, [fp, #-196]	; 0xffffff3c
   13304:	e1a03183 	lsl	r3, r3, #3
   13308:	e0822003 	add	r2, r2, r3
   1330c:	e50b20d8 	str	r2, [fp, #-216]	; 0xffffff28
   13310:	e51b20dc 	ldr	r2, [fp, #-220]	; 0xffffff24
   13314:	e0823003 	add	r3, r2, r3
   13318:	e50b30e0 	str	r3, [fp, #-224]	; 0xffffff20
   1331c:	e3a03000 	mov	r3, #0
   13320:	e50b30b4 	str	r3, [fp, #-180]	; 0xffffff4c
   13324:	e3570000 	cmp	r7, #0
   13328:	e51b30b4 	ldr	r3, [fp, #-180]	; 0xffffff4c
   1332c:	0a00009b 	beq	135a0 <_nl_load_domain+0xcc8>
   13330:	e3530000 	cmp	r3, #0
   13334:	051b30d0 	ldreq	r3, [fp, #-208]	; 0xffffff30
   13338:	151b30cc 	ldrne	r3, [fp, #-204]	; 0xffffff34
   1333c:	051b20d8 	ldreq	r2, [fp, #-216]	; 0xffffff28
   13340:	151b20e0 	ldrne	r2, [fp, #-224]	; 0xffffff20
   13344:	05933000 	ldreq	r3, [r3]
   13348:	15933000 	ldrne	r3, [r3]
   1334c:	e50b20bc 	str	r2, [fp, #-188]	; 0xffffff44
   13350:	e51b20b8 	ldr	r2, [fp, #-184]	; 0xffffff48
   13354:	e6bf3f33 	rev	r3, r3
   13358:	e0825003 	add	r5, r2, r3
   1335c:	e7928003 	ldr	r8, [r2, r3]
   13360:	e6bf8f38 	rev	r8, r8
   13364:	e0823008 	add	r3, r2, r8
   13368:	e50b30a8 	str	r3, [fp, #-168]	; 0xffffff58
   1336c:	e5953008 	ldr	r3, [r5, #8]
   13370:	e3730001 	cmn	r3, #1
   13374:	1a000068 	bne	1351c <_nl_load_domain+0xc44>
   13378:	e5953004 	ldr	r3, [r5, #4]
   1337c:	e6bf3f33 	rev	r3, r3
   13380:	e51b20bc 	ldr	r2, [fp, #-188]	; 0xffffff44
   13384:	e5823000 	str	r3, [r2]
   13388:	e51b30a8 	ldr	r3, [fp, #-168]	; 0xffffff58
   1338c:	e5823004 	str	r3, [r2, #4]
   13390:	e51b30b4 	ldr	r3, [fp, #-180]	; 0xffffff4c
   13394:	e2833001 	add	r3, r3, #1
   13398:	e3530002 	cmp	r3, #2
   1339c:	e50b30b4 	str	r3, [fp, #-180]	; 0xffffff4c
   133a0:	1a00005a 	bne	13510 <_nl_load_domain+0xc38>
   133a4:	e51b30c0 	ldr	r3, [fp, #-192]	; 0xffffff40
   133a8:	e2833001 	add	r3, r3, #1
   133ac:	e50b30c0 	str	r3, [fp, #-192]	; 0xffffff40
   133b0:	e51b30c8 	ldr	r3, [fp, #-200]	; 0xffffff38
   133b4:	e51b20ac 	ldr	r2, [fp, #-172]	; 0xffffff54
   133b8:	e2833001 	add	r3, r3, #1
   133bc:	e50b30c8 	str	r3, [fp, #-200]	; 0xffffff38
   133c0:	e1530002 	cmp	r3, r2
   133c4:	e51b30d0 	ldr	r3, [fp, #-208]	; 0xffffff30
   133c8:	e2833004 	add	r3, r3, #4
   133cc:	e50b30d0 	str	r3, [fp, #-208]	; 0xffffff30
   133d0:	e51b30cc 	ldr	r3, [fp, #-204]	; 0xffffff34
   133d4:	e2833004 	add	r3, r3, #4
   133d8:	e50b30cc 	str	r3, [fp, #-204]	; 0xffffff34
   133dc:	3affffa7 	bcc	13280 <_nl_load_domain+0x9a8>
   133e0:	e51b30b0 	ldr	r3, [fp, #-176]	; 0xffffff50
   133e4:	e51b20c0 	ldr	r2, [fp, #-192]	; 0xffffff40
   133e8:	e51b80b8 	ldr	r8, [fp, #-184]	; 0xffffff48
   133ec:	e1530002 	cmp	r3, r2
   133f0:	e51b50d4 	ldr	r5, [fp, #-212]	; 0xffffff2c
   133f4:	e51ba0e4 	ldr	sl, [fp, #-228]	; 0xffffff1c
   133f8:	e51b60e8 	ldr	r6, [fp, #-232]	; 0xffffff18
   133fc:	1a000086 	bne	1361c <_nl_load_domain+0xd44>
   13400:	e595202c 	ldr	r2, [r5, #44]	; 0x2c
   13404:	e3520000 	cmp	r2, #0
   13408:	108a2102 	addne	r2, sl, r2, lsl #2
   1340c:	1595c034 	ldrne	ip, [r5, #52]	; 0x34
   13410:	15950030 	ldrne	r0, [r5, #48]	; 0x30
   13414:	11a0300a 	movne	r3, sl
   13418:	0a000006 	beq	13438 <_nl_load_domain+0xb60>
   1341c:	e043100a 	sub	r1, r3, sl
   13420:	e35c0000 	cmp	ip, #0
   13424:	e7901001 	ldr	r1, [r0, r1]
   13428:	16bf1f31 	revne	r1, r1
   1342c:	e4831004 	str	r1, [r3], #4
   13430:	e1520003 	cmp	r2, r3
   13434:	1afffff8 	bne	1341c <_nl_load_domain+0xb44>
   13438:	e51b30c4 	ldr	r3, [fp, #-196]	; 0xffffff3c
   1343c:	e3a02000 	mov	r2, #0
   13440:	e50b80ac 	str	r8, [fp, #-172]	; 0xffffff54
   13444:	e50b60b4 	str	r6, [fp, #-180]	; 0xffffff4c
   13448:	e1a08003 	mov	r8, r3
   1344c:	e1a06005 	mov	r6, r5
   13450:	e1a05002 	mov	r5, r2
   13454:	e5980004 	ldr	r0, [r8, #4]
   13458:	eb00087f 	bl	1565c <__hash_string>
   1345c:	e596902c 	ldr	r9, [r6, #44]	; 0x2c
   13460:	e1a01009 	mov	r1, r9
   13464:	e50b00a8 	str	r0, [fp, #-168]	; 0xffffff58
   13468:	eb016666 	bl	6ce08 <__aeabi_uidivmod>
   1346c:	e51b30a8 	ldr	r3, [fp, #-168]	; 0xffffff58
   13470:	e1a00003 	mov	r0, r3
   13474:	e1a07001 	mov	r7, r1
   13478:	e2491002 	sub	r1, r9, #2
   1347c:	eb016661 	bl	6ce08 <__aeabi_uidivmod>
   13480:	e2811001 	add	r1, r1, #1
   13484:	e049c001 	sub	ip, r9, r1
   13488:	e0419009 	sub	r9, r1, r9
   1348c:	ea000002 	b	1349c <_nl_load_domain+0xbc4>
   13490:	e157000c 	cmp	r7, ip
   13494:	20877009 	addcs	r7, r7, r9
   13498:	30877001 	addcc	r7, r7, r1
   1349c:	e79a3107 	ldr	r3, [sl, r7, lsl #2]
   134a0:	e08a0107 	add	r0, sl, r7, lsl #2
   134a4:	e3530000 	cmp	r3, #0
   134a8:	1afffff8 	bne	13490 <_nl_load_domain+0xbb8>
   134ac:	e5961014 	ldr	r1, [r6, #20]
   134b0:	e51b20b0 	ldr	r2, [fp, #-176]	; 0xffffff50
   134b4:	e2811001 	add	r1, r1, #1
   134b8:	e0811005 	add	r1, r1, r5
   134bc:	e2855001 	add	r5, r5, #1
   134c0:	e1520005 	cmp	r2, r5
   134c4:	e2888008 	add	r8, r8, #8
   134c8:	e5801000 	str	r1, [r0]
   134cc:	1affffe0 	bne	13454 <_nl_load_domain+0xb7c>
   134d0:	e1a05006 	mov	r5, r6
   134d4:	e51b80ac 	ldr	r8, [fp, #-172]	; 0xffffff54
   134d8:	e5852020 	str	r2, [r5, #32]
   134dc:	e51b20c4 	ldr	r2, [fp, #-196]	; 0xffffff3c
   134e0:	e51b60b4 	ldr	r6, [fp, #-180]	; 0xffffff4c
   134e4:	e5852024 	str	r2, [r5, #36]	; 0x24
   134e8:	e51b20dc 	ldr	r2, [fp, #-220]	; 0xffffff24
   134ec:	e585a030 	str	sl, [r5, #48]	; 0x30
   134f0:	e5852028 	str	r2, [r5, #40]	; 0x28
   134f4:	e5853034 	str	r3, [r5, #52]	; 0x34
   134f8:	eafffe3d 	b	12df4 <_nl_load_domain+0x51c>
   134fc:	e3510000 	cmp	r1, #0
   13500:	051b30d0 	ldreq	r3, [fp, #-208]	; 0xffffff30
   13504:	151b30cc 	ldrne	r3, [fp, #-204]	; 0xffffff34
   13508:	e5932000 	ldr	r2, [r3]
   1350c:	eaffff65 	b	132a8 <_nl_load_domain+0x9d0>
   13510:	e51b30d4 	ldr	r3, [fp, #-212]	; 0xffffff2c
   13514:	e593700c 	ldr	r7, [r3, #12]
   13518:	eaffff81 	b	13324 <_nl_load_domain+0xa4c>
   1351c:	e51b30bc 	ldr	r3, [fp, #-188]	; 0xffffff44
   13520:	e285500c 	add	r5, r5, #12
   13524:	e5839004 	str	r9, [r3, #4]
   13528:	ea00000b 	b	1355c <_nl_load_domain+0xc84>
   1352c:	e3760001 	cmn	r6, #1
   13530:	e2855008 	add	r5, r5, #8
   13534:	0a00002b 	beq	135e8 <_nl_load_domain+0xd10>
   13538:	e79a8106 	ldr	r8, [sl, r6, lsl #2]
   1353c:	e1a00008 	mov	r0, r8
   13540:	eb00485e 	bl	256c0 <strlen>
   13544:	e1a01008 	mov	r1, r8
   13548:	e1a06000 	mov	r6, r0
   1354c:	e1a02000 	mov	r2, r0
   13550:	e1a00009 	mov	r0, r9
   13554:	eb004d4d 	bl	26a90 <memcpy>
   13558:	e0899006 	add	r9, r9, r6
   1355c:	e3570000 	cmp	r7, #0
   13560:	19150048 	ldmdbne	r5, {r3, r6}
   13564:	05158008 	ldreq	r8, [r5, #-8]
   13568:	05156004 	ldreq	r6, [r5, #-4]
   1356c:	16bf8f33 	revne	r8, r3
   13570:	16bf6f36 	revne	r6, r6
   13574:	e3580000 	cmp	r8, #0
   13578:	0affffeb 	beq	1352c <_nl_load_domain+0xc54>
   1357c:	e1a00009 	mov	r0, r9
   13580:	e1a02008 	mov	r2, r8
   13584:	e51b10a8 	ldr	r1, [fp, #-168]	; 0xffffff58
   13588:	eb004d40 	bl	26a90 <memcpy>
   1358c:	e51b30a8 	ldr	r3, [fp, #-168]	; 0xffffff58
   13590:	e0899008 	add	r9, r9, r8
   13594:	e0833008 	add	r3, r3, r8
   13598:	e50b30a8 	str	r3, [fp, #-168]	; 0xffffff58
   1359c:	eaffffe2 	b	1352c <_nl_load_domain+0xc54>
   135a0:	e3530000 	cmp	r3, #0
   135a4:	051b30d0 	ldreq	r3, [fp, #-208]	; 0xffffff30
   135a8:	151b30cc 	ldrne	r3, [fp, #-204]	; 0xffffff34
   135ac:	051b20d8 	ldreq	r2, [fp, #-216]	; 0xffffff28
   135b0:	151b20e0 	ldrne	r2, [fp, #-224]	; 0xffffff20
   135b4:	05933000 	ldreq	r3, [r3]
   135b8:	15933000 	ldrne	r3, [r3]
   135bc:	e50b20bc 	str	r2, [fp, #-188]	; 0xffffff44
   135c0:	e51b20b8 	ldr	r2, [fp, #-184]	; 0xffffff48
   135c4:	e0825003 	add	r5, r2, r3
   135c8:	e7928003 	ldr	r8, [r2, r3]
   135cc:	e0823008 	add	r3, r2, r8
   135d0:	e50b30a8 	str	r3, [fp, #-168]	; 0xffffff58
   135d4:	e5953008 	ldr	r3, [r5, #8]
   135d8:	e3730001 	cmn	r3, #1
   135dc:	1affffce 	bne	1351c <_nl_load_domain+0xc44>
   135e0:	e5953004 	ldr	r3, [r5, #4]
   135e4:	eaffff65 	b	13380 <_nl_load_domain+0xaa8>
   135e8:	e51b20bc 	ldr	r2, [fp, #-188]	; 0xffffff44
   135ec:	e5923004 	ldr	r3, [r2, #4]
   135f0:	e0493003 	sub	r3, r9, r3
   135f4:	e5823000 	str	r3, [r2]
   135f8:	eaffff64 	b	13390 <_nl_load_domain+0xab8>
   135fc:	e59f22e8 	ldr	r2, [pc, #744]	; 138ec <_nl_load_domain+0x1014>
   13600:	eafffd56 	b	12b60 <_nl_load_domain+0x288>
   13604:	e59f22e4 	ldr	r2, [pc, #740]	; 138f0 <_nl_load_domain+0x1018>
   13608:	eafffd54 	b	12b60 <_nl_load_domain+0x288>
   1360c:	e59f22e0 	ldr	r2, [pc, #736]	; 138f4 <_nl_load_domain+0x101c>
   13610:	eafffd52 	b	12b60 <_nl_load_domain+0x288>
   13614:	e59f22cc 	ldr	r2, [pc, #716]	; 138e8 <_nl_load_domain+0x1010>
   13618:	eafffd50 	b	12b60 <_nl_load_domain+0x288>
   1361c:	eb00081d 	bl	15698 <abort>
   13620:	e59f22cc 	ldr	r2, [pc, #716]	; 138f4 <_nl_load_domain+0x101c>
   13624:	eafffd4d 	b	12b60 <_nl_load_domain+0x288>
   13628:	e59f22b8 	ldr	r2, [pc, #696]	; 138e8 <_nl_load_domain+0x1010>
   1362c:	eafffd4b 	b	12b60 <_nl_load_domain+0x288>
   13630:	e59f22b4 	ldr	r2, [pc, #692]	; 138ec <_nl_load_domain+0x1014>
   13634:	eafffd49 	b	12b60 <_nl_load_domain+0x288>
   13638:	e59f22b0 	ldr	r2, [pc, #688]	; 138f0 <_nl_load_domain+0x1018>
   1363c:	eafffd47 	b	12b60 <_nl_load_domain+0x288>
   13640:	e59f22ac 	ldr	r2, [pc, #684]	; 138f4 <_nl_load_domain+0x101c>
   13644:	eafffd45 	b	12b60 <_nl_load_domain+0x288>
   13648:	e59f229c 	ldr	r2, [pc, #668]	; 138ec <_nl_load_domain+0x1014>
   1364c:	eafffd43 	b	12b60 <_nl_load_domain+0x288>
   13650:	e59f2298 	ldr	r2, [pc, #664]	; 138f0 <_nl_load_domain+0x1018>
   13654:	eafffd41 	b	12b60 <_nl_load_domain+0x288>
   13658:	e59f2288 	ldr	r2, [pc, #648]	; 138e8 <_nl_load_domain+0x1010>
   1365c:	eafffd3f 	b	12b60 <_nl_load_domain+0x288>
   13660:	e59f2268 	ldr	r2, [pc, #616]	; 138d0 <_nl_load_domain+0xff8>
   13664:	eafffd3d 	b	12b60 <_nl_load_domain+0x288>
   13668:	e59f2270 	ldr	r2, [pc, #624]	; 138e0 <_nl_load_domain+0x1008>
   1366c:	eafffd3b 	b	12b60 <_nl_load_domain+0x288>
   13670:	e59f226c 	ldr	r2, [pc, #620]	; 138e4 <_nl_load_domain+0x100c>
   13674:	eafffd39 	b	12b60 <_nl_load_domain+0x288>
   13678:	e59f2254 	ldr	r2, [pc, #596]	; 138d4 <_nl_load_domain+0xffc>
   1367c:	eafffd37 	b	12b60 <_nl_load_domain+0x288>
   13680:	e355004c 	cmp	r5, #76	; 0x4c
   13684:	1a000032 	bne	13754 <_nl_load_domain+0xe7c>
   13688:	e5d32005 	ldrb	r2, [r3, #5]
   1368c:	e3520045 	cmp	r2, #69	; 0x45
   13690:	13a02000 	movne	r2, #0
   13694:	1afffd31 	bne	12b60 <_nl_load_domain+0x288>
   13698:	e5d32006 	ldrb	r2, [r3, #6]
   1369c:	e3520041 	cmp	r2, #65	; 0x41
   136a0:	13a02000 	movne	r2, #0
   136a4:	1afffd2d 	bne	12b60 <_nl_load_domain+0x288>
   136a8:	e5d32007 	ldrb	r2, [r3, #7]
   136ac:	e3520053 	cmp	r2, #83	; 0x53
   136b0:	13a02000 	movne	r2, #0
   136b4:	1afffd29 	bne	12b60 <_nl_load_domain+0x288>
   136b8:	e5d32008 	ldrb	r2, [r3, #8]
   136bc:	e3520054 	cmp	r2, #84	; 0x54
   136c0:	13a02000 	movne	r2, #0
   136c4:	1afffd25 	bne	12b60 <_nl_load_domain+0x288>
   136c8:	e5d32009 	ldrb	r2, [r3, #9]
   136cc:	e3520038 	cmp	r2, #56	; 0x38
   136d0:	0a000146 	beq	13bf0 <_nl_load_domain+0x1318>
   136d4:	e3520031 	cmp	r2, #49	; 0x31
   136d8:	0a00012b 	beq	13b8c <_nl_load_domain+0x12b4>
   136dc:	e3520033 	cmp	r2, #51	; 0x33
   136e0:	0a000110 	beq	13b28 <_nl_load_domain+0x1250>
   136e4:	e3520036 	cmp	r2, #54	; 0x36
   136e8:	13a02000 	movne	r2, #0
   136ec:	1afffd1b 	bne	12b60 <_nl_load_domain+0x288>
   136f0:	e5d3200a 	ldrb	r2, [r3, #10]
   136f4:	e3520034 	cmp	r2, #52	; 0x34
   136f8:	13a02000 	movne	r2, #0
   136fc:	1afffd17 	bne	12b60 <_nl_load_domain+0x288>
   13700:	e5d3300b 	ldrb	r3, [r3, #11]
   13704:	e3530000 	cmp	r3, #0
   13708:	13a02000 	movne	r2, #0
   1370c:	1afffd13 	bne	12b60 <_nl_load_domain+0x288>
   13710:	e3510064 	cmp	r1, #100	; 0x64
   13714:	0a000101 	beq	13b20 <_nl_load_domain+0x1248>
   13718:	e51b30b8 	ldr	r3, [fp, #-184]	; 0xffffff48
   1371c:	e3530000 	cmp	r3, #0
   13720:	1a000151 	bne	13c6c <_nl_load_domain+0x1394>
   13724:	e51b30bc 	ldr	r3, [fp, #-188]	; 0xffffff44
   13728:	e3530000 	cmp	r3, #0
   1372c:	1a00014c 	bne	13c64 <_nl_load_domain+0x138c>
   13730:	e51b30c4 	ldr	r3, [fp, #-196]	; 0xffffff3c
   13734:	e3530000 	cmp	r3, #0
   13738:	1a000036 	bne	13818 <_nl_load_domain+0xf40>
   1373c:	e51b10c8 	ldr	r1, [fp, #-200]	; 0xffffff38
   13740:	e59f3180 	ldr	r3, [pc, #384]	; 138c8 <_nl_load_domain+0xff0>
   13744:	e3510000 	cmp	r1, #0
   13748:	e59f217c 	ldr	r2, [pc, #380]	; 138cc <_nl_load_domain+0xff4>
   1374c:	01a02003 	moveq	r2, r3
   13750:	eafffd02 	b	12b60 <_nl_load_domain+0x288>
   13754:	e3550046 	cmp	r5, #70	; 0x46
   13758:	1a0000a4 	bne	139f0 <_nl_load_domain+0x1118>
   1375c:	e5d32005 	ldrb	r2, [r3, #5]
   13760:	e3520041 	cmp	r2, #65	; 0x41
   13764:	13a02000 	movne	r2, #0
   13768:	1afffcfc 	bne	12b60 <_nl_load_domain+0x288>
   1376c:	e5d32006 	ldrb	r2, [r3, #6]
   13770:	e3520053 	cmp	r2, #83	; 0x53
   13774:	13a02000 	movne	r2, #0
   13778:	1afffcf8 	bne	12b60 <_nl_load_domain+0x288>
   1377c:	e5d32007 	ldrb	r2, [r3, #7]
   13780:	e3520054 	cmp	r2, #84	; 0x54
   13784:	13a02000 	movne	r2, #0
   13788:	1afffcf4 	bne	12b60 <_nl_load_domain+0x288>
   1378c:	e5d32008 	ldrb	r2, [r3, #8]
   13790:	e3520038 	cmp	r2, #56	; 0x38
   13794:	0a000080 	beq	1399c <_nl_load_domain+0x10c4>
   13798:	e3520031 	cmp	r2, #49	; 0x31
   1379c:	0a000055 	beq	138f8 <_nl_load_domain+0x1020>
   137a0:	e3520033 	cmp	r2, #51	; 0x33
   137a4:	0a000025 	beq	13840 <_nl_load_domain+0xf68>
   137a8:	e3520036 	cmp	r2, #54	; 0x36
   137ac:	13a02000 	movne	r2, #0
   137b0:	1afffcea 	bne	12b60 <_nl_load_domain+0x288>
   137b4:	e5d32009 	ldrb	r2, [r3, #9]
   137b8:	e3520034 	cmp	r2, #52	; 0x34
   137bc:	13a02000 	movne	r2, #0
   137c0:	1afffce6 	bne	12b60 <_nl_load_domain+0x288>
   137c4:	e5d3300a 	ldrb	r3, [r3, #10]
   137c8:	e3530000 	cmp	r3, #0
   137cc:	13a02000 	movne	r2, #0
   137d0:	1afffce2 	bne	12b60 <_nl_load_domain+0x288>
   137d4:	e3510064 	cmp	r1, #100	; 0x64
   137d8:	0a000016 	beq	13838 <_nl_load_domain+0xf60>
   137dc:	e51b30b8 	ldr	r3, [fp, #-184]	; 0xffffff48
   137e0:	e3530000 	cmp	r3, #0
   137e4:	1a000011 	bne	13830 <_nl_load_domain+0xf58>
   137e8:	e51b30bc 	ldr	r3, [fp, #-188]	; 0xffffff44
   137ec:	e3530000 	cmp	r3, #0
   137f0:	1a00000c 	bne	13828 <_nl_load_domain+0xf50>
   137f4:	e51b30c4 	ldr	r3, [fp, #-196]	; 0xffffff3c
   137f8:	e3530000 	cmp	r3, #0
   137fc:	1a000007 	bne	13820 <_nl_load_domain+0xf48>
   13800:	e51b10c8 	ldr	r1, [fp, #-200]	; 0xffffff38
   13804:	e59f30bc 	ldr	r3, [pc, #188]	; 138c8 <_nl_load_domain+0xff0>
   13808:	e3510000 	cmp	r1, #0
   1380c:	e59f20b8 	ldr	r2, [pc, #184]	; 138cc <_nl_load_domain+0xff4>
   13810:	01a02003 	moveq	r2, r3
   13814:	eafffcd1 	b	12b60 <_nl_load_domain+0x288>
   13818:	e59f20b0 	ldr	r2, [pc, #176]	; 138d0 <_nl_load_domain+0xff8>
   1381c:	eafffccf 	b	12b60 <_nl_load_domain+0x288>
   13820:	e59f20a8 	ldr	r2, [pc, #168]	; 138d0 <_nl_load_domain+0xff8>
   13824:	eafffccd 	b	12b60 <_nl_load_domain+0x288>
   13828:	e59f20b0 	ldr	r2, [pc, #176]	; 138e0 <_nl_load_domain+0x1008>
   1382c:	eafffccb 	b	12b60 <_nl_load_domain+0x288>
   13830:	e59f20ac 	ldr	r2, [pc, #172]	; 138e4 <_nl_load_domain+0x100c>
   13834:	eafffcc9 	b	12b60 <_nl_load_domain+0x288>
   13838:	e59f2094 	ldr	r2, [pc, #148]	; 138d4 <_nl_load_domain+0xffc>
   1383c:	eafffcc7 	b	12b60 <_nl_load_domain+0x288>
   13840:	e5d32009 	ldrb	r2, [r3, #9]
   13844:	e3520032 	cmp	r2, #50	; 0x32
   13848:	13a02000 	movne	r2, #0
   1384c:	1afffcc3 	bne	12b60 <_nl_load_domain+0x288>
   13850:	e5d3300a 	ldrb	r3, [r3, #10]
   13854:	e3530000 	cmp	r3, #0
   13858:	13a02000 	movne	r2, #0
   1385c:	1afffcbf 	bne	12b60 <_nl_load_domain+0x288>
   13860:	e3510064 	cmp	r1, #100	; 0x64
   13864:	0a000042 	beq	13974 <_nl_load_domain+0x109c>
   13868:	e51b30b8 	ldr	r3, [fp, #-184]	; 0xffffff48
   1386c:	e3530000 	cmp	r3, #0
   13870:	1a00003d 	bne	1396c <_nl_load_domain+0x1094>
   13874:	e51b30bc 	ldr	r3, [fp, #-188]	; 0xffffff44
   13878:	e3530000 	cmp	r3, #0
   1387c:	1a000038 	bne	13964 <_nl_load_domain+0x108c>
   13880:	e51b30c4 	ldr	r3, [fp, #-196]	; 0xffffff3c
   13884:	e3530000 	cmp	r3, #0
   13888:	1a000033 	bne	1395c <_nl_load_domain+0x1084>
   1388c:	e51b10c8 	ldr	r1, [fp, #-200]	; 0xffffff38
   13890:	e59f3040 	ldr	r3, [pc, #64]	; 138d8 <_nl_load_domain+0x1000>
   13894:	e3510000 	cmp	r1, #0
   13898:	e59f203c 	ldr	r2, [pc, #60]	; 138dc <_nl_load_domain+0x1004>
   1389c:	11a02003 	movne	r2, r3
   138a0:	eafffcae 	b	12b60 <_nl_load_domain+0x288>
   138a4:	00085fcc 	.word	0x00085fcc
   138a8:	950412de 	.word	0x950412de
   138ac:	de120495 	.word	0xde120495
   138b0:	0006fd18 	.word	0x0006fd18
   138b4:	000721e8 	.word	0x000721e8
   138b8:	000721a0 	.word	0x000721a0
	...
   138c4:	00081b04 	.word	0x00081b04
   138c8:	0006fd14 	.word	0x0006fd14
   138cc:	0006fd0c 	.word	0x0006fd0c
   138d0:	0006fd04 	.word	0x0006fd04
   138d4:	0006fd00 	.word	0x0006fd00
   138d8:	0006fcfc 	.word	0x0006fcfc
   138dc:	00070c0c 	.word	0x00070c0c
   138e0:	0006fd10 	.word	0x0006fd10
   138e4:	0006fd08 	.word	0x0006fd08
   138e8:	0006fcf8 	.word	0x0006fcf8
   138ec:	00071310 	.word	0x00071310
   138f0:	00080ba8 	.word	0x00080ba8
   138f4:	00084120 	.word	0x00084120
   138f8:	e5d32009 	ldrb	r2, [r3, #9]
   138fc:	e3520036 	cmp	r2, #54	; 0x36
   13900:	13a02000 	movne	r2, #0
   13904:	1afffc95 	bne	12b60 <_nl_load_domain+0x288>
   13908:	e5d3300a 	ldrb	r3, [r3, #10]
   1390c:	e3530000 	cmp	r3, #0
   13910:	13a02000 	movne	r2, #0
   13914:	1afffc91 	bne	12b60 <_nl_load_domain+0x288>
   13918:	e3510064 	cmp	r1, #100	; 0x64
   1391c:	0a00001c 	beq	13994 <_nl_load_domain+0x10bc>
   13920:	e51b30b8 	ldr	r3, [fp, #-184]	; 0xffffff48
   13924:	e3530000 	cmp	r3, #0
   13928:	1a000017 	bne	1398c <_nl_load_domain+0x10b4>
   1392c:	e51b30bc 	ldr	r3, [fp, #-188]	; 0xffffff44
   13930:	e3530000 	cmp	r3, #0
   13934:	1a000012 	bne	13984 <_nl_load_domain+0x10ac>
   13938:	e51b30c4 	ldr	r3, [fp, #-196]	; 0xffffff3c
   1393c:	e3530000 	cmp	r3, #0
   13940:	1a00000d 	bne	1397c <_nl_load_domain+0x10a4>
   13944:	e51b10c8 	ldr	r1, [fp, #-200]	; 0xffffff38
   13948:	e51f3078 	ldr	r3, [pc, #-120]	; 138d8 <_nl_load_domain+0x1000>
   1394c:	e3510000 	cmp	r1, #0
   13950:	e51f207c 	ldr	r2, [pc, #-124]	; 138dc <_nl_load_domain+0x1004>
   13954:	11a02003 	movne	r2, r3
   13958:	eafffc80 	b	12b60 <_nl_load_domain+0x288>
   1395c:	e51f207c 	ldr	r2, [pc, #-124]	; 138e8 <_nl_load_domain+0x1010>
   13960:	eafffc7e 	b	12b60 <_nl_load_domain+0x288>
   13964:	e51f2080 	ldr	r2, [pc, #-128]	; 138ec <_nl_load_domain+0x1014>
   13968:	eafffc7c 	b	12b60 <_nl_load_domain+0x288>
   1396c:	e51f2084 	ldr	r2, [pc, #-132]	; 138f0 <_nl_load_domain+0x1018>
   13970:	eafffc7a 	b	12b60 <_nl_load_domain+0x288>
   13974:	e51f2088 	ldr	r2, [pc, #-136]	; 138f4 <_nl_load_domain+0x101c>
   13978:	eafffc78 	b	12b60 <_nl_load_domain+0x288>
   1397c:	e51f209c 	ldr	r2, [pc, #-156]	; 138e8 <_nl_load_domain+0x1010>
   13980:	eafffc76 	b	12b60 <_nl_load_domain+0x288>
   13984:	e51f20a0 	ldr	r2, [pc, #-160]	; 138ec <_nl_load_domain+0x1014>
   13988:	eafffc74 	b	12b60 <_nl_load_domain+0x288>
   1398c:	e51f20a4 	ldr	r2, [pc, #-164]	; 138f0 <_nl_load_domain+0x1018>
   13990:	eafffc72 	b	12b60 <_nl_load_domain+0x288>
   13994:	e51f20a8 	ldr	r2, [pc, #-168]	; 138f4 <_nl_load_domain+0x101c>
   13998:	eafffc70 	b	12b60 <_nl_load_domain+0x288>
   1399c:	e5d33009 	ldrb	r3, [r3, #9]
   139a0:	e3530000 	cmp	r3, #0
   139a4:	13a02000 	movne	r2, #0
   139a8:	1afffc6c 	bne	12b60 <_nl_load_domain+0x288>
   139ac:	e3510064 	cmp	r1, #100	; 0x64
   139b0:	0a0000af 	beq	13c74 <_nl_load_domain+0x139c>
   139b4:	e51b30b8 	ldr	r3, [fp, #-184]	; 0xffffff48
   139b8:	e3530000 	cmp	r3, #0
   139bc:	1a000055 	bne	13b18 <_nl_load_domain+0x1240>
   139c0:	e51b30bc 	ldr	r3, [fp, #-188]	; 0xffffff44
   139c4:	e3530000 	cmp	r3, #0
   139c8:	1a000029 	bne	13a74 <_nl_load_domain+0x119c>
   139cc:	e51b30c4 	ldr	r3, [fp, #-196]	; 0xffffff3c
   139d0:	e3530000 	cmp	r3, #0
   139d4:	1a000024 	bne	13a6c <_nl_load_domain+0x1194>
   139d8:	e51b10c8 	ldr	r1, [fp, #-200]	; 0xffffff38
   139dc:	e51f310c 	ldr	r3, [pc, #-268]	; 138d8 <_nl_load_domain+0x1000>
   139e0:	e3510000 	cmp	r1, #0
   139e4:	e51f2110 	ldr	r2, [pc, #-272]	; 138dc <_nl_load_domain+0x1004>
   139e8:	11a02003 	movne	r2, r3
   139ec:	eafffc5b 	b	12b60 <_nl_load_domain+0x288>
   139f0:	e355004d 	cmp	r5, #77	; 0x4d
   139f4:	1a000028 	bne	13a9c <_nl_load_domain+0x11c4>
   139f8:	e5d32005 	ldrb	r2, [r3, #5]
   139fc:	e3520041 	cmp	r2, #65	; 0x41
   13a00:	13a02000 	movne	r2, #0
   13a04:	1afffc55 	bne	12b60 <_nl_load_domain+0x288>
   13a08:	e5d32006 	ldrb	r2, [r3, #6]
   13a0c:	e3520058 	cmp	r2, #88	; 0x58
   13a10:	13a02000 	movne	r2, #0
   13a14:	1afffc51 	bne	12b60 <_nl_load_domain+0x288>
   13a18:	e5d33007 	ldrb	r3, [r3, #7]
   13a1c:	e3530000 	cmp	r3, #0
   13a20:	13a02000 	movne	r2, #0
   13a24:	1afffc4d 	bne	12b60 <_nl_load_domain+0x288>
   13a28:	e3510064 	cmp	r1, #100	; 0x64
   13a2c:	0a000018 	beq	13a94 <_nl_load_domain+0x11bc>
   13a30:	e51b30b8 	ldr	r3, [fp, #-184]	; 0xffffff48
   13a34:	e3530000 	cmp	r3, #0
   13a38:	1a000013 	bne	13a8c <_nl_load_domain+0x11b4>
   13a3c:	e51b30bc 	ldr	r3, [fp, #-188]	; 0xffffff44
   13a40:	e3530000 	cmp	r3, #0
   13a44:	1a00000e 	bne	13a84 <_nl_load_domain+0x11ac>
   13a48:	e51b30c4 	ldr	r3, [fp, #-196]	; 0xffffff3c
   13a4c:	e3530000 	cmp	r3, #0
   13a50:	1a000009 	bne	13a7c <_nl_load_domain+0x11a4>
   13a54:	e51b10c8 	ldr	r1, [fp, #-200]	; 0xffffff38
   13a58:	e51f3198 	ldr	r3, [pc, #-408]	; 138c8 <_nl_load_domain+0xff0>
   13a5c:	e3510000 	cmp	r1, #0
   13a60:	e51f219c 	ldr	r2, [pc, #-412]	; 138cc <_nl_load_domain+0xff4>
   13a64:	01a02003 	moveq	r2, r3
   13a68:	eafffc3c 	b	12b60 <_nl_load_domain+0x288>
   13a6c:	e51f218c 	ldr	r2, [pc, #-396]	; 138e8 <_nl_load_domain+0x1010>
   13a70:	eafffc3a 	b	12b60 <_nl_load_domain+0x288>
   13a74:	e51f2190 	ldr	r2, [pc, #-400]	; 138ec <_nl_load_domain+0x1014>
   13a78:	eafffc38 	b	12b60 <_nl_load_domain+0x288>
   13a7c:	e51f21b4 	ldr	r2, [pc, #-436]	; 138d0 <_nl_load_domain+0xff8>
   13a80:	eafffc36 	b	12b60 <_nl_load_domain+0x288>
   13a84:	e51f21ac 	ldr	r2, [pc, #-428]	; 138e0 <_nl_load_domain+0x1008>
   13a88:	eafffc34 	b	12b60 <_nl_load_domain+0x288>
   13a8c:	e51f21b0 	ldr	r2, [pc, #-432]	; 138e4 <_nl_load_domain+0x100c>
   13a90:	eafffc32 	b	12b60 <_nl_load_domain+0x288>
   13a94:	e51f21c8 	ldr	r2, [pc, #-456]	; 138d4 <_nl_load_domain+0xffc>
   13a98:	eafffc30 	b	12b60 <_nl_load_domain+0x288>
   13a9c:	e3550050 	cmp	r5, #80	; 0x50
   13aa0:	1a00007d 	bne	13c9c <_nl_load_domain+0x13c4>
   13aa4:	e5d32005 	ldrb	r2, [r3, #5]
   13aa8:	e3520054 	cmp	r2, #84	; 0x54
   13aac:	13a02000 	movne	r2, #0
   13ab0:	1afffc2a 	bne	12b60 <_nl_load_domain+0x288>
   13ab4:	e5d32006 	ldrb	r2, [r3, #6]
   13ab8:	e3520052 	cmp	r2, #82	; 0x52
   13abc:	13a02000 	movne	r2, #0
   13ac0:	1afffc26 	bne	12b60 <_nl_load_domain+0x288>
   13ac4:	e5d33007 	ldrb	r3, [r3, #7]
   13ac8:	e3530000 	cmp	r3, #0
   13acc:	13a02000 	movne	r2, #0
   13ad0:	1afffc22 	bne	12b60 <_nl_load_domain+0x288>
   13ad4:	e3510064 	cmp	r1, #100	; 0x64
   13ad8:	0a00006d 	beq	13c94 <_nl_load_domain+0x13bc>
   13adc:	e51b30b8 	ldr	r3, [fp, #-184]	; 0xffffff48
   13ae0:	e3530000 	cmp	r3, #0
   13ae4:	1a000068 	bne	13c8c <_nl_load_domain+0x13b4>
   13ae8:	e51b30bc 	ldr	r3, [fp, #-188]	; 0xffffff44
   13aec:	e3530000 	cmp	r3, #0
   13af0:	1a000063 	bne	13c84 <_nl_load_domain+0x13ac>
   13af4:	e51b30c4 	ldr	r3, [fp, #-196]	; 0xffffff3c
   13af8:	e3530000 	cmp	r3, #0
   13afc:	1a00005e 	bne	13c7c <_nl_load_domain+0x13a4>
   13b00:	e51b10c8 	ldr	r1, [fp, #-200]	; 0xffffff38
   13b04:	e51f3234 	ldr	r3, [pc, #-564]	; 138d8 <_nl_load_domain+0x1000>
   13b08:	e3510000 	cmp	r1, #0
   13b0c:	e51f2238 	ldr	r2, [pc, #-568]	; 138dc <_nl_load_domain+0x1004>
   13b10:	11a02003 	movne	r2, r3
   13b14:	eafffc11 	b	12b60 <_nl_load_domain+0x288>
   13b18:	e51f2230 	ldr	r2, [pc, #-560]	; 138f0 <_nl_load_domain+0x1018>
   13b1c:	eafffc0f 	b	12b60 <_nl_load_domain+0x288>
   13b20:	e51f2254 	ldr	r2, [pc, #-596]	; 138d4 <_nl_load_domain+0xffc>
   13b24:	eafffc0d 	b	12b60 <_nl_load_domain+0x288>
   13b28:	e5d3200a 	ldrb	r2, [r3, #10]
   13b2c:	e3520032 	cmp	r2, #50	; 0x32
   13b30:	13a02000 	movne	r2, #0
   13b34:	1afffc09 	bne	12b60 <_nl_load_domain+0x288>
   13b38:	e5d3300b 	ldrb	r3, [r3, #11]
   13b3c:	e3530000 	cmp	r3, #0
   13b40:	13a02000 	movne	r2, #0
   13b44:	1afffc05 	bne	12b60 <_nl_load_domain+0x288>
   13b48:	e3510064 	cmp	r1, #100	; 0x64
   13b4c:	0a00005a 	beq	13cbc <_nl_load_domain+0x13e4>
   13b50:	e51b30b8 	ldr	r3, [fp, #-184]	; 0xffffff48
   13b54:	e3530000 	cmp	r3, #0
   13b58:	1a000055 	bne	13cb4 <_nl_load_domain+0x13dc>
   13b5c:	e51b30bc 	ldr	r3, [fp, #-188]	; 0xffffff44
   13b60:	e3530000 	cmp	r3, #0
   13b64:	1a000050 	bne	13cac <_nl_load_domain+0x13d4>
   13b68:	e51b30c4 	ldr	r3, [fp, #-196]	; 0xffffff3c
   13b6c:	e3530000 	cmp	r3, #0
   13b70:	1a00004b 	bne	13ca4 <_nl_load_domain+0x13cc>
   13b74:	e51b10c8 	ldr	r1, [fp, #-200]	; 0xffffff38
   13b78:	e51f32a8 	ldr	r3, [pc, #-680]	; 138d8 <_nl_load_domain+0x1000>
   13b7c:	e3510000 	cmp	r1, #0
   13b80:	e51f22ac 	ldr	r2, [pc, #-684]	; 138dc <_nl_load_domain+0x1004>
   13b84:	11a02003 	movne	r2, r3
   13b88:	eafffbf4 	b	12b60 <_nl_load_domain+0x288>
   13b8c:	e5d3200a 	ldrb	r2, [r3, #10]
   13b90:	e3520036 	cmp	r2, #54	; 0x36
   13b94:	13a02000 	movne	r2, #0
   13b98:	1afffbf0 	bne	12b60 <_nl_load_domain+0x288>
   13b9c:	e5d3300b 	ldrb	r3, [r3, #11]
   13ba0:	e3530000 	cmp	r3, #0
   13ba4:	13a02000 	movne	r2, #0
   13ba8:	1afffbec 	bne	12b60 <_nl_load_domain+0x288>
   13bac:	e3510064 	cmp	r1, #100	; 0x64
   13bb0:	0a000029 	beq	13c5c <_nl_load_domain+0x1384>
   13bb4:	e51b30b8 	ldr	r3, [fp, #-184]	; 0xffffff48
   13bb8:	e3530000 	cmp	r3, #0
   13bbc:	1a000024 	bne	13c54 <_nl_load_domain+0x137c>
   13bc0:	e51b30bc 	ldr	r3, [fp, #-188]	; 0xffffff44
   13bc4:	e3530000 	cmp	r3, #0
   13bc8:	1a00001f 	bne	13c4c <_nl_load_domain+0x1374>
   13bcc:	e51b30c4 	ldr	r3, [fp, #-196]	; 0xffffff3c
   13bd0:	e3530000 	cmp	r3, #0
   13bd4:	1a00001a 	bne	13c44 <_nl_load_domain+0x136c>
   13bd8:	e51b10c8 	ldr	r1, [fp, #-200]	; 0xffffff38
   13bdc:	e51f330c 	ldr	r3, [pc, #-780]	; 138d8 <_nl_load_domain+0x1000>
   13be0:	e3510000 	cmp	r1, #0
   13be4:	e51f2310 	ldr	r2, [pc, #-784]	; 138dc <_nl_load_domain+0x1004>
   13be8:	11a02003 	movne	r2, r3
   13bec:	eafffbdb 	b	12b60 <_nl_load_domain+0x288>
   13bf0:	e5d3300a 	ldrb	r3, [r3, #10]
   13bf4:	e3530000 	cmp	r3, #0
   13bf8:	13a02000 	movne	r2, #0
   13bfc:	1afffbd7 	bne	12b60 <_nl_load_domain+0x288>
   13c00:	e3510064 	cmp	r1, #100	; 0x64
   13c04:	0a000034 	beq	13cdc <_nl_load_domain+0x1404>
   13c08:	e51b30b8 	ldr	r3, [fp, #-184]	; 0xffffff48
   13c0c:	e3530000 	cmp	r3, #0
   13c10:	1a00002f 	bne	13cd4 <_nl_load_domain+0x13fc>
   13c14:	e51b30bc 	ldr	r3, [fp, #-188]	; 0xffffff44
   13c18:	e3530000 	cmp	r3, #0
   13c1c:	1a00002a 	bne	13ccc <_nl_load_domain+0x13f4>
   13c20:	e51b30c4 	ldr	r3, [fp, #-196]	; 0xffffff3c
   13c24:	e3530000 	cmp	r3, #0
   13c28:	1a000025 	bne	13cc4 <_nl_load_domain+0x13ec>
   13c2c:	e51b10c8 	ldr	r1, [fp, #-200]	; 0xffffff38
   13c30:	e51f3360 	ldr	r3, [pc, #-864]	; 138d8 <_nl_load_domain+0x1000>
   13c34:	e3510000 	cmp	r1, #0
   13c38:	e51f2364 	ldr	r2, [pc, #-868]	; 138dc <_nl_load_domain+0x1004>
   13c3c:	11a02003 	movne	r2, r3
   13c40:	eafffbc6 	b	12b60 <_nl_load_domain+0x288>
   13c44:	e51f2364 	ldr	r2, [pc, #-868]	; 138e8 <_nl_load_domain+0x1010>
   13c48:	eafffbc4 	b	12b60 <_nl_load_domain+0x288>
   13c4c:	e51f2368 	ldr	r2, [pc, #-872]	; 138ec <_nl_load_domain+0x1014>
   13c50:	eafffbc2 	b	12b60 <_nl_load_domain+0x288>
   13c54:	e51f236c 	ldr	r2, [pc, #-876]	; 138f0 <_nl_load_domain+0x1018>
   13c58:	eafffbc0 	b	12b60 <_nl_load_domain+0x288>
   13c5c:	e51f2370 	ldr	r2, [pc, #-880]	; 138f4 <_nl_load_domain+0x101c>
   13c60:	eafffbbe 	b	12b60 <_nl_load_domain+0x288>
   13c64:	e51f238c 	ldr	r2, [pc, #-908]	; 138e0 <_nl_load_domain+0x1008>
   13c68:	eafffbbc 	b	12b60 <_nl_load_domain+0x288>
   13c6c:	e51f2390 	ldr	r2, [pc, #-912]	; 138e4 <_nl_load_domain+0x100c>
   13c70:	eafffbba 	b	12b60 <_nl_load_domain+0x288>
   13c74:	e51f2388 	ldr	r2, [pc, #-904]	; 138f4 <_nl_load_domain+0x101c>
   13c78:	eafffbb8 	b	12b60 <_nl_load_domain+0x288>
   13c7c:	e51f239c 	ldr	r2, [pc, #-924]	; 138e8 <_nl_load_domain+0x1010>
   13c80:	eafffbb6 	b	12b60 <_nl_load_domain+0x288>
   13c84:	e51f23a0 	ldr	r2, [pc, #-928]	; 138ec <_nl_load_domain+0x1014>
   13c88:	eafffbb4 	b	12b60 <_nl_load_domain+0x288>
   13c8c:	e51f23a4 	ldr	r2, [pc, #-932]	; 138f0 <_nl_load_domain+0x1018>
   13c90:	eafffbb2 	b	12b60 <_nl_load_domain+0x288>
   13c94:	e51f23a8 	ldr	r2, [pc, #-936]	; 138f4 <_nl_load_domain+0x101c>
   13c98:	eafffbb0 	b	12b60 <_nl_load_domain+0x288>
   13c9c:	e3a02000 	mov	r2, #0
   13ca0:	eafffbae 	b	12b60 <_nl_load_domain+0x288>
   13ca4:	e51f23c4 	ldr	r2, [pc, #-964]	; 138e8 <_nl_load_domain+0x1010>
   13ca8:	eafffbac 	b	12b60 <_nl_load_domain+0x288>
   13cac:	e51f23c8 	ldr	r2, [pc, #-968]	; 138ec <_nl_load_domain+0x1014>
   13cb0:	eafffbaa 	b	12b60 <_nl_load_domain+0x288>
   13cb4:	e51f23cc 	ldr	r2, [pc, #-972]	; 138f0 <_nl_load_domain+0x1018>
   13cb8:	eafffba8 	b	12b60 <_nl_load_domain+0x288>
   13cbc:	e51f23d0 	ldr	r2, [pc, #-976]	; 138f4 <_nl_load_domain+0x101c>
   13cc0:	eafffba6 	b	12b60 <_nl_load_domain+0x288>
   13cc4:	e51f23e4 	ldr	r2, [pc, #-996]	; 138e8 <_nl_load_domain+0x1010>
   13cc8:	eafffba4 	b	12b60 <_nl_load_domain+0x288>
   13ccc:	e51f23e8 	ldr	r2, [pc, #-1000]	; 138ec <_nl_load_domain+0x1014>
   13cd0:	eafffba2 	b	12b60 <_nl_load_domain+0x288>
   13cd4:	e51f23ec 	ldr	r2, [pc, #-1004]	; 138f0 <_nl_load_domain+0x1018>
   13cd8:	eafffba0 	b	12b60 <_nl_load_domain+0x288>
   13cdc:	e51f23f0 	ldr	r2, [pc, #-1008]	; 138f4 <_nl_load_domain+0x101c>
   13ce0:	eafffb9e 	b	12b60 <_nl_load_domain+0x288>

00013ce4 <alias_compare>:
   13ce4:	e5911000 	ldr	r1, [r1]
   13ce8:	e5900000 	ldr	r0, [r0]
   13cec:	e59f2000 	ldr	r2, [pc]	; 13cf4 <alias_compare+0x10>
   13cf0:	ea004b55 	b	26a4c <__strcasecmp_l>
   13cf4:	0007e71c 	.word	0x0007e71c

00013cf8 <read_alias_file>:
   13cf8:	e281301c 	add	r3, r1, #28
   13cfc:	e92d4ff0 	push	{r4, r5, r6, r7, r8, r9, sl, fp, lr}
   13d00:	e3c33007 	bic	r3, r3, #7
   13d04:	e28db020 	add	fp, sp, #32
   13d08:	e24ddf6f 	sub	sp, sp, #444	; 0x1bc
   13d0c:	e1a04001 	mov	r4, r1
   13d10:	e04dd003 	sub	sp, sp, r3
   13d14:	e1a01000 	mov	r1, r0
   13d18:	e1a02004 	mov	r2, r4
   13d1c:	e1a0000d 	mov	r0, sp
   13d20:	eb004b5a 	bl	26a90 <memcpy>
   13d24:	e59f3430 	ldr	r3, [pc, #1072]	; 1415c <read_alias_file+0x464>
   13d28:	e080c004 	add	ip, r0, r4
   13d2c:	e1a0e000 	mov	lr, r0
   13d30:	e8b30007 	ldm	r3!, {r0, r1, r2}
   13d34:	e1d330b0 	ldrh	r3, [r3]
   13d38:	e78e0004 	str	r0, [lr, r4]
   13d3c:	e58c1004 	str	r1, [ip, #4]
   13d40:	e1a0000d 	mov	r0, sp
   13d44:	e1cc30bc 	strh	r3, [ip, #12]
   13d48:	e58c2008 	str	r2, [ip, #8]
   13d4c:	e59f140c 	ldr	r1, [pc, #1036]	; 14160 <read_alias_file+0x468>
   13d50:	eb000f6b 	bl	17b04 <_IO_new_fopen>
   13d54:	e250a000 	subs	sl, r0, #0
   13d58:	0a0000f7 	beq	1413c <read_alias_file+0x444>
   13d5c:	e59a3000 	ldr	r3, [sl]
   13d60:	e3832902 	orr	r2, r3, #32768	; 0x8000
   13d64:	e2133010 	ands	r3, r3, #16
   13d68:	e58a2000 	str	r2, [sl]
   13d6c:	1a0000f6 	bne	1414c <read_alias_file+0x454>
   13d70:	e59f73ec 	ldr	r7, [pc, #1004]	; 14164 <read_alias_file+0x46c>
   13d74:	e3a08e19 	mov	r8, #400	; 0x190
   13d78:	e3a0900a 	mov	r9, #10
   13d7c:	e50b31c0 	str	r3, [fp, #-448]	; 0xfffffe40
   13d80:	e1a0200a 	mov	r2, sl
   13d84:	e1a01008 	mov	r1, r8
   13d88:	e24b0f6d 	sub	r0, fp, #436	; 0x1b4
   13d8c:	eb001701 	bl	19998 <__fgets_unlocked>
   13d90:	e3500000 	cmp	r0, #0
   13d94:	0a000080 	beq	13f9c <read_alias_file+0x2a4>
   13d98:	e1a01009 	mov	r1, r9
   13d9c:	e24b0f6d 	sub	r0, fp, #436	; 0x1b4
   13da0:	eb0044b2 	bl	25070 <strchr>
   13da4:	e59f33bc 	ldr	r3, [pc, #956]	; 14168 <read_alias_file+0x470>
   13da8:	e55b21b4 	ldrb	r2, [fp, #-436]	; 0xfffffe4c
   13dac:	e24b4f6d 	sub	r4, fp, #436	; 0x1b4
   13db0:	e79f3003 	ldr	r3, [pc, r3]
   13db4:	e1a01082 	lsl	r1, r2, #1
   13db8:	e1a06000 	mov	r6, r0
   13dbc:	ebfff45f 	bl	10f40 <__aeabi_read_tp>
   13dc0:	e7903003 	ldr	r3, [r0, r3]
   13dc4:	e19310b1 	ldrh	r1, [r3, r1]
   13dc8:	e3110a02 	tst	r1, #8192	; 0x2000
   13dcc:	0a000004 	beq	13de4 <read_alias_file+0xec>
   13dd0:	e5f42001 	ldrb	r2, [r4, #1]!
   13dd4:	e1a01082 	lsl	r1, r2, #1
   13dd8:	e19310b1 	ldrh	r1, [r3, r1]
   13ddc:	e3110a02 	tst	r1, #8192	; 0x2000
   13de0:	1afffffa 	bne	13dd0 <read_alias_file+0xd8>
   13de4:	e3520000 	cmp	r2, #0
   13de8:	13520023 	cmpne	r2, #35	; 0x23
   13dec:	0a000065 	beq	13f88 <read_alias_file+0x290>
   13df0:	e5d42001 	ldrb	r2, [r4, #1]
   13df4:	e2845001 	add	r5, r4, #1
   13df8:	e3520000 	cmp	r2, #0
   13dfc:	0a000081 	beq	14008 <read_alias_file+0x310>
   13e00:	e1a02082 	lsl	r2, r2, #1
   13e04:	ea000003 	b	13e18 <read_alias_file+0x120>
   13e08:	e5f52001 	ldrb	r2, [r5, #1]!
   13e0c:	e3520000 	cmp	r2, #0
   13e10:	e1a02082 	lsl	r2, r2, #1
   13e14:	0a00007b 	beq	14008 <read_alias_file+0x310>
   13e18:	e19320b2 	ldrh	r2, [r3, r2]
   13e1c:	e3120a02 	tst	r2, #8192	; 0x2000
   13e20:	0afffff8 	beq	13e08 <read_alias_file+0x110>
   13e24:	e5d52001 	ldrb	r2, [r5, #1]
   13e28:	e3a00000 	mov	r0, #0
   13e2c:	e5c50000 	strb	r0, [r5]
   13e30:	e2855001 	add	r5, r5, #1
   13e34:	e1a01082 	lsl	r1, r2, #1
   13e38:	e19310b1 	ldrh	r1, [r3, r1]
   13e3c:	e3110a02 	tst	r1, #8192	; 0x2000
   13e40:	0a000004 	beq	13e58 <read_alias_file+0x160>
   13e44:	e5f52001 	ldrb	r2, [r5, #1]!
   13e48:	e1a01082 	lsl	r1, r2, #1
   13e4c:	e19310b1 	ldrh	r1, [r3, r1]
   13e50:	e3110a02 	tst	r1, #8192	; 0x2000
   13e54:	1afffffa 	bne	13e44 <read_alias_file+0x14c>
   13e58:	e3520000 	cmp	r2, #0
   13e5c:	0a000049 	beq	13f88 <read_alias_file+0x290>
   13e60:	e5d52001 	ldrb	r2, [r5, #1]
   13e64:	e2851001 	add	r1, r5, #1
   13e68:	e3520000 	cmp	r2, #0
   13e6c:	0a00000d 	beq	13ea8 <read_alias_file+0x1b0>
   13e70:	e1a00082 	lsl	r0, r2, #1
   13e74:	ea000003 	b	13e88 <read_alias_file+0x190>
   13e78:	e5f12001 	ldrb	r2, [r1, #1]!
   13e7c:	e3520000 	cmp	r2, #0
   13e80:	e1a00082 	lsl	r0, r2, #1
   13e84:	0a000007 	beq	13ea8 <read_alias_file+0x1b0>
   13e88:	e19300b0 	ldrh	r0, [r3, r0]
   13e8c:	e3100a02 	tst	r0, #8192	; 0x2000
   13e90:	0afffff8 	beq	13e78 <read_alias_file+0x180>
   13e94:	e352000a 	cmp	r2, #10
   13e98:	1a00007b 	bne	1408c <read_alias_file+0x394>
   13e9c:	e3a03000 	mov	r3, #0
   13ea0:	e5c12001 	strb	r2, [r1, #1]
   13ea4:	e5c13000 	strb	r3, [r1]
   13ea8:	e5973000 	ldr	r3, [r7]
   13eac:	e5972004 	ldr	r2, [r7, #4]
   13eb0:	e50b31bc 	str	r3, [fp, #-444]	; 0xfffffe44
   13eb4:	e1530002 	cmp	r3, r2
   13eb8:	2a000076 	bcs	14098 <read_alias_file+0x3a0>
   13ebc:	e1a00004 	mov	r0, r4
   13ec0:	eb0045fe 	bl	256c0 <strlen>
   13ec4:	e2803001 	add	r3, r0, #1
   13ec8:	e1a00005 	mov	r0, r5
   13ecc:	e50b31b8 	str	r3, [fp, #-440]	; 0xfffffe48
   13ed0:	eb0045fa 	bl	256c0 <strlen>
   13ed4:	e5971008 	ldr	r1, [r7, #8]
   13ed8:	e51b21b8 	ldr	r2, [fp, #-440]	; 0xfffffe48
   13edc:	e50b11c8 	str	r1, [fp, #-456]	; 0xfffffe38
   13ee0:	e0822001 	add	r2, r2, r1
   13ee4:	e597300c 	ldr	r3, [r7, #12]
   13ee8:	e50b21cc 	str	r2, [fp, #-460]	; 0xfffffe34
   13eec:	e2801001 	add	r1, r0, #1
   13ef0:	e0812002 	add	r2, r1, r2
   13ef4:	e1520003 	cmp	r2, r3
   13ef8:	e50b11c4 	str	r1, [fp, #-452]	; 0xfffffe3c
   13efc:	e50b21d0 	str	r2, [fp, #-464]	; 0xfffffe30
   13f00:	8a000044 	bhi	14018 <read_alias_file+0x320>
   13f04:	e59f2260 	ldr	r2, [pc, #608]	; 1416c <read_alias_file+0x474>
   13f08:	e59f325c 	ldr	r3, [pc, #604]	; 1416c <read_alias_file+0x474>
   13f0c:	e5922000 	ldr	r2, [r2]
   13f10:	e5933004 	ldr	r3, [r3, #4]
   13f14:	e50b21d4 	str	r2, [fp, #-468]	; 0xfffffe2c
   13f18:	e51b21bc 	ldr	r2, [fp, #-444]	; 0xfffffe44
   13f1c:	e1a02182 	lsl	r2, r2, #3
   13f20:	e50b21d8 	str	r2, [fp, #-472]	; 0xfffffe28
   13f24:	e51b01c8 	ldr	r0, [fp, #-456]	; 0xfffffe38
   13f28:	e51b21b8 	ldr	r2, [fp, #-440]	; 0xfffffe48
   13f2c:	e1a01004 	mov	r1, r4
   13f30:	e0830000 	add	r0, r3, r0
   13f34:	e50b31b8 	str	r3, [fp, #-440]	; 0xfffffe48
   13f38:	eb004ad4 	bl	26a90 <memcpy>
   13f3c:	e51b31d4 	ldr	r3, [fp, #-468]	; 0xfffffe2c
   13f40:	e51bc1d8 	ldr	ip, [fp, #-472]	; 0xfffffe28
   13f44:	e51be1c0 	ldr	lr, [fp, #-448]	; 0xfffffe40
   13f48:	e083400c 	add	r4, r3, ip
   13f4c:	e28ee001 	add	lr, lr, #1
   13f50:	e51b21c4 	ldr	r2, [fp, #-452]	; 0xfffffe3c
   13f54:	e1a01005 	mov	r1, r5
   13f58:	e50be1c0 	str	lr, [fp, #-448]	; 0xfffffe40
   13f5c:	e783000c 	str	r0, [r3, ip]
   13f60:	e51b31b8 	ldr	r3, [fp, #-440]	; 0xfffffe48
   13f64:	e51b01cc 	ldr	r0, [fp, #-460]	; 0xfffffe34
   13f68:	e0830000 	add	r0, r3, r0
   13f6c:	eb004ac7 	bl	26a90 <memcpy>
   13f70:	e51b31bc 	ldr	r3, [fp, #-444]	; 0xfffffe44
   13f74:	e2833001 	add	r3, r3, #1
   13f78:	e5873000 	str	r3, [r7]
   13f7c:	e51b31d0 	ldr	r3, [fp, #-464]	; 0xfffffe30
   13f80:	e5873008 	str	r3, [r7, #8]
   13f84:	e5840004 	str	r0, [r4, #4]
   13f88:	e3560000 	cmp	r6, #0
   13f8c:	0a000014 	beq	13fe4 <read_alias_file+0x2ec>
   13f90:	e59a3000 	ldr	r3, [sl]
   13f94:	e3130010 	tst	r3, #16
   13f98:	0affff78 	beq	13d80 <read_alias_file+0x88>
   13f9c:	e1a0000a 	mov	r0, sl
   13fa0:	eb000cd1 	bl	172ec <_IO_new_fclose>
   13fa4:	e51b31c0 	ldr	r3, [fp, #-448]	; 0xfffffe40
   13fa8:	e3530000 	cmp	r3, #0
   13fac:	0a000006 	beq	13fcc <read_alias_file+0x2d4>
   13fb0:	e59f21b4 	ldr	r2, [pc, #436]	; 1416c <read_alias_file+0x474>
   13fb4:	e59f11a8 	ldr	r1, [pc, #424]	; 14164 <read_alias_file+0x46c>
   13fb8:	e59f31b0 	ldr	r3, [pc, #432]	; 14170 <read_alias_file+0x478>
   13fbc:	e5920000 	ldr	r0, [r2]
   13fc0:	e5911000 	ldr	r1, [r1]
   13fc4:	e3a02008 	mov	r2, #8
   13fc8:	eb00079d 	bl	15e44 <qsort>
   13fcc:	e51b01c0 	ldr	r0, [fp, #-448]	; 0xfffffe40
   13fd0:	e24bd020 	sub	sp, fp, #32
   13fd4:	e8bd8ff0 	pop	{r4, r5, r6, r7, r8, r9, sl, fp, pc}
   13fd8:	eb004424 	bl	25070 <strchr>
   13fdc:	e3500000 	cmp	r0, #0
   13fe0:	1affffea 	bne	13f90 <read_alias_file+0x298>
   13fe4:	e1a01008 	mov	r1, r8
   13fe8:	e1a0200a 	mov	r2, sl
   13fec:	e24b0f6d 	sub	r0, fp, #436	; 0x1b4
   13ff0:	eb001668 	bl	19998 <__fgets_unlocked>
   13ff4:	e1a01009 	mov	r1, r9
   13ff8:	e3500000 	cmp	r0, #0
   13ffc:	e24b0f6d 	sub	r0, fp, #436	; 0x1b4
   14000:	1afffff4 	bne	13fd8 <read_alias_file+0x2e0>
   14004:	eaffffe1 	b	13f90 <read_alias_file+0x298>
   14008:	e1d320b0 	ldrh	r2, [r3]
   1400c:	e3120a02 	tst	r2, #8192	; 0x2000
   14010:	1affff8b 	bne	13e44 <read_alias_file+0x14c>
   14014:	eaffffdb 	b	13f88 <read_alias_file+0x290>
   14018:	e51b21b8 	ldr	r2, [fp, #-440]	; 0xfffffe48
   1401c:	e51b11c4 	ldr	r1, [fp, #-452]	; 0xfffffe3c
   14020:	e0821001 	add	r1, r2, r1
   14024:	e59f2140 	ldr	r2, [pc, #320]	; 1416c <read_alias_file+0x474>
   14028:	e3510b01 	cmp	r1, #1024	; 0x400
   1402c:	20833001 	addcs	r3, r3, r1
   14030:	32833b01 	addcc	r3, r3, #1024	; 0x400
   14034:	e1a01003 	mov	r1, r3
   14038:	e5922004 	ldr	r2, [r2, #4]
   1403c:	e50b31dc 	str	r3, [fp, #-476]	; 0xfffffe24
   14040:	e1a00002 	mov	r0, r2
   14044:	e50b21d4 	str	r2, [fp, #-468]	; 0xfffffe2c
   14048:	eb003d91 	bl	23694 <__libc_realloc>
   1404c:	e2503000 	subs	r3, r0, #0
   14050:	0affffd1 	beq	13f9c <read_alias_file+0x2a4>
   14054:	e51b21d4 	ldr	r2, [fp, #-468]	; 0xfffffe2c
   14058:	e1520003 	cmp	r2, r3
   1405c:	1a00001d 	bne	140d8 <read_alias_file+0x3e0>
   14060:	e59f2104 	ldr	r2, [pc, #260]	; 1416c <read_alias_file+0x474>
   14064:	e5922000 	ldr	r2, [r2]
   14068:	e50b21d4 	str	r2, [fp, #-468]	; 0xfffffe2c
   1406c:	e51b21bc 	ldr	r2, [fp, #-444]	; 0xfffffe44
   14070:	e1a02182 	lsl	r2, r2, #3
   14074:	e50b21d8 	str	r2, [fp, #-472]	; 0xfffffe28
   14078:	e59f20ec 	ldr	r2, [pc, #236]	; 1416c <read_alias_file+0x474>
   1407c:	e5823004 	str	r3, [r2, #4]
   14080:	e51b21dc 	ldr	r2, [fp, #-476]	; 0xfffffe24
   14084:	e587200c 	str	r2, [r7, #12]
   14088:	eaffffa5 	b	13f24 <read_alias_file+0x22c>
   1408c:	e3a03000 	mov	r3, #0
   14090:	e5c13000 	strb	r3, [r1]
   14094:	eaffff83 	b	13ea8 <read_alias_file+0x1b0>
   14098:	e3520000 	cmp	r2, #0
   1409c:	11a03082 	lslne	r3, r2, #1
   140a0:	03a03064 	moveq	r3, #100	; 0x64
   140a4:	e50b31b8 	str	r3, [fp, #-440]	; 0xfffffe48
   140a8:	e59f30bc 	ldr	r3, [pc, #188]	; 1416c <read_alias_file+0x474>
   140ac:	11a01202 	lslne	r1, r2, #4
   140b0:	03a01e32 	moveq	r1, #800	; 0x320
   140b4:	e5930000 	ldr	r0, [r3]
   140b8:	eb003d75 	bl	23694 <__libc_realloc>
   140bc:	e3500000 	cmp	r0, #0
   140c0:	0affffb5 	beq	13f9c <read_alias_file+0x2a4>
   140c4:	e59f30a0 	ldr	r3, [pc, #160]	; 1416c <read_alias_file+0x474>
   140c8:	e5830000 	str	r0, [r3]
   140cc:	e51b31b8 	ldr	r3, [fp, #-440]	; 0xfffffe48
   140d0:	e5873004 	str	r3, [r7, #4]
   140d4:	eaffff78 	b	13ebc <read_alias_file+0x1c4>
   140d8:	e51bc1bc 	ldr	ip, [fp, #-444]	; 0xfffffe44
   140dc:	e35c0000 	cmp	ip, #0
   140e0:	0affffde 	beq	14060 <read_alias_file+0x368>
   140e4:	e59f1080 	ldr	r1, [pc, #128]	; 1416c <read_alias_file+0x474>
   140e8:	e0432002 	sub	r2, r3, r2
   140ec:	e5911000 	ldr	r1, [r1]
   140f0:	e1a00001 	mov	r0, r1
   140f4:	e50b11d4 	str	r1, [fp, #-468]	; 0xfffffe2c
   140f8:	e1a0118c 	lsl	r1, ip, #3
   140fc:	e1a0e001 	mov	lr, r1
   14100:	e50b11d8 	str	r1, [fp, #-472]	; 0xfffffe28
   14104:	e1a01000 	mov	r1, r0
   14108:	e081e00e 	add	lr, r1, lr
   1410c:	e2800004 	add	r0, r0, #4
   14110:	e510c004 	ldr	ip, [r0, #-4]
   14114:	e2811008 	add	r1, r1, #8
   14118:	e08cc002 	add	ip, ip, r2
   1411c:	e500c004 	str	ip, [r0, #-4]
   14120:	e511c004 	ldr	ip, [r1, #-4]
   14124:	e2800008 	add	r0, r0, #8
   14128:	e08cc002 	add	ip, ip, r2
   1412c:	e501c004 	str	ip, [r1, #-4]
   14130:	e151000e 	cmp	r1, lr
   14134:	1afffff5 	bne	14110 <read_alias_file+0x418>
   14138:	eaffffce 	b	14078 <read_alias_file+0x380>
   1413c:	e50ba1c0 	str	sl, [fp, #-448]	; 0xfffffe40
   14140:	e51b01c0 	ldr	r0, [fp, #-448]	; 0xfffffe40
   14144:	e24bd020 	sub	sp, fp, #32
   14148:	e8bd8ff0 	pop	{r4, r5, r6, r7, r8, r9, sl, fp, pc}
   1414c:	eb000c66 	bl	172ec <_IO_new_fclose>
   14150:	e3a03000 	mov	r3, #0
   14154:	e50b31c0 	str	r3, [fp, #-448]	; 0xfffffe40
   14158:	eaffff9b 	b	13fcc <read_alias_file+0x2d4>
   1415c:	0006fd20 	.word	0x0006fd20
   14160:	0006fd1c 	.word	0x0006fd1c
   14164:	00085fd8 	.word	0x00085fd8
   14168:	000710f0 	.word	0x000710f0
   1416c:	000868b8 	.word	0x000868b8
   14170:	00013ce4 	.word	0x00013ce4

00014174 <_nl_expand_alias>:
   14174:	e59f1184 	ldr	r1, [pc, #388]	; 14300 <_nl_expand_alias+0x18c>
   14178:	e92d4ff0 	push	{r4, r5, r6, r7, r8, r9, sl, fp, lr}
   1417c:	e3a02001 	mov	r2, #1
   14180:	e24dd00c 	sub	sp, sp, #12
   14184:	e1a08000 	mov	r8, r0
   14188:	e3a03000 	mov	r3, #0
   1418c:	e58d3004 	str	r3, [sp, #4]
   14190:	e1913f9f 	ldrex	r3, [r1]
   14194:	e3530000 	cmp	r3, #0
   14198:	1a000003 	bne	141ac <_nl_expand_alias+0x38>
   1419c:	e1810f92 	strex	r0, r2, [r1]
   141a0:	e3500000 	cmp	r0, #0
   141a4:	1afffff9 	bne	14190 <_nl_expand_alias+0x1c>
   141a8:	ee070fba 	mcr	15, 0, r0, cr7, cr10, {5}
   141ac:	0a000002 	beq	141bc <_nl_expand_alias+0x48>
   141b0:	e1a00001 	mov	r0, r1
   141b4:	e58d3004 	str	r3, [sp, #4]
   141b8:	eb0056df 	bl	29d3c <__lll_lock_wait_private>
   141bc:	e59f9140 	ldr	r9, [pc, #320]	; 14304 <_nl_expand_alias+0x190>
   141c0:	e59fb140 	ldr	fp, [pc, #320]	; 14308 <_nl_expand_alias+0x194>
   141c4:	e59f7140 	ldr	r7, [pc, #320]	; 1430c <_nl_expand_alias+0x198>
   141c8:	e5993014 	ldr	r3, [r9, #20]
   141cc:	e3530000 	cmp	r3, #0
   141d0:	059f3138 	ldreq	r3, [pc, #312]	; 14310 <_nl_expand_alias+0x19c>
   141d4:	05893014 	streq	r3, [r9, #20]
   141d8:	e5996000 	ldr	r6, [r9]
   141dc:	e3560000 	cmp	r6, #0
   141e0:	0a000012 	beq	14230 <_nl_expand_alias+0xbc>
   141e4:	e59ba000 	ldr	sl, [fp]
   141e8:	e3a05000 	mov	r5, #0
   141ec:	ea000003 	b	14200 <_nl_expand_alias+0x8c>
   141f0:	0a000038 	beq	142d8 <_nl_expand_alias+0x164>
   141f4:	e2845001 	add	r5, r4, #1
   141f8:	e1560005 	cmp	r6, r5
   141fc:	9a00000b 	bls	14230 <_nl_expand_alias+0xbc>
   14200:	e0864005 	add	r4, r6, r5
   14204:	e1a02007 	mov	r2, r7
   14208:	e1a040a4 	lsr	r4, r4, #1
   1420c:	e1a00008 	mov	r0, r8
   14210:	e79a1184 	ldr	r1, [sl, r4, lsl #3]
   14214:	eb004a0c 	bl	26a4c <__strcasecmp_l>
   14218:	e08a2184 	add	r2, sl, r4, lsl #3
   1421c:	e3500000 	cmp	r0, #0
   14220:	aafffff2 	bge	141f0 <_nl_expand_alias+0x7c>
   14224:	e1a06004 	mov	r6, r4
   14228:	e1560005 	cmp	r6, r5
   1422c:	8afffff3 	bhi	14200 <_nl_expand_alias+0x8c>
   14230:	e5992014 	ldr	r2, [r9, #20]
   14234:	e5d23000 	ldrb	r3, [r2]
   14238:	e3530000 	cmp	r3, #0
   1423c:	0a000012 	beq	1428c <_nl_expand_alias+0x118>
   14240:	e353003a 	cmp	r3, #58	; 0x3a
   14244:	e1a00002 	mov	r0, r2
   14248:	1a000004 	bne	14260 <_nl_expand_alias+0xec>
   1424c:	e5f03001 	ldrb	r3, [r0, #1]!
   14250:	e353003a 	cmp	r3, #58	; 0x3a
   14254:	0afffffc 	beq	1424c <_nl_expand_alias+0xd8>
   14258:	e3530000 	cmp	r3, #0
   1425c:	0a000009 	beq	14288 <_nl_expand_alias+0x114>
   14260:	e1a02000 	mov	r2, r0
   14264:	e5f23001 	ldrb	r3, [r2, #1]!
   14268:	e3530000 	cmp	r3, #0
   1426c:	1353003a 	cmpne	r3, #58	; 0x3a
   14270:	1afffffb 	bne	14264 <_nl_expand_alias+0xf0>
   14274:	e1500002 	cmp	r0, r2
   14278:	3a000010 	bcc	142c0 <_nl_expand_alias+0x14c>
   1427c:	e3530000 	cmp	r3, #0
   14280:	e1a00002 	mov	r0, r2
   14284:	1affffed 	bne	14240 <_nl_expand_alias+0xcc>
   14288:	e5890014 	str	r0, [r9, #20]
   1428c:	e3a0c000 	mov	ip, #0
   14290:	e59f1068 	ldr	r1, [pc, #104]	; 14300 <_nl_expand_alias+0x18c>
   14294:	e3a03000 	mov	r3, #0
   14298:	ee070fba 	mcr	15, 0, r0, cr7, cr10, {5}
   1429c:	e1912f9f 	ldrex	r2, [r1]
   142a0:	e1810f93 	strex	r0, r3, [r1]
   142a4:	e3500000 	cmp	r0, #0
   142a8:	1afffffb 	bne	1429c <_nl_expand_alias+0x128>
   142ac:	e3520001 	cmp	r2, #1
   142b0:	ca00000a 	bgt	142e0 <_nl_expand_alias+0x16c>
   142b4:	e1a0000c 	mov	r0, ip
   142b8:	e28dd00c 	add	sp, sp, #12
   142bc:	e8bd8ff0 	pop	{r4, r5, r6, r7, r8, r9, sl, fp, pc}
   142c0:	e0421000 	sub	r1, r2, r0
   142c4:	e5892014 	str	r2, [r9, #20]
   142c8:	ebfffe8a 	bl	13cf8 <read_alias_file>
   142cc:	e3500000 	cmp	r0, #0
   142d0:	0affffd6 	beq	14230 <_nl_expand_alias+0xbc>
   142d4:	eaffffbf 	b	141d8 <_nl_expand_alias+0x64>
   142d8:	e592c004 	ldr	ip, [r2, #4]
   142dc:	eaffffeb 	b	14290 <_nl_expand_alias+0x11c>
   142e0:	e1a00001 	mov	r0, r1
   142e4:	e3a02001 	mov	r2, #1
   142e8:	e3a01081 	mov	r1, #129	; 0x81
   142ec:	e3a070f0 	mov	r7, #240	; 0xf0
   142f0:	ef000000 	svc	0x00000000
   142f4:	e1a0000c 	mov	r0, ip
   142f8:	e28dd00c 	add	sp, sp, #12
   142fc:	e8bd8ff0 	pop	{r4, r5, r6, r7, r8, r9, sl, fp, pc}
   14300:	00085fe8 	.word	0x00085fe8
   14304:	00085fd8 	.word	0x00085fd8
   14308:	000868b8 	.word	0x000868b8
   1430c:	0007e71c 	.word	0x0007e71c
   14310:	0006fcd8 	.word	0x0006fcd8

00014314 <_nl_make_l10nflist>:
   14314:	e92d4ff0 	push	{r4, r5, r6, r7, r8, r9, sl, fp, lr}
   14318:	e24dd03c 	sub	sp, sp, #60	; 0x3c
   1431c:	e1a05002 	mov	r5, r2
   14320:	e59db060 	ldr	fp, [sp, #96]	; 0x60
   14324:	e58d0020 	str	r0, [sp, #32]
   14328:	e1a0000b 	mov	r0, fp
   1432c:	e1a09003 	mov	r9, r3
   14330:	e58d1028 	str	r1, [sp, #40]	; 0x28
   14334:	e58d2024 	str	r2, [sp, #36]	; 0x24
   14338:	eb0044e0 	bl	256c0 <strlen>
   1433c:	e2197004 	ands	r7, r9, #4
   14340:	e2856002 	add	r6, r5, #2
   14344:	01a05007 	moveq	r5, r7
   14348:	e1a04000 	mov	r4, r0
   1434c:	0a000002 	beq	1435c <_nl_make_l10nflist+0x48>
   14350:	e59d0064 	ldr	r0, [sp, #100]	; 0x64
   14354:	eb0044d9 	bl	256c0 <strlen>
   14358:	e2805001 	add	r5, r0, #1
   1435c:	e2193002 	ands	r3, r9, #2
   14360:	e58d302c 	str	r3, [sp, #44]	; 0x2c
   14364:	e0844006 	add	r4, r4, r6
   14368:	0a0000ee 	beq	14728 <_nl_make_l10nflist+0x414>
   1436c:	e59d0068 	ldr	r0, [sp, #104]	; 0x68
   14370:	eb0044d2 	bl	256c0 <strlen>
   14374:	e2808001 	add	r8, r0, #1
   14378:	e2193001 	ands	r3, r9, #1
   1437c:	e58d3030 	str	r3, [sp, #48]	; 0x30
   14380:	e0855004 	add	r5, r5, r4
   14384:	0a0000e5 	beq	14720 <_nl_make_l10nflist+0x40c>
   14388:	e59d006c 	ldr	r0, [sp, #108]	; 0x6c
   1438c:	eb0044cb 	bl	256c0 <strlen>
   14390:	e2806001 	add	r6, r0, #1
   14394:	e2193008 	ands	r3, r9, #8
   14398:	e58d3034 	str	r3, [sp, #52]	; 0x34
   1439c:	e0885005 	add	r5, r8, r5
   143a0:	0a0000dc 	beq	14718 <_nl_make_l10nflist+0x404>
   143a4:	e59d0070 	ldr	r0, [sp, #112]	; 0x70
   143a8:	eb0044c4 	bl	256c0 <strlen>
   143ac:	e2804001 	add	r4, r0, #1
   143b0:	e59d0074 	ldr	r0, [sp, #116]	; 0x74
   143b4:	eb0044c1 	bl	256c0 <strlen>
   143b8:	e0865005 	add	r5, r6, r5
   143bc:	e1a08000 	mov	r8, r0
   143c0:	e0850004 	add	r0, r5, r4
   143c4:	e0800008 	add	r0, r0, r8
   143c8:	eb003b03 	bl	22fdc <__libc_malloc>
   143cc:	e2505000 	subs	r5, r0, #0
   143d0:	0a000102 	beq	147e0 <_nl_make_l10nflist+0x4cc>
   143d4:	e59d4024 	ldr	r4, [sp, #36]	; 0x24
   143d8:	e59d1028 	ldr	r1, [sp, #40]	; 0x28
   143dc:	e1a02004 	mov	r2, r4
   143e0:	eb0049aa 	bl	26a90 <memcpy>
   143e4:	e3540000 	cmp	r4, #0
   143e8:	0a00000a 	beq	14418 <_nl_make_l10nflist+0x104>
   143ec:	e1a0a004 	mov	sl, r4
   143f0:	e1a06005 	mov	r6, r5
   143f4:	e3a0403a 	mov	r4, #58	; 0x3a
   143f8:	e1a00006 	mov	r0, r6
   143fc:	eb0044af 	bl	256c0 <strlen>
   14400:	e1e03000 	mvn	r3, r0
   14404:	e09aa003 	adds	sl, sl, r3
   14408:	e0866000 	add	r6, r6, r0
   1440c:	15c64000 	strbne	r4, [r6]
   14410:	12866001 	addne	r6, r6, #1
   14414:	1afffff7 	bne	143f8 <_nl_make_l10nflist+0xe4>
   14418:	e59d3024 	ldr	r3, [sp, #36]	; 0x24
   1441c:	e1a0100b 	mov	r1, fp
   14420:	e0850003 	add	r0, r5, r3
   14424:	e3a0302f 	mov	r3, #47	; 0x2f
   14428:	e5403001 	strb	r3, [r0, #-1]
   1442c:	eb00434f 	bl	25170 <__stpcpy>
   14430:	e3570000 	cmp	r7, #0
   14434:	1a0000bd 	bne	14730 <_nl_make_l10nflist+0x41c>
   14438:	e59d302c 	ldr	r3, [sp, #44]	; 0x2c
   1443c:	e3530000 	cmp	r3, #0
   14440:	1a0000c2 	bne	14750 <_nl_make_l10nflist+0x43c>
   14444:	e59d3030 	ldr	r3, [sp, #48]	; 0x30
   14448:	e3530000 	cmp	r3, #0
   1444c:	1a0000c7 	bne	14770 <_nl_make_l10nflist+0x45c>
   14450:	e59d3034 	ldr	r3, [sp, #52]	; 0x34
   14454:	e3530000 	cmp	r3, #0
   14458:	1a0000cc 	bne	14790 <_nl_make_l10nflist+0x47c>
   1445c:	e3a0302f 	mov	r3, #47	; 0x2f
   14460:	e4c03001 	strb	r3, [r0], #1
   14464:	e2882001 	add	r2, r8, #1
   14468:	e59d1074 	ldr	r1, [sp, #116]	; 0x74
   1446c:	eb004987 	bl	26a90 <memcpy>
   14470:	e59d3020 	ldr	r3, [sp, #32]
   14474:	e5937000 	ldr	r7, [r3]
   14478:	e3570000 	cmp	r7, #0
   1447c:	0a0000d9 	beq	147e8 <_nl_make_l10nflist+0x4d4>
   14480:	e1a08007 	mov	r8, r7
   14484:	e3a06000 	mov	r6, #0
   14488:	e5983000 	ldr	r3, [r8]
   1448c:	e1a01005 	mov	r1, r5
   14490:	e2530000 	subs	r0, r3, #0
   14494:	0a000004 	beq	144ac <_nl_make_l10nflist+0x198>
   14498:	eb004327 	bl	2513c <strcmp>
   1449c:	e3500000 	cmp	r0, #0
   144a0:	0a0000c1 	beq	147ac <_nl_make_l10nflist+0x498>
   144a4:	ba000003 	blt	144b8 <_nl_make_l10nflist+0x1a4>
   144a8:	e1a06008 	mov	r6, r8
   144ac:	e598800c 	ldr	r8, [r8, #12]
   144b0:	e3580000 	cmp	r8, #0
   144b4:	1afffff3 	bne	14488 <_nl_make_l10nflist+0x174>
   144b8:	e59d3078 	ldr	r3, [sp, #120]	; 0x78
   144bc:	e3530000 	cmp	r3, #0
   144c0:	0a0000b8 	beq	147a8 <_nl_make_l10nflist+0x494>
   144c4:	e59d3024 	ldr	r3, [sp, #36]	; 0x24
   144c8:	e3530000 	cmp	r3, #0
   144cc:	0a0000bb 	beq	147c0 <_nl_make_l10nflist+0x4ac>
   144d0:	e59d4024 	ldr	r4, [sp, #36]	; 0x24
   144d4:	e59d8028 	ldr	r8, [sp, #40]	; 0x28
   144d8:	e3a0a000 	mov	sl, #0
   144dc:	e1a00008 	mov	r0, r8
   144e0:	eb004476 	bl	256c0 <strlen>
   144e4:	e28aa001 	add	sl, sl, #1
   144e8:	e1e03000 	mvn	r3, r0
   144ec:	e0944003 	adds	r4, r4, r3
   144f0:	e2800001 	add	r0, r0, #1
   144f4:	e0888000 	add	r8, r8, r0
   144f8:	1afffff7 	bne	144dc <_nl_make_l10nflist+0x1c8>
   144fc:	e59f22ec 	ldr	r2, [pc, #748]	; 147f0 <_nl_make_l10nflist+0x4dc>
   14500:	e59f32ec 	ldr	r3, [pc, #748]	; 147f4 <_nl_make_l10nflist+0x4e0>
   14504:	e00220c9 	and	r2, r2, r9, asr #1
   14508:	e0033009 	and	r3, r3, r9
   1450c:	e0822003 	add	r2, r2, r3
   14510:	e59f12e0 	ldr	r1, [pc, #736]	; 147f8 <_nl_make_l10nflist+0x4e4>
   14514:	e59f32e0 	ldr	r3, [pc, #736]	; 147fc <_nl_make_l10nflist+0x4e8>
   14518:	e0011002 	and	r1, r1, r2
   1451c:	e0033142 	and	r3, r3, r2, asr #2
   14520:	e0833001 	add	r3, r3, r1
   14524:	e59f22d4 	ldr	r2, [pc, #724]	; 14800 <_nl_make_l10nflist+0x4ec>
   14528:	e0833243 	add	r3, r3, r3, asr #4
   1452c:	e0022003 	and	r2, r2, r3
   14530:	e1a03a03 	lsl	r3, r3, #20
   14534:	e0823e23 	add	r3, r2, r3, lsr #28
   14538:	e6ef0073 	uxtb	r0, r3
   1453c:	e1a0001a 	lsl	r0, sl, r0
   14540:	e2800005 	add	r0, r0, #5
   14544:	e1a00100 	lsl	r0, r0, #2
   14548:	eb003aa3 	bl	22fdc <__libc_malloc>
   1454c:	e2508000 	subs	r8, r0, #0
   14550:	0a0000a0 	beq	147d8 <_nl_make_l10nflist+0x4c4>
   14554:	e5885000 	str	r5, [r8]
   14558:	e59da024 	ldr	sl, [sp, #36]	; 0x24
   1455c:	e59d5028 	ldr	r5, [sp, #40]	; 0x28
   14560:	e1a00005 	mov	r0, r5
   14564:	eb004455 	bl	256c0 <strlen>
   14568:	e2844001 	add	r4, r4, #1
   1456c:	e1e03000 	mvn	r3, r0
   14570:	e09aa003 	adds	sl, sl, r3
   14574:	e2800001 	add	r0, r0, #1
   14578:	e0855000 	add	r5, r5, r0
   1457c:	1afffff7 	bne	14560 <_nl_make_l10nflist+0x24c>
   14580:	e3540001 	cmp	r4, #1
   14584:	02093003 	andeq	r3, r9, #3
   14588:	02433003 	subeq	r3, r3, #3
   1458c:	13a03001 	movne	r3, #1
   14590:	016f3f13 	clzeq	r3, r3
   14594:	01a032a3 	lsreq	r3, r3, #5
   14598:	e3560000 	cmp	r6, #0
   1459c:	e5883004 	str	r3, [r8, #4]
   145a0:	059d3020 	ldreq	r3, [sp, #32]
   145a4:	1596300c 	ldrne	r3, [r6, #12]
   145a8:	e3a02000 	mov	r2, #0
   145ac:	1588300c 	strne	r3, [r8, #12]
   145b0:	05838000 	streq	r8, [r3]
   145b4:	e59d3024 	ldr	r3, [sp, #36]	; 0x24
   145b8:	e5882008 	str	r2, [r8, #8]
   145bc:	0588700c 	streq	r7, [r8, #12]
   145c0:	1586800c 	strne	r8, [r6, #12]
   145c4:	e3530000 	cmp	r3, #0
   145c8:	0a00000d 	beq	14604 <_nl_make_l10nflist+0x2f0>
   145cc:	e59d4028 	ldr	r4, [sp, #40]	; 0x28
   145d0:	e1a05003 	mov	r5, r3
   145d4:	e3a06000 	mov	r6, #0
   145d8:	e1a00004 	mov	r0, r4
   145dc:	eb004437 	bl	256c0 <strlen>
   145e0:	e2866001 	add	r6, r6, #1
   145e4:	e1e03000 	mvn	r3, r0
   145e8:	e0955003 	adds	r5, r5, r3
   145ec:	e2800001 	add	r0, r0, #1
   145f0:	e0844000 	add	r4, r4, r0
   145f4:	1afffff7 	bne	145d8 <_nl_make_l10nflist+0x2c4>
   145f8:	e3560001 	cmp	r6, #1
   145fc:	02497001 	subeq	r7, r9, #1
   14600:	0a000000 	beq	14608 <_nl_make_l10nflist+0x2f4>
   14604:	e1a07009 	mov	r7, r9
   14608:	e3570000 	cmp	r7, #0
   1460c:	e3a06000 	mov	r6, #0
   14610:	ba00003a 	blt	14700 <_nl_make_l10nflist+0x3ec>
   14614:	e1e03009 	mvn	r3, r9
   14618:	e58d302c 	str	r3, [sp, #44]	; 0x2c
   1461c:	e59d2024 	ldr	r2, [sp, #36]	; 0x24
   14620:	e59d3028 	ldr	r3, [sp, #40]	; 0x28
   14624:	e58d8030 	str	r8, [sp, #48]	; 0x30
   14628:	e1a0a006 	mov	sl, r6
   1462c:	e0839002 	add	r9, r3, r2
   14630:	e59d8074 	ldr	r8, [sp, #116]	; 0x74
   14634:	ea000001 	b	14640 <_nl_make_l10nflist+0x32c>
   14638:	e2577001 	subs	r7, r7, #1
   1463c:	3a00002e 	bcc	146fc <_nl_make_l10nflist+0x3e8>
   14640:	e59d302c 	ldr	r3, [sp, #44]	; 0x2c
   14644:	e1130007 	tst	r3, r7
   14648:	1afffffa 	bne	14638 <_nl_make_l10nflist+0x324>
   1464c:	e2865004 	add	r5, r6, #4
   14650:	e1a0400a 	mov	r4, sl
   14654:	e59d3030 	ldr	r3, [sp, #48]	; 0x30
   14658:	e2540000 	subs	r0, r4, #0
   1465c:	e0835105 	add	r5, r3, r5, lsl #2
   14660:	e1a0100a 	mov	r1, sl
   14664:	0a00001e 	beq	146e4 <_nl_make_l10nflist+0x3d0>
   14668:	e1540009 	cmp	r4, r9
   1466c:	2afffff1 	bcs	14638 <_nl_make_l10nflist+0x324>
   14670:	eb0049d2 	bl	26dc0 <__rawmemchr>
   14674:	e2804001 	add	r4, r0, #1
   14678:	e3540000 	cmp	r4, #0
   1467c:	11540009 	cmpne	r4, r9
   14680:	2affffec 	bcs	14638 <_nl_make_l10nflist+0x324>
   14684:	e1a00004 	mov	r0, r4
   14688:	eb00440c 	bl	256c0 <strlen>
   1468c:	e3a03001 	mov	r3, #1
   14690:	e58d3018 	str	r3, [sp, #24]
   14694:	e59d3070 	ldr	r3, [sp, #112]	; 0x70
   14698:	e1a01004 	mov	r1, r4
   1469c:	e58d3010 	str	r3, [sp, #16]
   146a0:	e59d306c 	ldr	r3, [sp, #108]	; 0x6c
   146a4:	e58d8014 	str	r8, [sp, #20]
   146a8:	e58d300c 	str	r3, [sp, #12]
   146ac:	e59d3068 	ldr	r3, [sp, #104]	; 0x68
   146b0:	e58db000 	str	fp, [sp]
   146b4:	e58d3008 	str	r3, [sp, #8]
   146b8:	e59d3064 	ldr	r3, [sp, #100]	; 0x64
   146bc:	e2866001 	add	r6, r6, #1
   146c0:	e58d3004 	str	r3, [sp, #4]
   146c4:	e1a03007 	mov	r3, r7
   146c8:	e2802001 	add	r2, r0, #1
   146cc:	e59d0020 	ldr	r0, [sp, #32]
   146d0:	ebffff0f 	bl	14314 <_nl_make_l10nflist>
   146d4:	e1a0100a 	mov	r1, sl
   146d8:	e4850004 	str	r0, [r5], #4
   146dc:	e2540000 	subs	r0, r4, #0
   146e0:	1affffe0 	bne	14668 <_nl_make_l10nflist+0x354>
   146e4:	e59d3024 	ldr	r3, [sp, #36]	; 0x24
   146e8:	e59d4028 	ldr	r4, [sp, #40]	; 0x28
   146ec:	e3530000 	cmp	r3, #0
   146f0:	1affffe3 	bne	14684 <_nl_make_l10nflist+0x370>
   146f4:	e2577001 	subs	r7, r7, #1
   146f8:	2affffd0 	bcs	14640 <_nl_make_l10nflist+0x32c>
   146fc:	e59d8030 	ldr	r8, [sp, #48]	; 0x30
   14700:	e2866004 	add	r6, r6, #4
   14704:	e3a03000 	mov	r3, #0
   14708:	e7883106 	str	r3, [r8, r6, lsl #2]
   1470c:	e1a00008 	mov	r0, r8
   14710:	e28dd03c 	add	sp, sp, #60	; 0x3c
   14714:	e8bd8ff0 	pop	{r4, r5, r6, r7, r8, r9, sl, fp, pc}
   14718:	e2194008 	ands	r4, r9, #8
   1471c:	eaffff23 	b	143b0 <_nl_make_l10nflist+0x9c>
   14720:	e2196001 	ands	r6, r9, #1
   14724:	eaffff1a 	b	14394 <_nl_make_l10nflist+0x80>
   14728:	e2198002 	ands	r8, r9, #2
   1472c:	eaffff11 	b	14378 <_nl_make_l10nflist+0x64>
   14730:	e3a0305f 	mov	r3, #95	; 0x5f
   14734:	e5c03000 	strb	r3, [r0]
   14738:	e59d1064 	ldr	r1, [sp, #100]	; 0x64
   1473c:	e2800001 	add	r0, r0, #1
   14740:	eb00428a 	bl	25170 <__stpcpy>
   14744:	e59d302c 	ldr	r3, [sp, #44]	; 0x2c
   14748:	e3530000 	cmp	r3, #0
   1474c:	0affff3c 	beq	14444 <_nl_make_l10nflist+0x130>
   14750:	e3a0302e 	mov	r3, #46	; 0x2e
   14754:	e5c03000 	strb	r3, [r0]
   14758:	e59d1068 	ldr	r1, [sp, #104]	; 0x68
   1475c:	e2800001 	add	r0, r0, #1
   14760:	eb004282 	bl	25170 <__stpcpy>
   14764:	e59d3030 	ldr	r3, [sp, #48]	; 0x30
   14768:	e3530000 	cmp	r3, #0
   1476c:	0affff37 	beq	14450 <_nl_make_l10nflist+0x13c>
   14770:	e3a0302e 	mov	r3, #46	; 0x2e
   14774:	e5c03000 	strb	r3, [r0]
   14778:	e59d106c 	ldr	r1, [sp, #108]	; 0x6c
   1477c:	e2800001 	add	r0, r0, #1
   14780:	eb00427a 	bl	25170 <__stpcpy>
   14784:	e59d3034 	ldr	r3, [sp, #52]	; 0x34
   14788:	e3530000 	cmp	r3, #0
   1478c:	0affff32 	beq	1445c <_nl_make_l10nflist+0x148>
   14790:	e3a03040 	mov	r3, #64	; 0x40
   14794:	e5c03000 	strb	r3, [r0]
   14798:	e59d1070 	ldr	r1, [sp, #112]	; 0x70
   1479c:	e2800001 	add	r0, r0, #1
   147a0:	eb004272 	bl	25170 <__stpcpy>
   147a4:	eaffff2c 	b	1445c <_nl_make_l10nflist+0x148>
   147a8:	e59d8078 	ldr	r8, [sp, #120]	; 0x78
   147ac:	e1a00005 	mov	r0, r5
   147b0:	eb003b83 	bl	235c4 <__cfree>
   147b4:	e1a00008 	mov	r0, r8
   147b8:	e28dd03c 	add	sp, sp, #60	; 0x3c
   147bc:	e8bd8ff0 	pop	{r4, r5, r6, r7, r8, r9, sl, fp, pc}
   147c0:	e3a00014 	mov	r0, #20
   147c4:	eb003a04 	bl	22fdc <__libc_malloc>
   147c8:	e2508000 	subs	r8, r0, #0
   147cc:	13a03001 	movne	r3, #1
   147d0:	15885000 	strne	r5, [r8]
   147d4:	1affff6f 	bne	14598 <_nl_make_l10nflist+0x284>
   147d8:	e1a00005 	mov	r0, r5
   147dc:	eb003b78 	bl	235c4 <__cfree>
   147e0:	e3a08000 	mov	r8, #0
   147e4:	eaffffc8 	b	1470c <_nl_make_l10nflist+0x3f8>
   147e8:	e1a06007 	mov	r6, r7
   147ec:	eaffff31 	b	144b8 <_nl_make_l10nflist+0x1a4>
   147f0:	ffffd555 	.word	0xffffd555
   147f4:	00005555 	.word	0x00005555
   147f8:	00003333 	.word	0x00003333
   147fc:	fffff333 	.word	0xfffff333
   14800:	00000f0f 	.word	0x00000f0f

00014804 <_nl_normalize_codeset>:
   14804:	e92d41f0 	push	{r4, r5, r6, r7, r8, lr}
   14808:	e2518000 	subs	r8, r1, #0
   1480c:	e1a04000 	mov	r4, r0
   14810:	0a00003c 	beq	14908 <_nl_normalize_codeset+0x104>
   14814:	e59f7108 	ldr	r7, [pc, #264]	; 14924 <_nl_normalize_codeset+0x120>
   14818:	e1a02000 	mov	r2, r0
   1481c:	e0805008 	add	r5, r0, r8
   14820:	e5971034 	ldr	r1, [r7, #52]	; 0x34
   14824:	e3a06001 	mov	r6, #1
   14828:	e3a00000 	mov	r0, #0
   1482c:	e4d23001 	ldrb	r3, [r2], #1
   14830:	e243c030 	sub	ip, r3, #48	; 0x30
   14834:	e1a03083 	lsl	r3, r3, #1
   14838:	e19130b3 	ldrh	r3, [r1, r3]
   1483c:	e3130008 	tst	r3, #8
   14840:	0a000002 	beq	14850 <_nl_normalize_codeset+0x4c>
   14844:	e35c0009 	cmp	ip, #9
   14848:	e2800001 	add	r0, r0, #1
   1484c:	83a06000 	movhi	r6, #0
   14850:	e1550002 	cmp	r5, r2
   14854:	1afffff4 	bne	1482c <_nl_normalize_codeset+0x28>
   14858:	e3560000 	cmp	r6, #0
   1485c:	1a00001c 	bne	148d4 <_nl_normalize_codeset+0xd0>
   14860:	e2800001 	add	r0, r0, #1
   14864:	eb0039dc 	bl	22fdc <__libc_malloc>
   14868:	e250c000 	subs	ip, r0, #0
   1486c:	11a0000c 	movne	r0, ip
   14870:	0a000029 	beq	1491c <_nl_normalize_codeset+0x118>
   14874:	e5978034 	ldr	r8, [r7, #52]	; 0x34
   14878:	e5976038 	ldr	r6, [r7, #56]	; 0x38
   1487c:	e1a02004 	mov	r2, r4
   14880:	ea000004 	b	14898 <_nl_normalize_codeset+0x94>
   14884:	e7963101 	ldr	r3, [r6, r1, lsl #2]
   14888:	e1550002 	cmp	r5, r2
   1488c:	e5cc3000 	strb	r3, [ip]
   14890:	e28cc001 	add	ip, ip, #1
   14894:	0a00000b 	beq	148c8 <_nl_normalize_codeset+0xc4>
   14898:	e4d23001 	ldrb	r3, [r2], #1
   1489c:	e2434030 	sub	r4, r3, #48	; 0x30
   148a0:	e6bf1073 	sxth	r1, r3
   148a4:	e1a0e081 	lsl	lr, r1, #1
   148a8:	e198e0be 	ldrh	lr, [r8, lr]
   148ac:	e31e0b01 	tst	lr, #1024	; 0x400
   148b0:	1afffff3 	bne	14884 <_nl_normalize_codeset+0x80>
   148b4:	e3540009 	cmp	r4, #9
   148b8:	95cc3000 	strbls	r3, [ip]
   148bc:	928cc001 	addls	ip, ip, #1
   148c0:	e1550002 	cmp	r5, r2
   148c4:	1afffff3 	bne	14898 <_nl_normalize_codeset+0x94>
   148c8:	e3a03000 	mov	r3, #0
   148cc:	e5cc3000 	strb	r3, [ip]
   148d0:	e8bd81f0 	pop	{r4, r5, r6, r7, r8, pc}
   148d4:	e2800004 	add	r0, r0, #4
   148d8:	eb0039bf 	bl	22fdc <__libc_malloc>
   148dc:	e3500000 	cmp	r0, #0
   148e0:	0a000007 	beq	14904 <_nl_normalize_codeset+0x100>
   148e4:	e59f303c 	ldr	r3, [pc, #60]	; 14928 <_nl_normalize_codeset+0x124>
   148e8:	e1a0c000 	mov	ip, r0
   148ec:	e3580000 	cmp	r8, #0
   148f0:	e48c3003 	str	r3, [ip], #3
   148f4:	0afffff3 	beq	148c8 <_nl_normalize_codeset+0xc4>
   148f8:	e0845008 	add	r5, r4, r8
   148fc:	e59f7020 	ldr	r7, [pc, #32]	; 14924 <_nl_normalize_codeset+0x120>
   14900:	eaffffdb 	b	14874 <_nl_normalize_codeset+0x70>
   14904:	e8bd81f0 	pop	{r4, r5, r6, r7, r8, pc}
   14908:	e3a00004 	mov	r0, #4
   1490c:	eb0039b2 	bl	22fdc <__libc_malloc>
   14910:	e3500000 	cmp	r0, #0
   14914:	1afffff2 	bne	148e4 <_nl_normalize_codeset+0xe0>
   14918:	e8bd81f0 	pop	{r4, r5, r6, r7, r8, pc}
   1491c:	e1a00006 	mov	r0, r6
   14920:	e8bd81f0 	pop	{r4, r5, r6, r7, r8, pc}
   14924:	0007e71c 	.word	0x0007e71c
   14928:	006f7369 	.word	0x006f7369

0001492c <_nl_explode_name>:
   1492c:	e92d4ff8 	push	{r3, r4, r5, r6, r7, r8, r9, sl, fp, lr}
   14930:	e1a09003 	mov	r9, r3
   14934:	e3a03000 	mov	r3, #0
   14938:	e5823000 	str	r3, [r2]
   1493c:	e59d6028 	ldr	r6, [sp, #40]	; 0x28
   14940:	e1a08002 	mov	r8, r2
   14944:	e59d202c 	ldr	r2, [sp, #44]	; 0x2c
   14948:	e5893000 	str	r3, [r9]
   1494c:	e5863000 	str	r3, [r6]
   14950:	e5823000 	str	r3, [r2]
   14954:	e5810000 	str	r0, [r1]
   14958:	e5d03000 	ldrb	r3, [r0]
   1495c:	e20320bf 	and	r2, r3, #191	; 0xbf
   14960:	e353005f 	cmp	r3, #95	; 0x5f
   14964:	13520000 	cmpne	r2, #0
   14968:	0a000062 	beq	14af8 <_nl_explode_name+0x1cc>
   1496c:	e353002e 	cmp	r3, #46	; 0x2e
   14970:	0a000060 	beq	14af8 <_nl_explode_name+0x1cc>
   14974:	e1a0c000 	mov	ip, r0
   14978:	ea000005 	b	14994 <_nl_explode_name+0x68>
   1497c:	e3510040 	cmp	r1, #64	; 0x40
   14980:	1351002e 	cmpne	r1, #46	; 0x2e
   14984:	13a05001 	movne	r5, #1
   14988:	03a05000 	moveq	r5, #0
   1498c:	e1a0c00e 	mov	ip, lr
   14990:	0a00003b 	beq	14a84 <_nl_explode_name+0x158>
   14994:	e5dc1001 	ldrb	r1, [ip, #1]
   14998:	e28ce001 	add	lr, ip, #1
   1499c:	e3510000 	cmp	r1, #0
   149a0:	1351005f 	cmpne	r1, #95	; 0x5f
   149a4:	13a05001 	movne	r5, #1
   149a8:	03a05000 	moveq	r5, #0
   149ac:	1afffff2 	bne	1497c <_nl_explode_name+0x50>
   149b0:	e150000e 	cmp	r0, lr
   149b4:	0a00004f 	beq	14af8 <_nl_explode_name+0x1cc>
   149b8:	e351005f 	cmp	r1, #95	; 0x5f
   149bc:	11a0400e 	movne	r4, lr
   149c0:	1a000032 	bne	14a90 <_nl_explode_name+0x164>
   149c4:	e28c4002 	add	r4, ip, #2
   149c8:	e5ce5000 	strb	r5, [lr]
   149cc:	e5894000 	str	r4, [r9]
   149d0:	e5de1001 	ldrb	r1, [lr, #1]
   149d4:	e20130bf 	and	r3, r1, #191	; 0xbf
   149d8:	e351002e 	cmp	r1, #46	; 0x2e
   149dc:	13530000 	cmpne	r3, #0
   149e0:	0a000004 	beq	149f8 <_nl_explode_name+0xcc>
   149e4:	e5f41001 	ldrb	r1, [r4, #1]!
   149e8:	e20130bf 	and	r3, r1, #191	; 0xbf
   149ec:	e351002e 	cmp	r1, #46	; 0x2e
   149f0:	13530000 	cmpne	r3, #0
   149f4:	1afffffa 	bne	149e4 <_nl_explode_name+0xb8>
   149f8:	e351002e 	cmp	r1, #46	; 0x2e
   149fc:	e3a05004 	mov	r5, #4
   14a00:	1a000024 	bne	14a98 <_nl_explode_name+0x16c>
   14a04:	e1a00004 	mov	r0, r4
   14a08:	e3a03000 	mov	r3, #0
   14a0c:	e4c03001 	strb	r3, [r0], #1
   14a10:	e5860000 	str	r0, [r6]
   14a14:	e5d41001 	ldrb	r1, [r4, #1]
   14a18:	e31100bf 	tst	r1, #191	; 0xbf
   14a1c:	0a000040 	beq	14b24 <_nl_explode_name+0x1f8>
   14a20:	e1a0b000 	mov	fp, r0
   14a24:	ea000000 	b	14a2c <_nl_explode_name+0x100>
   14a28:	e1a0b004 	mov	fp, r4
   14a2c:	e5db3001 	ldrb	r3, [fp, #1]
   14a30:	e28b4001 	add	r4, fp, #1
   14a34:	e31300bf 	tst	r3, #191	; 0xbf
   14a38:	1afffffa 	bne	14a28 <_nl_explode_name+0xfc>
   14a3c:	e1500004 	cmp	r0, r4
   14a40:	e385a002 	orr	sl, r5, #2
   14a44:	0a000039 	beq	14b30 <_nl_explode_name+0x204>
   14a48:	e0441000 	sub	r1, r4, r0
   14a4c:	ebffff6c 	bl	14804 <_nl_normalize_codeset>
   14a50:	e59d302c 	ldr	r3, [sp, #44]	; 0x2c
   14a54:	e3500000 	cmp	r0, #0
   14a58:	e1a07000 	mov	r7, r0
   14a5c:	e5830000 	str	r0, [r3]
   14a60:	0a000034 	beq	14b38 <_nl_explode_name+0x20c>
   14a64:	e1a01000 	mov	r1, r0
   14a68:	e5960000 	ldr	r0, [r6]
   14a6c:	eb0041b2 	bl	2513c <strcmp>
   14a70:	e3500000 	cmp	r0, #0
   14a74:	0a000025 	beq	14b10 <_nl_explode_name+0x1e4>
   14a78:	e3855003 	orr	r5, r5, #3
   14a7c:	e5db1001 	ldrb	r1, [fp, #1]
   14a80:	ea000004 	b	14a98 <_nl_explode_name+0x16c>
   14a84:	e150000e 	cmp	r0, lr
   14a88:	0a00001a 	beq	14af8 <_nl_explode_name+0x1cc>
   14a8c:	e1a0400e 	mov	r4, lr
   14a90:	e351002e 	cmp	r1, #46	; 0x2e
   14a94:	0affffda 	beq	14a04 <_nl_explode_name+0xd8>
   14a98:	e3510040 	cmp	r1, #64	; 0x40
   14a9c:	0a00000d 	beq	14ad8 <_nl_explode_name+0x1ac>
   14aa0:	e5993000 	ldr	r3, [r9]
   14aa4:	e3530000 	cmp	r3, #0
   14aa8:	0a000002 	beq	14ab8 <_nl_explode_name+0x18c>
   14aac:	e5d33000 	ldrb	r3, [r3]
   14ab0:	e3530000 	cmp	r3, #0
   14ab4:	03c55004 	biceq	r5, r5, #4
   14ab8:	e5963000 	ldr	r3, [r6]
   14abc:	e3530000 	cmp	r3, #0
   14ac0:	0a000002 	beq	14ad0 <_nl_explode_name+0x1a4>
   14ac4:	e5d33000 	ldrb	r3, [r3]
   14ac8:	e3530000 	cmp	r3, #0
   14acc:	03c55002 	biceq	r5, r5, #2
   14ad0:	e1a00005 	mov	r0, r5
   14ad4:	e8bd8ff8 	pop	{r3, r4, r5, r6, r7, r8, r9, sl, fp, pc}
   14ad8:	e1a03004 	mov	r3, r4
   14adc:	e3a02000 	mov	r2, #0
   14ae0:	e4c32001 	strb	r2, [r3], #1
   14ae4:	e5883000 	str	r3, [r8]
   14ae8:	e5d43001 	ldrb	r3, [r4, #1]
   14aec:	e1530002 	cmp	r3, r2
   14af0:	13855008 	orrne	r5, r5, #8
   14af4:	eaffffe9 	b	14aa0 <_nl_explode_name+0x174>
   14af8:	e3a01000 	mov	r1, #0
   14afc:	eb0048af 	bl	26dc0 <__rawmemchr>
   14b00:	e3a05000 	mov	r5, #0
   14b04:	e1a04000 	mov	r4, r0
   14b08:	e5d01000 	ldrb	r1, [r0]
   14b0c:	eaffffe1 	b	14a98 <_nl_explode_name+0x16c>
   14b10:	e1a00007 	mov	r0, r7
   14b14:	eb003aaa 	bl	235c4 <__cfree>
   14b18:	e1a0500a 	mov	r5, sl
   14b1c:	e5db1001 	ldrb	r1, [fp, #1]
   14b20:	eaffffdc 	b	14a98 <_nl_explode_name+0x16c>
   14b24:	e3855002 	orr	r5, r5, #2
   14b28:	e1a04000 	mov	r4, r0
   14b2c:	eaffffd9 	b	14a98 <_nl_explode_name+0x16c>
   14b30:	e1a0500a 	mov	r5, sl
   14b34:	eaffffd7 	b	14a98 <_nl_explode_name+0x16c>
   14b38:	e3e05000 	mvn	r5, #0
   14b3c:	eaffffe3 	b	14ad0 <_nl_explode_name+0x1a4>

00014b40 <__gettext_free_exp>:
   14b40:	e92d4010 	push	{r4, lr}
   14b44:	e2504000 	subs	r4, r0, #0
   14b48:	08bd8010 	popeq	{r4, pc}
   14b4c:	e5943000 	ldr	r3, [r4]
   14b50:	e3530002 	cmp	r3, #2
   14b54:	0a000008 	beq	14b7c <__gettext_free_exp+0x3c>
   14b58:	e3530003 	cmp	r3, #3
   14b5c:	0a000004 	beq	14b74 <__gettext_free_exp+0x34>
   14b60:	e3530001 	cmp	r3, #1
   14b64:	0a000006 	beq	14b84 <__gettext_free_exp+0x44>
   14b68:	e1a00004 	mov	r0, r4
   14b6c:	e8bd4010 	pop	{r4, lr}
   14b70:	ea003a93 	b	235c4 <__cfree>
   14b74:	e5940010 	ldr	r0, [r4, #16]
   14b78:	ebfffff0 	bl	14b40 <__gettext_free_exp>
   14b7c:	e594000c 	ldr	r0, [r4, #12]
   14b80:	ebffffee 	bl	14b40 <__gettext_free_exp>
   14b84:	e5940008 	ldr	r0, [r4, #8]
   14b88:	ebffffec 	bl	14b40 <__gettext_free_exp>
   14b8c:	e1a00004 	mov	r0, r4
   14b90:	e8bd4010 	pop	{r4, lr}
   14b94:	ea003a8a 	b	235c4 <__cfree>

00014b98 <new_exp>:
   14b98:	e92d47f0 	push	{r4, r5, r6, r7, r8, r9, sl, lr}
   14b9c:	e2504001 	subs	r4, r0, #1
   14ba0:	e1a08000 	mov	r8, r0
   14ba4:	e1a09001 	mov	r9, r1
   14ba8:	4a000021 	bmi	14c34 <new_exp+0x9c>
   14bac:	e7926104 	ldr	r6, [r2, r4, lsl #2]
   14bb0:	e1a07104 	lsl	r7, r4, #2
   14bb4:	e3560000 	cmp	r6, #0
   14bb8:	e0825007 	add	r5, r2, r7
   14bbc:	e1a0a002 	mov	sl, r2
   14bc0:	11a00005 	movne	r0, r5
   14bc4:	11a03004 	movne	r3, r4
   14bc8:	1a000003 	bne	14bdc <new_exp+0x44>
   14bcc:	ea000011 	b	14c18 <new_exp+0x80>
   14bd0:	e530c004 	ldr	ip, [r0, #-4]!
   14bd4:	e35c0000 	cmp	ip, #0
   14bd8:	0a00000e 	beq	14c18 <new_exp+0x80>
   14bdc:	e2533001 	subs	r3, r3, #1
   14be0:	2afffffa 	bcs	14bd0 <new_exp+0x38>
   14be4:	e3a00014 	mov	r0, #20
   14be8:	eb0038fb 	bl	22fdc <__libc_malloc>
   14bec:	e3500000 	cmp	r0, #0
   14bf0:	0a000008 	beq	14c18 <new_exp+0x80>
   14bf4:	e2873008 	add	r3, r7, #8
   14bf8:	e0803003 	add	r3, r0, r3
   14bfc:	e8800300 	stm	r0, {r8, r9}
   14c00:	e155000a 	cmp	r5, sl
   14c04:	e4036004 	str	r6, [r3], #-4
   14c08:	08bd87f0 	popeq	{r4, r5, r6, r7, r8, r9, sl, pc}
   14c0c:	e5356004 	ldr	r6, [r5, #-4]!
   14c10:	eafffffa 	b	14c00 <new_exp+0x68>
   14c14:	e5356004 	ldr	r6, [r5, #-4]!
   14c18:	e1a00006 	mov	r0, r6
   14c1c:	e2444001 	sub	r4, r4, #1
   14c20:	ebffffc6 	bl	14b40 <__gettext_free_exp>
   14c24:	e3740001 	cmn	r4, #1
   14c28:	1afffff9 	bne	14c14 <new_exp+0x7c>
   14c2c:	e3a00000 	mov	r0, #0
   14c30:	e8bd87f0 	pop	{r4, r5, r6, r7, r8, r9, sl, pc}
   14c34:	e3a00014 	mov	r0, #20
   14c38:	eb0038e7 	bl	22fdc <__libc_malloc>
   14c3c:	e3500000 	cmp	r0, #0
   14c40:	0afffff9 	beq	14c2c <new_exp+0x94>
   14c44:	e8800300 	stm	r0, {r8, r9}
   14c48:	e8bd87f0 	pop	{r4, r5, r6, r7, r8, r9, sl, pc}

00014c4c <__gettextparse>:
   14c4c:	e92d4ff0 	push	{r4, r5, r6, r7, r8, r9, sl, fp, lr}
   14c50:	e24dde4d 	sub	sp, sp, #1232	; 0x4d0
   14c54:	e24dd00c 	sub	sp, sp, #12
   14c58:	e3a03000 	mov	r3, #0
   14c5c:	e28d5028 	add	r5, sp, #40	; 0x28
   14c60:	e59f78dc 	ldr	r7, [pc, #2268]	; 15544 <__gettextparse+0x8f8>
   14c64:	e1a06003 	mov	r6, r3
   14c68:	e1a08005 	mov	r8, r5
   14c6c:	e3e0b001 	mvn	fp, #1
   14c70:	e28d4f6e 	add	r4, sp, #440	; 0x1b8
   14c74:	e3a0a0c8 	mov	sl, #200	; 0xc8
   14c78:	e58d000c 	str	r0, [sp, #12]
   14c7c:	e1cd32b8 	strh	r3, [sp, #40]	; 0x28
   14c80:	e58d3010 	str	r3, [sp, #16]
   14c84:	e58d4008 	str	r4, [sp, #8]
   14c88:	e58da000 	str	sl, [sp]
   14c8c:	e19720d6 	ldrsb	r2, [r7, r6]
   14c90:	e372000a 	cmn	r2, #10
   14c94:	0a00000d 	beq	14cd0 <__gettextparse+0x84>
   14c98:	e37b0002 	cmn	fp, #2
   14c9c:	0a0000b5 	beq	14f78 <__gettextparse+0x32c>
   14ca0:	e35b0000 	cmp	fp, #0
   14ca4:	da0000a3 	ble	14f38 <__gettextparse+0x2ec>
   14ca8:	e087100b 	add	r1, r7, fp
   14cac:	e5d1101c 	ldrb	r1, [r1, #28]
   14cb0:	e0812002 	add	r2, r1, r2
   14cb4:	e3520036 	cmp	r2, #54	; 0x36
   14cb8:	8a000004 	bhi	14cd0 <__gettextparse+0x84>
   14cbc:	e0872002 	add	r2, r7, r2
   14cc0:	e2820f49 	add	r0, r2, #292	; 0x124
   14cc4:	e1d000d0 	ldrsb	r0, [r0]
   14cc8:	e1510000 	cmp	r1, r0
   14ccc:	0a00009c 	beq	14f44 <__gettextparse+0x2f8>
   14cd0:	e0872006 	add	r2, r7, r6
   14cd4:	e5d22194 	ldrb	r2, [r2, #404]	; 0x194
   14cd8:	e3520000 	cmp	r2, #0
   14cdc:	0a000013 	beq	14d30 <__gettextparse+0xe4>
   14ce0:	e0871002 	add	r1, r7, r2
   14ce4:	e242c002 	sub	ip, r2, #2
   14ce8:	e5d111b0 	ldrb	r1, [r1, #432]	; 0x1b0
   14cec:	e2610001 	rsb	r0, r1, #1
   14cf0:	e7940100 	ldr	r0, [r4, r0, lsl #2]
   14cf4:	e35c000b 	cmp	ip, #11
   14cf8:	979ff10c 	ldrls	pc, [pc, ip, lsl #2]
   14cfc:	ea0001ff 	b	15500 <__gettextparse+0x8b4>
   14d00:	000151f0 	.word	0x000151f0
   14d04:	0001529c 	.word	0x0001529c
   14d08:	000152d8 	.word	0x000152d8
   14d0c:	000151c4 	.word	0x000151c4
   14d10:	00014dd8 	.word	0x00014dd8
   14d14:	00014dd8 	.word	0x00014dd8
   14d18:	00014dd8 	.word	0x00014dd8
   14d1c:	00014dd8 	.word	0x00014dd8
   14d20:	00015218 	.word	0x00015218
   14d24:	00015278 	.word	0x00015278
   14d28:	00015244 	.word	0x00015244
   14d2c:	000151d8 	.word	0x000151d8
   14d30:	e59d3010 	ldr	r3, [sp, #16]
   14d34:	e3530003 	cmp	r3, #3
   14d38:	1a000004 	bne	14d50 <__gettextparse+0x104>
   14d3c:	ea000017 	b	14da0 <__gettextparse+0x154>
   14d40:	e1550008 	cmp	r5, r8
   14d44:	0a000019 	beq	14db0 <__gettextparse+0x164>
   14d48:	e17560f2 	ldrsh	r6, [r5, #-2]!
   14d4c:	e2444004 	sub	r4, r4, #4
   14d50:	e19730d6 	ldrsb	r3, [r7, r6]
   14d54:	e373000a 	cmn	r3, #10
   14d58:	e2832001 	add	r2, r3, #1
   14d5c:	0afffff7 	beq	14d40 <__gettextparse+0xf4>
   14d60:	e3520036 	cmp	r2, #54	; 0x36
   14d64:	e0873002 	add	r3, r7, r2
   14d68:	8afffff4 	bhi	14d40 <__gettextparse+0xf4>
   14d6c:	e5d32124 	ldrb	r2, [r3, #292]	; 0x124
   14d70:	e3520001 	cmp	r2, #1
   14d74:	1afffff1 	bne	14d40 <__gettextparse+0xf4>
   14d78:	e5d3615c 	ldrb	r6, [r3, #348]	; 0x15c
   14d7c:	e3560000 	cmp	r6, #0
   14d80:	0affffee 	beq	14d40 <__gettextparse+0xf4>
   14d84:	e59d3014 	ldr	r3, [sp, #20]
   14d88:	e1a02005 	mov	r2, r5
   14d8c:	e5843004 	str	r3, [r4, #4]
   14d90:	e3a03003 	mov	r3, #3
   14d94:	e2844004 	add	r4, r4, #4
   14d98:	e58d3010 	str	r3, [sp, #16]
   14d9c:	ea000029 	b	14e48 <__gettextparse+0x1fc>
   14da0:	e35b0000 	cmp	fp, #0
   14da4:	c3e0b001 	mvngt	fp, #1
   14da8:	caffffe8 	bgt	14d50 <__gettextparse+0x104>
   14dac:	1affffe7 	bne	14d50 <__gettextparse+0x104>
   14db0:	e3a04001 	mov	r4, #1
   14db4:	e28d3028 	add	r3, sp, #40	; 0x28
   14db8:	e1580003 	cmp	r8, r3
   14dbc:	0a000001 	beq	14dc8 <__gettextparse+0x17c>
   14dc0:	e1a00008 	mov	r0, r8
   14dc4:	eb0039fe 	bl	235c4 <__cfree>
   14dc8:	e1a00004 	mov	r0, r4
   14dcc:	e28dde4d 	add	sp, sp, #1232	; 0x4d0
   14dd0:	e28dd00c 	add	sp, sp, #12
   14dd4:	e8bd8ff0 	pop	{r4, r5, r6, r7, r8, r9, sl, fp, pc}
   14dd8:	e8144002 	ldmda	r4, {r1, lr}
   14ddc:	e514c008 	ldr	ip, [r4, #-8]
   14de0:	e28d201c 	add	r2, sp, #28
   14de4:	e3a00002 	mov	r0, #2
   14de8:	e58de020 	str	lr, [sp, #32]
   14dec:	e58dc01c 	str	ip, [sp, #28]
   14df0:	e3e06000 	mvn	r6, #0
   14df4:	ebffff67 	bl	14b98 <new_exp>
   14df8:	e3a01002 	mov	r1, #2
   14dfc:	e3e02005 	mvn	r2, #5
   14e00:	e3e0e00b 	mvn	lr, #11
   14e04:	e195c0f2 	ldrsh	ip, [r5, r2]
   14e08:	e084400e 	add	r4, r4, lr
   14e0c:	e0852002 	add	r2, r5, r2
   14e10:	e08c6006 	add	r6, ip, r6
   14e14:	e3560036 	cmp	r6, #54	; 0x36
   14e18:	e5840004 	str	r0, [r4, #4]
   14e1c:	e2844004 	add	r4, r4, #4
   14e20:	8a000005 	bhi	14e3c <__gettextparse+0x1f0>
   14e24:	e0876006 	add	r6, r7, r6
   14e28:	e2860f49 	add	r0, r6, #292	; 0x124
   14e2c:	e1d000d0 	ldrsb	r0, [r0]
   14e30:	e150000c 	cmp	r0, ip
   14e34:	05d6615c 	ldrbeq	r6, [r6, #348]	; 0x15c
   14e38:	0a000002 	beq	14e48 <__gettextparse+0x1fc>
   14e3c:	e0871001 	add	r1, r7, r1
   14e40:	e2811f75 	add	r1, r1, #468	; 0x1d4
   14e44:	e1d160d0 	ldrsb	r6, [r1]
   14e48:	e59d3000 	ldr	r3, [sp]
   14e4c:	e2825002 	add	r5, r2, #2
   14e50:	e2431106 	sub	r1, r3, #-2147483647	; 0x80000001
   14e54:	e1c260b2 	strh	r6, [r2, #2]
   14e58:	e1a01081 	lsl	r1, r1, #1
   14e5c:	e0880001 	add	r0, r8, r1
   14e60:	e1550000 	cmp	r5, r0
   14e64:	3a00002f 	bcc	14f28 <__gettextparse+0x2dc>
   14e68:	e0459008 	sub	r9, r5, r8
   14e6c:	e59f26d4 	ldr	r2, [pc, #1748]	; 15548 <__gettextparse+0x8fc>
   14e70:	e1a090c9 	asr	r9, r9, #1
   14e74:	e1530002 	cmp	r3, r2
   14e78:	e2899001 	add	r9, r9, #1
   14e7c:	8a000192 	bhi	154cc <__gettextparse+0x880>
   14e80:	e59f36c4 	ldr	r3, [pc, #1732]	; 1554c <__gettextparse+0x900>
   14e84:	e2811002 	add	r1, r1, #2
   14e88:	e1510003 	cmp	r1, r3
   14e8c:	31a03001 	movcc	r3, r1
   14e90:	e58d3000 	str	r3, [sp]
   14e94:	e1a05083 	lsl	r5, r3, #1
   14e98:	e0850003 	add	r0, r5, r3
   14e9c:	e1a00080 	lsl	r0, r0, #1
   14ea0:	e2800003 	add	r0, r0, #3
   14ea4:	eb00384c 	bl	22fdc <__libc_malloc>
   14ea8:	e2503000 	subs	r3, r0, #0
   14eac:	e58d3004 	str	r3, [sp, #4]
   14eb0:	0a000185 	beq	154cc <__gettextparse+0x880>
   14eb4:	e1a04089 	lsl	r4, r9, #1
   14eb8:	e1a02004 	mov	r2, r4
   14ebc:	e1a01008 	mov	r1, r8
   14ec0:	eb0046f2 	bl	26a90 <memcpy>
   14ec4:	e285a003 	add	sl, r5, #3
   14ec8:	e59d3004 	ldr	r3, [sp, #4]
   14ecc:	e3caa003 	bic	sl, sl, #3
   14ed0:	e083a00a 	add	sl, r3, sl
   14ed4:	e1a09109 	lsl	r9, r9, #2
   14ed8:	e59d1008 	ldr	r1, [sp, #8]
   14edc:	e1a0000a 	mov	r0, sl
   14ee0:	e1a02009 	mov	r2, r9
   14ee4:	eb0046e9 	bl	26a90 <memcpy>
   14ee8:	e28d3028 	add	r3, sp, #40	; 0x28
   14eec:	e1580003 	cmp	r8, r3
   14ef0:	0a000001 	beq	14efc <__gettextparse+0x2b0>
   14ef4:	e1a00008 	mov	r0, r8
   14ef8:	eb0039b1 	bl	235c4 <__cfree>
   14efc:	e59d3004 	ldr	r3, [sp, #4]
   14f00:	e2444002 	sub	r4, r4, #2
   14f04:	e2452002 	sub	r2, r5, #2
   14f08:	e0832002 	add	r2, r3, r2
   14f0c:	e0835004 	add	r5, r3, r4
   14f10:	e2499004 	sub	r9, r9, #4
   14f14:	e1550002 	cmp	r5, r2
   14f18:	e08a4009 	add	r4, sl, r9
   14f1c:	2a000174 	bcs	154f4 <__gettextparse+0x8a8>
   14f20:	e1a08003 	mov	r8, r3
   14f24:	e58da008 	str	sl, [sp, #8]
   14f28:	e3560009 	cmp	r6, #9
   14f2c:	1affff56 	bne	14c8c <__gettextparse+0x40>
   14f30:	e3a04000 	mov	r4, #0
   14f34:	eaffff9e 	b	14db4 <__gettextparse+0x168>
   14f38:	e3a0b000 	mov	fp, #0
   14f3c:	e1a0100b 	mov	r1, fp
   14f40:	eaffff5a 	b	14cb0 <__gettextparse+0x64>
   14f44:	e5d2615c 	ldrb	r6, [r2, #348]	; 0x15c
   14f48:	e3560000 	cmp	r6, #0
   14f4c:	0a0000e6 	beq	152ec <__gettextparse+0x6a0>
   14f50:	e59d3010 	ldr	r3, [sp, #16]
   14f54:	e1a02005 	mov	r2, r5
   14f58:	e3530000 	cmp	r3, #0
   14f5c:	12433001 	subne	r3, r3, #1
   14f60:	158d3010 	strne	r3, [sp, #16]
   14f64:	e59d3014 	ldr	r3, [sp, #20]
   14f68:	e2844004 	add	r4, r4, #4
   14f6c:	e5843000 	str	r3, [r4]
   14f70:	e3e0b001 	mvn	fp, #1
   14f74:	eaffffb3 	b	14e48 <__gettextparse+0x1fc>
   14f78:	e59d300c 	ldr	r3, [sp, #12]
   14f7c:	e5930000 	ldr	r0, [r3]
   14f80:	e5d01000 	ldrb	r1, [r0]
   14f84:	e3510000 	cmp	r1, #0
   14f88:	1a000003 	bne	14f9c <__gettextparse+0x350>
   14f8c:	ea000087 	b	151b0 <__gettextparse+0x564>
   14f90:	e5f01001 	ldrb	r1, [r0, #1]!
   14f94:	e3510000 	cmp	r1, #0
   14f98:	0a000084 	beq	151b0 <__gettextparse+0x564>
   14f9c:	e3510020 	cmp	r1, #32
   14fa0:	13510009 	cmpne	r1, #9
   14fa4:	0afffff9 	beq	14f90 <__gettextparse+0x344>
   14fa8:	e280c001 	add	ip, r0, #1
   14fac:	e1a0b001 	mov	fp, r1
   14fb0:	e351007c 	cmp	r1, #124	; 0x7c
   14fb4:	979ff101 	ldrls	pc, [pc, r1, lsl #2]
   14fb8:	ea0000f3 	b	1538c <__gettextparse+0x740>
   14fbc:	000151b0 	.word	0x000151b0
   14fc0:	0001538c 	.word	0x0001538c
   14fc4:	0001538c 	.word	0x0001538c
   14fc8:	0001538c 	.word	0x0001538c
   14fcc:	0001538c 	.word	0x0001538c
   14fd0:	0001538c 	.word	0x0001538c
   14fd4:	0001538c 	.word	0x0001538c
   14fd8:	0001538c 	.word	0x0001538c
   14fdc:	0001538c 	.word	0x0001538c
   14fe0:	0001538c 	.word	0x0001538c
   14fe4:	000151b0 	.word	0x000151b0
   14fe8:	0001538c 	.word	0x0001538c
   14fec:	0001538c 	.word	0x0001538c
   14ff0:	0001538c 	.word	0x0001538c
   14ff4:	0001538c 	.word	0x0001538c
   14ff8:	0001538c 	.word	0x0001538c
   14ffc:	0001538c 	.word	0x0001538c
   15000:	0001538c 	.word	0x0001538c
   15004:	0001538c 	.word	0x0001538c
   15008:	0001538c 	.word	0x0001538c
   1500c:	0001538c 	.word	0x0001538c
   15010:	0001538c 	.word	0x0001538c
   15014:	0001538c 	.word	0x0001538c
   15018:	0001538c 	.word	0x0001538c
   1501c:	0001538c 	.word	0x0001538c
   15020:	0001538c 	.word	0x0001538c
   15024:	0001538c 	.word	0x0001538c
   15028:	0001538c 	.word	0x0001538c
   1502c:	0001538c 	.word	0x0001538c
   15030:	0001538c 	.word	0x0001538c
   15034:	0001538c 	.word	0x0001538c
   15038:	0001538c 	.word	0x0001538c
   1503c:	0001538c 	.word	0x0001538c
   15040:	000154ac 	.word	0x000154ac
   15044:	0001538c 	.word	0x0001538c
   15048:	0001538c 	.word	0x0001538c
   1504c:	0001538c 	.word	0x0001538c
   15050:	00015354 	.word	0x00015354
   15054:	00015490 	.word	0x00015490
   15058:	0001538c 	.word	0x0001538c
   1505c:	000154a0 	.word	0x000154a0
   15060:	000154a0 	.word	0x000154a0
   15064:	00015338 	.word	0x00015338
   15068:	0001531c 	.word	0x0001531c
   1506c:	0001538c 	.word	0x0001538c
   15070:	00015370 	.word	0x00015370
   15074:	0001538c 	.word	0x0001538c
   15078:	00015300 	.word	0x00015300
   1507c:	0001543c 	.word	0x0001543c
   15080:	0001543c 	.word	0x0001543c
   15084:	0001543c 	.word	0x0001543c
   15088:	0001543c 	.word	0x0001543c
   1508c:	0001543c 	.word	0x0001543c
   15090:	0001543c 	.word	0x0001543c
   15094:	0001543c 	.word	0x0001543c
   15098:	0001543c 	.word	0x0001543c
   1509c:	0001543c 	.word	0x0001543c
   150a0:	0001543c 	.word	0x0001543c
   150a4:	000154a0 	.word	0x000154a0
   150a8:	000151b0 	.word	0x000151b0
   150ac:	00015404 	.word	0x00015404
   150b0:	000153d8 	.word	0x000153d8
   150b4:	000153a0 	.word	0x000153a0
   150b8:	000154a0 	.word	0x000154a0
   150bc:	0001538c 	.word	0x0001538c
   150c0:	0001538c 	.word	0x0001538c
   150c4:	0001538c 	.word	0x0001538c
   150c8:	0001538c 	.word	0x0001538c
   150cc:	0001538c 	.word	0x0001538c
   150d0:	0001538c 	.word	0x0001538c
   150d4:	0001538c 	.word	0x0001538c
   150d8:	0001538c 	.word	0x0001538c
   150dc:	0001538c 	.word	0x0001538c
   150e0:	0001538c 	.word	0x0001538c
   150e4:	0001538c 	.word	0x0001538c
   150e8:	0001538c 	.word	0x0001538c
   150ec:	0001538c 	.word	0x0001538c
   150f0:	0001538c 	.word	0x0001538c
   150f4:	0001538c 	.word	0x0001538c
   150f8:	0001538c 	.word	0x0001538c
   150fc:	0001538c 	.word	0x0001538c
   15100:	0001538c 	.word	0x0001538c
   15104:	0001538c 	.word	0x0001538c
   15108:	0001538c 	.word	0x0001538c
   1510c:	0001538c 	.word	0x0001538c
   15110:	0001538c 	.word	0x0001538c
   15114:	0001538c 	.word	0x0001538c
   15118:	0001538c 	.word	0x0001538c
   1511c:	0001538c 	.word	0x0001538c
   15120:	0001538c 	.word	0x0001538c
   15124:	0001538c 	.word	0x0001538c
   15128:	0001538c 	.word	0x0001538c
   1512c:	0001538c 	.word	0x0001538c
   15130:	0001538c 	.word	0x0001538c
   15134:	0001538c 	.word	0x0001538c
   15138:	0001538c 	.word	0x0001538c
   1513c:	0001538c 	.word	0x0001538c
   15140:	0001538c 	.word	0x0001538c
   15144:	0001538c 	.word	0x0001538c
   15148:	0001538c 	.word	0x0001538c
   1514c:	0001538c 	.word	0x0001538c
   15150:	0001538c 	.word	0x0001538c
   15154:	0001538c 	.word	0x0001538c
   15158:	0001538c 	.word	0x0001538c
   1515c:	0001538c 	.word	0x0001538c
   15160:	0001538c 	.word	0x0001538c
   15164:	0001538c 	.word	0x0001538c
   15168:	0001538c 	.word	0x0001538c
   1516c:	0001538c 	.word	0x0001538c
   15170:	0001538c 	.word	0x0001538c
   15174:	000154a0 	.word	0x000154a0
   15178:	0001538c 	.word	0x0001538c
   1517c:	0001538c 	.word	0x0001538c
   15180:	0001538c 	.word	0x0001538c
   15184:	0001538c 	.word	0x0001538c
   15188:	0001538c 	.word	0x0001538c
   1518c:	0001538c 	.word	0x0001538c
   15190:	0001538c 	.word	0x0001538c
   15194:	0001538c 	.word	0x0001538c
   15198:	0001538c 	.word	0x0001538c
   1519c:	0001538c 	.word	0x0001538c
   151a0:	0001538c 	.word	0x0001538c
   151a4:	0001538c 	.word	0x0001538c
   151a8:	0001538c 	.word	0x0001538c
   151ac:	00015490 	.word	0x00015490
   151b0:	e59d300c 	ldr	r3, [sp, #12]
   151b4:	e3a01000 	mov	r1, #0
   151b8:	e1a0b001 	mov	fp, r1
   151bc:	e5830000 	str	r0, [r3]
   151c0:	eafffeba 	b	14cb0 <__gettextparse+0x64>
   151c4:	e594e000 	ldr	lr, [r4]
   151c8:	e514c008 	ldr	ip, [r4, #-8]
   151cc:	e28d201c 	add	r2, sp, #28
   151d0:	e3a0100e 	mov	r1, #14
   151d4:	eaffff02 	b	14de4 <__gettextparse+0x198>
   151d8:	e5140004 	ldr	r0, [r4, #-4]
   151dc:	e3e06000 	mvn	r6, #0
   151e0:	e3a01002 	mov	r1, #2
   151e4:	e3e02005 	mvn	r2, #5
   151e8:	e3e0e00b 	mvn	lr, #11
   151ec:	eaffff04 	b	14e04 <__gettextparse+0x1b8>
   151f0:	e5942000 	ldr	r2, [r4]
   151f4:	e3520000 	cmp	r2, #0
   151f8:	0afffeec 	beq	14db0 <__gettextparse+0x164>
   151fc:	e59d300c 	ldr	r3, [sp, #12]
   15200:	e3e06009 	mvn	r6, #9
   15204:	e3a01001 	mov	r1, #1
   15208:	e5832004 	str	r2, [r3, #4]
   1520c:	e3e0e003 	mvn	lr, #3
   15210:	e3e02001 	mvn	r2, #1
   15214:	eafffefa 	b	14e04 <__gettextparse+0x1b8>
   15218:	e594c000 	ldr	ip, [r4]
   1521c:	e28d201c 	add	r2, sp, #28
   15220:	e3a01002 	mov	r1, #2
   15224:	e3a00001 	mov	r0, #1
   15228:	e58dc01c 	str	ip, [sp, #28]
   1522c:	e3e06000 	mvn	r6, #0
   15230:	ebfffe58 	bl	14b98 <new_exp>
   15234:	e3a01002 	mov	r1, #2
   15238:	e3e02003 	mvn	r2, #3
   1523c:	e3e0e007 	mvn	lr, #7
   15240:	eafffeef 	b	14e04 <__gettextparse+0x1b8>
   15244:	e3a02000 	mov	r2, #0
   15248:	e1a00002 	mov	r0, r2
   1524c:	e3a01001 	mov	r1, #1
   15250:	ebfffe50 	bl	14b98 <new_exp>
   15254:	e3500000 	cmp	r0, #0
   15258:	0a0000b4 	beq	15530 <__gettextparse+0x8e4>
   1525c:	e5942000 	ldr	r2, [r4]
   15260:	e3e06000 	mvn	r6, #0
   15264:	e5802008 	str	r2, [r0, #8]
   15268:	e3a01002 	mov	r1, #2
   1526c:	e3e02001 	mvn	r2, #1
   15270:	e3e0e003 	mvn	lr, #3
   15274:	eafffee2 	b	14e04 <__gettextparse+0x1b8>
   15278:	e3a02000 	mov	r2, #0
   1527c:	e1a01002 	mov	r1, r2
   15280:	e1a00002 	mov	r0, r2
   15284:	ebfffe43 	bl	14b98 <new_exp>
   15288:	e3e06000 	mvn	r6, #0
   1528c:	e3a01002 	mov	r1, #2
   15290:	e3e02001 	mvn	r2, #1
   15294:	e3e0e003 	mvn	lr, #3
   15298:	eafffed9 	b	14e04 <__gettextparse+0x1b8>
   1529c:	e5146008 	ldr	r6, [r4, #-8]
   152a0:	e594e000 	ldr	lr, [r4]
   152a4:	e514c010 	ldr	ip, [r4, #-16]
   152a8:	e28d201c 	add	r2, sp, #28
   152ac:	e3a01010 	mov	r1, #16
   152b0:	e3a00003 	mov	r0, #3
   152b4:	e58d6020 	str	r6, [sp, #32]
   152b8:	e58de024 	str	lr, [sp, #36]	; 0x24
   152bc:	e58dc01c 	str	ip, [sp, #28]
   152c0:	e3e06000 	mvn	r6, #0
   152c4:	ebfffe33 	bl	14b98 <new_exp>
   152c8:	e3a01002 	mov	r1, #2
   152cc:	e3e02009 	mvn	r2, #9
   152d0:	e3e0e013 	mvn	lr, #19
   152d4:	eafffeca 	b	14e04 <__gettextparse+0x1b8>
   152d8:	e594e000 	ldr	lr, [r4]
   152dc:	e514c008 	ldr	ip, [r4, #-8]
   152e0:	e28d201c 	add	r2, sp, #28
   152e4:	e3a0100f 	mov	r1, #15
   152e8:	eafffebd 	b	14de4 <__gettextparse+0x198>
   152ec:	e5940004 	ldr	r0, [r4, #4]
   152f0:	e3e0100f 	mvn	r1, #15
   152f4:	e1a02006 	mov	r2, r6
   152f8:	e1a0e006 	mov	lr, r6
   152fc:	eafffec0 	b	14e04 <__gettextparse+0x1b8>
   15300:	e59d300c 	ldr	r3, [sp, #12]
   15304:	e3a01009 	mov	r1, #9
   15308:	e59fb240 	ldr	fp, [pc, #576]	; 15550 <__gettextparse+0x904>
   1530c:	e583c000 	str	ip, [r3]
   15310:	e3a03004 	mov	r3, #4
   15314:	e58d3014 	str	r3, [sp, #20]
   15318:	eafffe64 	b	14cb0 <__gettextparse+0x64>
   1531c:	e59d300c 	ldr	r3, [sp, #12]
   15320:	e3a01008 	mov	r1, #8
   15324:	e3a0bf41 	mov	fp, #260	; 0x104
   15328:	e583c000 	str	ip, [r3]
   1532c:	e3a03006 	mov	r3, #6
   15330:	e58d3014 	str	r3, [sp, #20]
   15334:	eafffe5d 	b	14cb0 <__gettextparse+0x64>
   15338:	e59d300c 	ldr	r3, [sp, #12]
   1533c:	e3a01009 	mov	r1, #9
   15340:	e59fb208 	ldr	fp, [pc, #520]	; 15550 <__gettextparse+0x904>
   15344:	e583c000 	str	ip, [r3]
   15348:	e3a03003 	mov	r3, #3
   1534c:	e58d3014 	str	r3, [sp, #20]
   15350:	eafffe56 	b	14cb0 <__gettextparse+0x64>
   15354:	e59d300c 	ldr	r3, [sp, #12]
   15358:	e3a01009 	mov	r1, #9
   1535c:	e59fb1ec 	ldr	fp, [pc, #492]	; 15550 <__gettextparse+0x904>
   15360:	e583c000 	str	ip, [r3]
   15364:	e3a03005 	mov	r3, #5
   15368:	e58d3014 	str	r3, [sp, #20]
   1536c:	eafffe4f 	b	14cb0 <__gettextparse+0x64>
   15370:	e59d300c 	ldr	r3, [sp, #12]
   15374:	e3a01008 	mov	r1, #8
   15378:	e3a0bf41 	mov	fp, #260	; 0x104
   1537c:	e583c000 	str	ip, [r3]
   15380:	e3a03007 	mov	r3, #7
   15384:	e58d3014 	str	r3, [sp, #20]
   15388:	eafffe48 	b	14cb0 <__gettextparse+0x64>
   1538c:	e59d300c 	ldr	r3, [sp, #12]
   15390:	e3a01001 	mov	r1, #1
   15394:	e3a0bc01 	mov	fp, #256	; 0x100
   15398:	e583c000 	str	ip, [r3]
   1539c:	eafffe43 	b	14cb0 <__gettextparse+0x64>
   153a0:	e5d03001 	ldrb	r3, [r0, #1]
   153a4:	e59fb1a8 	ldr	fp, [pc, #424]	; 15554 <__gettextparse+0x908>
   153a8:	e353003d 	cmp	r3, #61	; 0x3d
   153ac:	02800002 	addeq	r0, r0, #2
   153b0:	059d300c 	ldreq	r3, [sp, #12]
   153b4:	159d300c 	ldrne	r3, [sp, #12]
   153b8:	03a01007 	moveq	r1, #7
   153bc:	05830000 	streq	r0, [r3]
   153c0:	1583c000 	strne	ip, [r3]
   153c4:	03a0300b 	moveq	r3, #11
   153c8:	13a03009 	movne	r3, #9
   153cc:	13a01007 	movne	r1, #7
   153d0:	e58d3014 	str	r3, [sp, #20]
   153d4:	eafffe35 	b	14cb0 <__gettextparse+0x64>
   153d8:	e5d03001 	ldrb	r3, [r0, #1]
   153dc:	e353003d 	cmp	r3, #61	; 0x3d
   153e0:	1affffe9 	bne	1538c <__gettextparse+0x740>
   153e4:	e59d300c 	ldr	r3, [sp, #12]
   153e8:	e2800002 	add	r0, r0, #2
   153ec:	e3a01006 	mov	r1, #6
   153f0:	e5830000 	str	r0, [r3]
   153f4:	e3a0300c 	mov	r3, #12
   153f8:	e58d3014 	str	r3, [sp, #20]
   153fc:	e59fb154 	ldr	fp, [pc, #340]	; 15558 <__gettextparse+0x90c>
   15400:	eafffe2a 	b	14cb0 <__gettextparse+0x64>
   15404:	e5d03001 	ldrb	r3, [r0, #1]
   15408:	e59fb144 	ldr	fp, [pc, #324]	; 15554 <__gettextparse+0x908>
   1540c:	e353003d 	cmp	r3, #61	; 0x3d
   15410:	02800002 	addeq	r0, r0, #2
   15414:	059d300c 	ldreq	r3, [sp, #12]
   15418:	159d300c 	ldrne	r3, [sp, #12]
   1541c:	03a01007 	moveq	r1, #7
   15420:	05830000 	streq	r0, [r3]
   15424:	1583c000 	strne	ip, [r3]
   15428:	03a0300a 	moveq	r3, #10
   1542c:	13a03008 	movne	r3, #8
   15430:	13a01007 	movne	r1, #7
   15434:	e58d3014 	str	r3, [sp, #20]
   15438:	eafffe1c 	b	14cb0 <__gettextparse+0x64>
   1543c:	e5d00001 	ldrb	r0, [r0, #1]
   15440:	e2413030 	sub	r3, r1, #48	; 0x30
   15444:	e1a01003 	mov	r1, r3
   15448:	e58d3014 	str	r3, [sp, #20]
   1544c:	e2403030 	sub	r3, r0, #48	; 0x30
   15450:	e3530009 	cmp	r3, #9
   15454:	8a000008 	bhi	1547c <__gettextparse+0x830>
   15458:	e1a03001 	mov	r3, r1
   1545c:	e0833103 	add	r3, r3, r3, lsl #2
   15460:	e0803083 	add	r3, r0, r3, lsl #1
   15464:	e5fc0001 	ldrb	r0, [ip, #1]!
   15468:	e2433030 	sub	r3, r3, #48	; 0x30
   1546c:	e2401030 	sub	r1, r0, #48	; 0x30
   15470:	e3510009 	cmp	r1, #9
   15474:	9afffff8 	bls	1545c <__gettextparse+0x810>
   15478:	e58d3014 	str	r3, [sp, #20]
   1547c:	e59d300c 	ldr	r3, [sp, #12]
   15480:	e3a0100b 	mov	r1, #11
   15484:	e59fb0d0 	ldr	fp, [pc, #208]	; 1555c <__gettextparse+0x910>
   15488:	e583c000 	str	ip, [r3]
   1548c:	eafffe07 	b	14cb0 <__gettextparse+0x64>
   15490:	e5d0e001 	ldrb	lr, [r0, #1]
   15494:	e151000e 	cmp	r1, lr
   15498:	0280c002 	addeq	ip, r0, #2
   1549c:	1affffba 	bne	1538c <__gettextparse+0x740>
   154a0:	e59d300c 	ldr	r3, [sp, #12]
   154a4:	e583c000 	str	ip, [r3]
   154a8:	eafffdfc 	b	14ca0 <__gettextparse+0x54>
   154ac:	e5d03001 	ldrb	r3, [r0, #1]
   154b0:	e353003d 	cmp	r3, #61	; 0x3d
   154b4:	0a000006 	beq	154d4 <__gettextparse+0x888>
   154b8:	e59d300c 	ldr	r3, [sp, #12]
   154bc:	e3a0100a 	mov	r1, #10
   154c0:	e3a0b021 	mov	fp, #33	; 0x21
   154c4:	e583c000 	str	ip, [r3]
   154c8:	eafffdf8 	b	14cb0 <__gettextparse+0x64>
   154cc:	e3a04002 	mov	r4, #2
   154d0:	eafffe37 	b	14db4 <__gettextparse+0x168>
   154d4:	e59d300c 	ldr	r3, [sp, #12]
   154d8:	e2800002 	add	r0, r0, #2
   154dc:	e3a01006 	mov	r1, #6
   154e0:	e5830000 	str	r0, [r3]
   154e4:	e3a0300d 	mov	r3, #13
   154e8:	e58d3014 	str	r3, [sp, #20]
   154ec:	e59fb064 	ldr	fp, [pc, #100]	; 15558 <__gettextparse+0x90c>
   154f0:	eafffdee 	b	14cb0 <__gettextparse+0x64>
   154f4:	e59d8004 	ldr	r8, [sp, #4]
   154f8:	e3a04001 	mov	r4, #1
   154fc:	eafffe2c 	b	14db4 <__gettextparse+0x168>
   15500:	e0872002 	add	r2, r7, r2
   15504:	e6bf1071 	sxth	r1, r1
   15508:	e5d2c1c0 	ldrb	ip, [r2, #448]	; 0x1c0
   1550c:	e1a0e101 	lsl	lr, r1, #2
   15510:	e1a02081 	lsl	r2, r1, #1
   15514:	e24c1010 	sub	r1, ip, #16
   15518:	e087c001 	add	ip, r7, r1
   1551c:	e28cce1d 	add	ip, ip, #464	; 0x1d0
   15520:	e26ee000 	rsb	lr, lr, #0
   15524:	e1dc60d0 	ldrsb	r6, [ip]
   15528:	e2622000 	rsb	r2, r2, #0
   1552c:	eafffe34 	b	14e04 <__gettextparse+0x1b8>
   15530:	e3e06000 	mvn	r6, #0
   15534:	e3a01002 	mov	r1, #2
   15538:	e3e02001 	mvn	r2, #1
   1553c:	e3e0e003 	mvn	lr, #3
   15540:	eafffe2f 	b	14e04 <__gettextparse+0x1b8>
   15544:	0006fd30 	.word	0x0006fd30
   15548:	0000270f 	.word	0x0000270f
   1554c:	00002710 	.word	0x00002710
   15550:	00000105 	.word	0x00000105
   15554:	00000103 	.word	0x00000103
   15558:	00000102 	.word	0x00000102
   1555c:	00000106 	.word	0x00000106

00015560 <__gettext_extract_plural>:
   15560:	e92d40f0 	push	{r4, r5, r6, r7, lr}
   15564:	e2504000 	subs	r4, r0, #0
   15568:	e24dd014 	sub	sp, sp, #20
   1556c:	e1a06001 	mov	r6, r1
   15570:	e1a05002 	mov	r5, r2
   15574:	0a00002b 	beq	15628 <__gettext_extract_plural+0xc8>
   15578:	e59f10cc 	ldr	r1, [pc, #204]	; 1564c <__gettext_extract_plural+0xec>
   1557c:	eb0041f1 	bl	25d48 <strstr>
   15580:	e59f10c8 	ldr	r1, [pc, #200]	; 15650 <__gettext_extract_plural+0xf0>
   15584:	e1a07000 	mov	r7, r0
   15588:	e1a00004 	mov	r0, r4
   1558c:	eb0041ed 	bl	25d48 <strstr>
   15590:	e3500000 	cmp	r0, #0
   15594:	13570000 	cmpne	r7, #0
   15598:	0a000022 	beq	15628 <__gettext_extract_plural+0xc8>
   1559c:	e5d03009 	ldrb	r3, [r0, #9]
   155a0:	e2804009 	add	r4, r0, #9
   155a4:	e3530000 	cmp	r3, #0
   155a8:	0a00001e 	beq	15628 <__gettext_extract_plural+0xc8>
   155ac:	e59f10a0 	ldr	r1, [pc, #160]	; 15654 <__gettext_extract_plural+0xf4>
   155b0:	ebffee62 	bl	10f40 <__aeabi_read_tp>
   155b4:	e1a02083 	lsl	r2, r3, #1
   155b8:	e79f1001 	ldr	r1, [pc, r1]
   155bc:	e7901001 	ldr	r1, [r0, r1]
   155c0:	ea000003 	b	155d4 <__gettext_extract_plural+0x74>
   155c4:	e5f43001 	ldrb	r3, [r4, #1]!
   155c8:	e3530000 	cmp	r3, #0
   155cc:	e1a02083 	lsl	r2, r3, #1
   155d0:	0a000014 	beq	15628 <__gettext_extract_plural+0xc8>
   155d4:	e19120b2 	ldrh	r2, [r1, r2]
   155d8:	e3120a02 	tst	r2, #8192	; 0x2000
   155dc:	1afffff8 	bne	155c4 <__gettext_extract_plural+0x64>
   155e0:	e2433030 	sub	r3, r3, #48	; 0x30
   155e4:	e3530009 	cmp	r3, #9
   155e8:	8a00000e 	bhi	15628 <__gettext_extract_plural+0xc8>
   155ec:	e3a0200a 	mov	r2, #10
   155f0:	e28d1004 	add	r1, sp, #4
   155f4:	e1a00004 	mov	r0, r4
   155f8:	eb00035d 	bl	16374 <__strtoul>
   155fc:	e59d3004 	ldr	r3, [sp, #4]
   15600:	e1530004 	cmp	r3, r4
   15604:	0a000007 	beq	15628 <__gettext_extract_plural+0xc8>
   15608:	e28d3010 	add	r3, sp, #16
   1560c:	e2877007 	add	r7, r7, #7
   15610:	e5850000 	str	r0, [r5]
   15614:	e5237008 	str	r7, [r3, #-8]!
   15618:	e1a00003 	mov	r0, r3
   1561c:	ebfffd8a 	bl	14c4c <__gettextparse>
   15620:	e3500000 	cmp	r0, #0
   15624:	0a000005 	beq	15640 <__gettext_extract_plural+0xe0>
   15628:	e59f2028 	ldr	r2, [pc, #40]	; 15658 <__gettext_extract_plural+0xf8>
   1562c:	e3a03002 	mov	r3, #2
   15630:	e5862000 	str	r2, [r6]
   15634:	e5853000 	str	r3, [r5]
   15638:	e28dd014 	add	sp, sp, #20
   1563c:	e8bd80f0 	pop	{r4, r5, r6, r7, pc}
   15640:	e59d300c 	ldr	r3, [sp, #12]
   15644:	e5863000 	str	r3, [r6]
   15648:	eafffffa 	b	15638 <__gettext_extract_plural+0xd8>
   1564c:	0006ff44 	.word	0x0006ff44
   15650:	0006ff4c 	.word	0x0006ff4c
   15654:	0006f8e8 	.word	0x0006f8e8
   15658:	0006ff08 	.word	0x0006ff08

0001565c <__hash_string>:
   1565c:	e2402001 	sub	r2, r0, #1
   15660:	e3a00000 	mov	r0, #0
   15664:	ea000003 	b	15678 <__hash_string+0x1c>
   15668:	e0830200 	add	r0, r3, r0, lsl #4
   1566c:	e210120f 	ands	r1, r0, #-268435456	; 0xf0000000
   15670:	e3c0320f 	bic	r3, r0, #-268435456	; 0xf0000000
   15674:	10230c21 	eorne	r0, r3, r1, lsr #24
   15678:	e5f23001 	ldrb	r3, [r2, #1]!
   1567c:	e3530000 	cmp	r3, #0
   15680:	1afffff8 	bne	15668 <__hash_string+0xc>
   15684:	e12fff1e 	bx	lr
	...

00015690 <_setjmp>:
   15690:	e3a01000 	mov	r1, #0
   15694:	ea00837d 	b	36490 <__sigsetjmp>

00015698 <abort>:
   15698:	e59f4244 	ldr	r4, [pc, #580]	; 158e4 <abort+0x24c>
   1569c:	e92d4080 	push	{r7, lr}
   156a0:	ebffee26 	bl	10f40 <__aeabi_read_tp>
   156a4:	e5943008 	ldr	r3, [r4, #8]
   156a8:	e2406d13 	sub	r6, r0, #1216	; 0x4c0
   156ac:	e1560003 	cmp	r6, r3
   156b0:	e24dde11 	sub	sp, sp, #272	; 0x110
   156b4:	0a00000b 	beq	156e8 <abort+0x50>
   156b8:	e3a03000 	mov	r3, #0
   156bc:	e58d3084 	str	r3, [sp, #132]	; 0x84
   156c0:	e3a03001 	mov	r3, #1
   156c4:	e1942f9f 	ldrex	r2, [r4]
   156c8:	e3520000 	cmp	r2, #0
   156cc:	1a000003 	bne	156e0 <abort+0x48>
   156d0:	e1841f93 	strex	r1, r3, [r4]
   156d4:	e3510000 	cmp	r1, #0
   156d8:	1afffff9 	bne	156c4 <abort+0x2c>
   156dc:	ee070fba 	mcr	15, 0, r0, cr7, cr10, {5}
   156e0:	1a000015 	bne	1573c <abort+0xa4>
   156e4:	e5846008 	str	r6, [r4, #8]
   156e8:	e5943004 	ldr	r3, [r4, #4]
   156ec:	e594500c 	ldr	r5, [r4, #12]
   156f0:	e2833001 	add	r3, r3, #1
   156f4:	e3550000 	cmp	r5, #0
   156f8:	e5843004 	str	r3, [r4, #4]
   156fc:	0a000012 	beq	1574c <abort+0xb4>
   15700:	e3550001 	cmp	r5, #1
   15704:	0a000062 	beq	15894 <abort+0x1fc>
   15708:	e3550002 	cmp	r5, #2
   1570c:	0a00001c 	beq	15784 <abort+0xec>
   15710:	e3550003 	cmp	r5, #3
   15714:	0a000038 	beq	157fc <abort+0x164>
   15718:	e3550004 	cmp	r5, #4
   1571c:	0a000062 	beq	158ac <abort+0x214>
   15720:	e3550005 	cmp	r5, #5
   15724:	0a000065 	beq	158c0 <abort+0x228>
   15728:	e3550006 	cmp	r5, #6
   1572c:	0a000069 	beq	158d8 <abort+0x240>
   15730:	e3550007 	cmp	r5, #7
   15734:	0a000044 	beq	1584c <abort+0x1b4>
   15738:	e7f000f0 	udf	#0
   1573c:	e1a00004 	mov	r0, r4
   15740:	e58d2084 	str	r2, [sp, #132]	; 0x84
   15744:	eb00517c 	bl	29d3c <__lll_lock_wait_private>
   15748:	eaffffe5 	b	156e4 <abort+0x4c>
   1574c:	e1a01005 	mov	r1, r5
   15750:	e3a07001 	mov	r7, #1
   15754:	e3a02080 	mov	r2, #128	; 0x80
   15758:	e28d0004 	add	r0, sp, #4
   1575c:	e584700c 	str	r7, [r4, #12]
   15760:	eb00449a 	bl	269d0 <memset>
   15764:	e1a02005 	mov	r2, r5
   15768:	e3a03020 	mov	r3, #32
   1576c:	e28d1004 	add	r1, sp, #4
   15770:	e1a00007 	mov	r0, r7
   15774:	e58d3004 	str	r3, [sp, #4]
   15778:	eb0083f1 	bl	36744 <__sigprocmask>
   1577c:	e594500c 	ldr	r5, [r4, #12]
   15780:	eaffffde 	b	15700 <abort+0x68>
   15784:	e5943004 	ldr	r3, [r4, #4]
   15788:	e3a02000 	mov	r2, #0
   1578c:	e2433001 	sub	r3, r3, #1
   15790:	e1530002 	cmp	r3, r2
   15794:	e5843004 	str	r3, [r4, #4]
   15798:	e584200c 	str	r2, [r4, #12]
   1579c:	0a00002e 	beq	1585c <abort+0x1c4>
   157a0:	e3a00006 	mov	r0, #6
   157a4:	eb008365 	bl	36540 <raise>
   157a8:	e5943008 	ldr	r3, [r4, #8]
   157ac:	e1560003 	cmp	r6, r3
   157b0:	0a00000e 	beq	157f0 <abort+0x158>
   157b4:	e3a03000 	mov	r3, #0
   157b8:	e58d3084 	str	r3, [sp, #132]	; 0x84
   157bc:	e3a03001 	mov	r3, #1
   157c0:	e1942f9f 	ldrex	r2, [r4]
   157c4:	e3520000 	cmp	r2, #0
   157c8:	1a000003 	bne	157dc <abort+0x144>
   157cc:	e1841f93 	strex	r1, r3, [r4]
   157d0:	e3510000 	cmp	r1, #0
   157d4:	1afffff9 	bne	157c0 <abort+0x128>
   157d8:	ee070fba 	mcr	15, 0, r0, cr7, cr10, {5}
   157dc:	0a000002 	beq	157ec <abort+0x154>
   157e0:	e59f00fc 	ldr	r0, [pc, #252]	; 158e4 <abort+0x24c>
   157e4:	e58d2084 	str	r2, [sp, #132]	; 0x84
   157e8:	eb005153 	bl	29d3c <__lll_lock_wait_private>
   157ec:	e5846008 	str	r6, [r4, #8]
   157f0:	e5943004 	ldr	r3, [r4, #4]
   157f4:	e2833001 	add	r3, r3, #1
   157f8:	e5843004 	str	r3, [r4, #4]
   157fc:	e3a03004 	mov	r3, #4
   15800:	e3a0208c 	mov	r2, #140	; 0x8c
   15804:	e3a01000 	mov	r1, #0
   15808:	e28d0084 	add	r0, sp, #132	; 0x84
   1580c:	e584300c 	str	r3, [r4, #12]
   15810:	eb00446e 	bl	269d0 <memset>
   15814:	e28d3f42 	add	r3, sp, #264	; 0x108
   15818:	e28d1088 	add	r1, sp, #136	; 0x88
   1581c:	e3e02000 	mvn	r2, #0
   15820:	e5232004 	str	r2, [r3, #-4]!
   15824:	e1530001 	cmp	r3, r1
   15828:	1afffffc 	bne	15820 <abort+0x188>
   1582c:	e3a03000 	mov	r3, #0
   15830:	e28d1084 	add	r1, sp, #132	; 0x84
   15834:	e1a02003 	mov	r2, r3
   15838:	e3a00006 	mov	r0, #6
   1583c:	e58d3108 	str	r3, [sp, #264]	; 0x108
   15840:	eb0083b2 	bl	36710 <__sigaction>
   15844:	e594500c 	ldr	r5, [r4, #12]
   15848:	eaffffb2 	b	15718 <abort+0x80>
   1584c:	e3a03008 	mov	r3, #8
   15850:	e3a0007f 	mov	r0, #127	; 0x7f
   15854:	e584300c 	str	r3, [r4, #12]
   15858:	eb00469e 	bl	272d8 <_exit>
   1585c:	e5843008 	str	r3, [r4, #8]
   15860:	ee070fba 	mcr	15, 0, r0, cr7, cr10, {5}
   15864:	e1942f9f 	ldrex	r2, [r4]
   15868:	e1841f93 	strex	r1, r3, [r4]
   1586c:	e3510000 	cmp	r1, #0
   15870:	1afffffb 	bne	15864 <abort+0x1cc>
   15874:	e3520001 	cmp	r2, #1
   15878:	daffffc8 	ble	157a0 <abort+0x108>
   1587c:	e59f0060 	ldr	r0, [pc, #96]	; 158e4 <abort+0x24c>
   15880:	e3a01081 	mov	r1, #129	; 0x81
   15884:	e3a02001 	mov	r2, #1
   15888:	e3a070f0 	mov	r7, #240	; 0xf0
   1588c:	ef000000 	svc	0x00000000
   15890:	eaffffc2 	b	157a0 <abort+0x108>
   15894:	e3a03002 	mov	r3, #2
   15898:	e3a00000 	mov	r0, #0
   1589c:	e584300c 	str	r3, [r4, #12]
   158a0:	eb001f2a 	bl	1d550 <_IO_flush_all_lockp>
   158a4:	e594500c 	ldr	r5, [r4, #12]
   158a8:	eaffff96 	b	15708 <abort+0x70>
   158ac:	e3a03005 	mov	r3, #5
   158b0:	e584300c 	str	r3, [r4, #12]
   158b4:	eb000f6d 	bl	19670 <__fcloseall>
   158b8:	e594500c 	ldr	r5, [r4, #12]
   158bc:	eaffff97 	b	15720 <abort+0x88>
   158c0:	e3a03006 	mov	r3, #6
   158c4:	e1a00003 	mov	r0, r3
   158c8:	e584300c 	str	r3, [r4, #12]
   158cc:	eb00831b 	bl	36540 <raise>
   158d0:	e594500c 	ldr	r5, [r4, #12]
   158d4:	eaffff93 	b	15728 <abort+0x90>
   158d8:	e3a03007 	mov	r3, #7
   158dc:	e584300c 	str	r3, [r4, #12]
   158e0:	e7f000f0 	udf	#0
   158e4:	00085ff0 	.word	0x00085ff0

000158e8 <msort_with_tmp.part.0>:
   158e8:	e92d4ff0 	push	{r4, r5, r6, r7, r8, r9, sl, fp, lr}
   158ec:	e1a060a2 	lsr	r6, r2, #1
   158f0:	e5905000 	ldr	r5, [r0]
   158f4:	e24dd014 	sub	sp, sp, #20
   158f8:	e3560001 	cmp	r6, #1
   158fc:	e58d0004 	str	r0, [sp, #4]
   15900:	e58d200c 	str	r2, [sp, #12]
   15904:	e58d1008 	str	r1, [sp, #8]
   15908:	e042b006 	sub	fp, r2, r6
   1590c:	e0251695 	mla	r5, r5, r6, r1
   15910:	9a000001 	bls	1591c <msort_with_tmp.part.0+0x34>
   15914:	e1a02006 	mov	r2, r6
   15918:	ebfffff2 	bl	158e8 <msort_with_tmp.part.0>
   1591c:	e35b0001 	cmp	fp, #1
   15920:	9a000003 	bls	15934 <msort_with_tmp.part.0+0x4c>
   15924:	e1a0200b 	mov	r2, fp
   15928:	e1a01005 	mov	r1, r5
   1592c:	e59d0004 	ldr	r0, [sp, #4]
   15930:	ebffffec 	bl	158e8 <msort_with_tmp.part.0>
   15934:	e59d3004 	ldr	r3, [sp, #4]
   15938:	e59d7008 	ldr	r7, [sp, #8]
   1593c:	e5932004 	ldr	r2, [r3, #4]
   15940:	e5934010 	ldr	r4, [r3, #16]
   15944:	e5938000 	ldr	r8, [r3]
   15948:	e593a008 	ldr	sl, [r3, #8]
   1594c:	e593900c 	ldr	r9, [r3, #12]
   15950:	e3520003 	cmp	r2, #3
   15954:	979ff102 	ldrls	pc, [pc, r2, lsl #2]
   15958:	ea000020 	b	159e0 <msort_with_tmp.part.0+0xf8>
   1595c:	00015aec 	.word	0x00015aec
   15960:	00015a98 	.word	0x00015a98
   15964:	00015970 	.word	0x00015970
   15968:	00015a24 	.word	0x00015a24
   1596c:	e1a04001 	mov	r4, r1
   15970:	e3560000 	cmp	r6, #0
   15974:	135b0000 	cmpne	fp, #0
   15978:	0a00002c 	beq	15a30 <msort_with_tmp.part.0+0x148>
   1597c:	e1a01005 	mov	r1, r5
   15980:	e1a00007 	mov	r0, r7
   15984:	e1a02009 	mov	r2, r9
   15988:	e12fff3a 	blx	sl
   1598c:	e0841008 	add	r1, r4, r8
   15990:	e3500000 	cmp	r0, #0
   15994:	c1a03005 	movgt	r3, r5
   15998:	d1a03007 	movle	r3, r7
   1599c:	c24bb001 	subgt	fp, fp, #1
   159a0:	c0855008 	addgt	r5, r5, r8
   159a4:	d2466001 	suble	r6, r6, #1
   159a8:	d0877008 	addle	r7, r7, r8
   159ac:	e1540001 	cmp	r4, r1
   159b0:	2affffed 	bcs	1596c <msort_with_tmp.part.0+0x84>
   159b4:	e4932004 	ldr	r2, [r3], #4
   159b8:	e4842004 	str	r2, [r4], #4
   159bc:	e1510004 	cmp	r1, r4
   159c0:	8afffffb 	bhi	159b4 <msort_with_tmp.part.0+0xcc>
   159c4:	e1a04001 	mov	r4, r1
   159c8:	eaffffe8 	b	15970 <msort_with_tmp.part.0+0x88>
   159cc:	e1a01007 	mov	r1, r7
   159d0:	eb00442e 	bl	26a90 <memcpy>
   159d4:	e2466001 	sub	r6, r6, #1
   159d8:	e0877008 	add	r7, r7, r8
   159dc:	e0804008 	add	r4, r0, r8
   159e0:	e3560000 	cmp	r6, #0
   159e4:	135b0000 	cmpne	fp, #0
   159e8:	e1a01005 	mov	r1, r5
   159ec:	e1a02009 	mov	r2, r9
   159f0:	e1a00007 	mov	r0, r7
   159f4:	0a00000d 	beq	15a30 <msort_with_tmp.part.0+0x148>
   159f8:	e12fff3a 	blx	sl
   159fc:	e1a01005 	mov	r1, r5
   15a00:	e1a02008 	mov	r2, r8
   15a04:	e3500000 	cmp	r0, #0
   15a08:	e1a00004 	mov	r0, r4
   15a0c:	daffffee 	ble	159cc <msort_with_tmp.part.0+0xe4>
   15a10:	eb00441e 	bl	26a90 <memcpy>
   15a14:	e0855008 	add	r5, r5, r8
   15a18:	e24bb001 	sub	fp, fp, #1
   15a1c:	e0804008 	add	r4, r0, r8
   15a20:	eaffffee 	b	159e0 <msort_with_tmp.part.0+0xf8>
   15a24:	e35b0000 	cmp	fp, #0
   15a28:	13560000 	cmpne	r6, #0
   15a2c:	1a00000a 	bne	15a5c <msort_with_tmp.part.0+0x174>
   15a30:	e3560000 	cmp	r6, #0
   15a34:	1a00003e 	bne	15b34 <msort_with_tmp.part.0+0x24c>
   15a38:	e59d300c 	ldr	r3, [sp, #12]
   15a3c:	e59d0008 	ldr	r0, [sp, #8]
   15a40:	e043200b 	sub	r2, r3, fp
   15a44:	e59d3004 	ldr	r3, [sp, #4]
   15a48:	e0020298 	mul	r2, r8, r2
   15a4c:	e5931010 	ldr	r1, [r3, #16]
   15a50:	e28dd014 	add	sp, sp, #20
   15a54:	e8bd4ff0 	pop	{r4, r5, r6, r7, r8, r9, sl, fp, lr}
   15a58:	ea00440c 	b	26a90 <memcpy>
   15a5c:	e5951000 	ldr	r1, [r5]
   15a60:	e5970000 	ldr	r0, [r7]
   15a64:	e1a02009 	mov	r2, r9
   15a68:	e12fff3a 	blx	sl
   15a6c:	e2844004 	add	r4, r4, #4
   15a70:	e3500000 	cmp	r0, #0
   15a74:	d2466001 	suble	r6, r6, #1
   15a78:	d4973004 	ldrle	r3, [r7], #4
   15a7c:	c4953004 	ldrgt	r3, [r5], #4
   15a80:	c24bb001 	subgt	fp, fp, #1
   15a84:	e3560000 	cmp	r6, #0
   15a88:	135b0000 	cmpne	fp, #0
   15a8c:	e5043004 	str	r3, [r4, #-4]
   15a90:	1afffff1 	bne	15a5c <msort_with_tmp.part.0+0x174>
   15a94:	eaffffe5 	b	15a30 <msort_with_tmp.part.0+0x148>
   15a98:	e35b0000 	cmp	fp, #0
   15a9c:	13560000 	cmpne	r6, #0
   15aa0:	1a000007 	bne	15ac4 <msort_with_tmp.part.0+0x1dc>
   15aa4:	eaffffe1 	b	15a30 <msort_with_tmp.part.0+0x148>
   15aa8:	e0c520d8 	ldrd	r2, [r5], #8
   15aac:	e24bb001 	sub	fp, fp, #1
   15ab0:	e1c420f0 	strd	r2, [r4]
   15ab4:	e3560000 	cmp	r6, #0
   15ab8:	135b0000 	cmpne	fp, #0
   15abc:	e2844008 	add	r4, r4, #8
   15ac0:	0affffda 	beq	15a30 <msort_with_tmp.part.0+0x148>
   15ac4:	e1a02009 	mov	r2, r9
   15ac8:	e1a01005 	mov	r1, r5
   15acc:	e1a00007 	mov	r0, r7
   15ad0:	e12fff3a 	blx	sl
   15ad4:	e3500000 	cmp	r0, #0
   15ad8:	cafffff2 	bgt	15aa8 <msort_with_tmp.part.0+0x1c0>
   15adc:	e0c720d8 	ldrd	r2, [r7], #8
   15ae0:	e2466001 	sub	r6, r6, #1
   15ae4:	e1c420f0 	strd	r2, [r4]
   15ae8:	eafffff1 	b	15ab4 <msort_with_tmp.part.0+0x1cc>
   15aec:	e35b0000 	cmp	fp, #0
   15af0:	13560000 	cmpne	r6, #0
   15af4:	0affffcd 	beq	15a30 <msort_with_tmp.part.0+0x148>
   15af8:	e1a01005 	mov	r1, r5
   15afc:	e1a00007 	mov	r0, r7
   15b00:	e1a02009 	mov	r2, r9
   15b04:	e12fff3a 	blx	sl
   15b08:	e2844004 	add	r4, r4, #4
   15b0c:	e3500000 	cmp	r0, #0
   15b10:	d2466001 	suble	r6, r6, #1
   15b14:	d4973004 	ldrle	r3, [r7], #4
   15b18:	c4953004 	ldrgt	r3, [r5], #4
   15b1c:	c24bb001 	subgt	fp, fp, #1
   15b20:	e3560000 	cmp	r6, #0
   15b24:	135b0000 	cmpne	fp, #0
   15b28:	e5043004 	str	r3, [r4, #-4]
   15b2c:	1afffff1 	bne	15af8 <msort_with_tmp.part.0+0x210>
   15b30:	eaffffbe 	b	15a30 <msort_with_tmp.part.0+0x148>
   15b34:	e0020896 	mul	r2, r6, r8
   15b38:	e1a01007 	mov	r1, r7
   15b3c:	e1a00004 	mov	r0, r4
   15b40:	eb0043d2 	bl	26a90 <memcpy>
   15b44:	eaffffbb 	b	15a38 <msort_with_tmp.part.0+0x150>

00015b48 <__qsort_r>:
   15b48:	e92d4ff0 	push	{r4, r5, r6, r7, r8, r9, sl, fp, lr}
   15b4c:	e3520020 	cmp	r2, #32
   15b50:	e28db020 	add	fp, sp, #32
   15b54:	e1a06003 	mov	r6, r3
   15b58:	91a03001 	movls	r3, r1
   15b5c:	e24dd03c 	sub	sp, sp, #60	; 0x3c
   15b60:	e50b104c 	str	r1, [fp, #-76]	; 0xffffffb4
   15b64:	851b304c 	ldrhi	r3, [fp, #-76]	; 0xffffffb4
   15b68:	90040392 	mulls	r4, r2, r3
   15b6c:	80824183 	addhi	r4, r2, r3, lsl #3
   15b70:	e3540b01 	cmp	r4, #1024	; 0x400
   15b74:	e1a07002 	mov	r7, r2
   15b78:	e50b0040 	str	r0, [fp, #-64]	; 0xffffffc0
   15b7c:	3a000089 	bcc	15da8 <__qsort_r+0x260>
   15b80:	e59f52b0 	ldr	r5, [pc, #688]	; 15e38 <__qsort_r+0x2f0>
   15b84:	e5951000 	ldr	r1, [r5]
   15b88:	e3510000 	cmp	r1, #0
   15b8c:	0a00008d 	beq	15dc8 <__qsort_r+0x280>
   15b90:	e1a00004 	mov	r0, r4
   15b94:	eb015c20 	bl	6cc1c <__udivsi3>
   15b98:	e5953004 	ldr	r3, [r5, #4]
   15b9c:	e1500003 	cmp	r0, r3
   15ba0:	8a000062 	bhi	15d30 <__qsort_r+0x1e8>
   15ba4:	e59f3290 	ldr	r3, [pc, #656]	; 15e3c <__qsort_r+0x2f4>
   15ba8:	ebffece4 	bl	10f40 <__aeabi_read_tp>
   15bac:	e1a05000 	mov	r5, r0
   15bb0:	e79f3003 	ldr	r3, [pc, r3]
   15bb4:	e1a00004 	mov	r0, r4
   15bb8:	e7954003 	ldr	r4, [r5, r3]
   15bbc:	eb003506 	bl	22fdc <__libc_malloc>
   15bc0:	e59f3278 	ldr	r3, [pc, #632]	; 15e40 <__qsort_r+0x2f8>
   15bc4:	e79f3003 	ldr	r3, [pc, r3]
   15bc8:	e7854003 	str	r4, [r5, r3]
   15bcc:	e2503000 	subs	r3, r0, #0
   15bd0:	e50b3054 	str	r3, [fp, #-84]	; 0xffffffac
   15bd4:	0a000055 	beq	15d30 <__qsort_r+0x1e8>
   15bd8:	e50b3028 	str	r3, [fp, #-40]	; 0xffffffd8
   15bdc:	e59b2004 	ldr	r2, [fp, #4]
   15be0:	e3a03004 	mov	r3, #4
   15be4:	e3570020 	cmp	r7, #32
   15be8:	e50b7038 	str	r7, [fp, #-56]	; 0xffffffc8
   15bec:	e50b6030 	str	r6, [fp, #-48]	; 0xffffffd0
   15bf0:	e50b202c 	str	r2, [fp, #-44]	; 0xffffffd4
   15bf4:	e50b3034 	str	r3, [fp, #-52]	; 0xffffffcc
   15bf8:	9a000055 	bls	15d54 <__qsort_r+0x20c>
   15bfc:	e51b304c 	ldr	r3, [fp, #-76]	; 0xffffffb4
   15c00:	e51b6028 	ldr	r6, [fp, #-40]	; 0xffffffd8
   15c04:	e1a01103 	lsl	r1, r3, #2
   15c08:	e0866001 	add	r6, r6, r1
   15c0c:	e0863001 	add	r3, r6, r1
   15c10:	e1560003 	cmp	r6, r3
   15c14:	e1a00003 	mov	r0, r3
   15c18:	e50b3050 	str	r3, [fp, #-80]	; 0xffffffb0
   15c1c:	2a000083 	bcs	15e30 <__qsort_r+0x2e8>
   15c20:	e51b3040 	ldr	r3, [fp, #-64]	; 0xffffffc0
   15c24:	e1a02006 	mov	r2, r6
   15c28:	e4823004 	str	r3, [r2], #4
   15c2c:	e1500002 	cmp	r0, r2
   15c30:	e0833007 	add	r3, r3, r7
   15c34:	8afffffb 	bhi	15c28 <__qsort_r+0xe0>
   15c38:	e51b3028 	ldr	r3, [fp, #-40]	; 0xffffffd8
   15c3c:	e0831001 	add	r1, r3, r1
   15c40:	e51b004c 	ldr	r0, [fp, #-76]	; 0xffffffb4
   15c44:	e3a02004 	mov	r2, #4
   15c48:	e3a03003 	mov	r3, #3
   15c4c:	e3500001 	cmp	r0, #1
   15c50:	e50b2038 	str	r2, [fp, #-56]	; 0xffffffc8
   15c54:	e50b3034 	str	r3, [fp, #-52]	; 0xffffffcc
   15c58:	9a00006a 	bls	15e08 <__qsort_r+0x2c0>
   15c5c:	e1a02000 	mov	r2, r0
   15c60:	e24b0038 	sub	r0, fp, #56	; 0x38
   15c64:	ebffff1f 	bl	158e8 <msort_with_tmp.part.0>
   15c68:	e51b8040 	ldr	r8, [fp, #-64]	; 0xffffffc0
   15c6c:	e2463004 	sub	r3, r6, #4
   15c70:	e50b3048 	str	r3, [fp, #-72]	; 0xffffffb8
   15c74:	e3a03000 	mov	r3, #0
   15c78:	e50b3044 	str	r3, [fp, #-68]	; 0xffffffbc
   15c7c:	e51b3048 	ldr	r3, [fp, #-72]	; 0xffffffb8
   15c80:	e5b34004 	ldr	r4, [r3, #4]!
   15c84:	e1540008 	cmp	r4, r8
   15c88:	e50b3048 	str	r3, [fp, #-72]	; 0xffffffb8
   15c8c:	0a00001c 	beq	15d04 <__qsort_r+0x1bc>
   15c90:	e1a02007 	mov	r2, r7
   15c94:	e1a01008 	mov	r1, r8
   15c98:	e51b0050 	ldr	r0, [fp, #-80]	; 0xffffffb0
   15c9c:	eb00437b 	bl	26a90 <memcpy>
   15ca0:	e1a09008 	mov	r9, r8
   15ca4:	e51ba044 	ldr	sl, [fp, #-68]	; 0xffffffbc
   15ca8:	ea000000 	b	15cb0 <__qsort_r+0x168>
   15cac:	e1a04003 	mov	r4, r3
   15cb0:	e51b3040 	ldr	r3, [fp, #-64]	; 0xffffffc0
   15cb4:	e1a01007 	mov	r1, r7
   15cb8:	e0440003 	sub	r0, r4, r3
   15cbc:	eb015bd6 	bl	6cc1c <__udivsi3>
   15cc0:	e786910a 	str	r9, [r6, sl, lsl #2]
   15cc4:	e1a02007 	mov	r2, r7
   15cc8:	e1a01004 	mov	r1, r4
   15ccc:	e1a05000 	mov	r5, r0
   15cd0:	e1a00009 	mov	r0, r9
   15cd4:	eb00436d 	bl	26a90 <memcpy>
   15cd8:	e7963105 	ldr	r3, [r6, r5, lsl #2]
   15cdc:	e0860105 	add	r0, r6, r5, lsl #2
   15ce0:	e1530008 	cmp	r3, r8
   15ce4:	e1a0a005 	mov	sl, r5
   15ce8:	e1a09004 	mov	r9, r4
   15cec:	1affffee 	bne	15cac <__qsort_r+0x164>
   15cf0:	e5804000 	str	r4, [r0]
   15cf4:	e1a02007 	mov	r2, r7
   15cf8:	e1a00004 	mov	r0, r4
   15cfc:	e51b1050 	ldr	r1, [fp, #-80]	; 0xffffffb0
   15d00:	eb004362 	bl	26a90 <memcpy>
   15d04:	e51b3044 	ldr	r3, [fp, #-68]	; 0xffffffbc
   15d08:	e51b204c 	ldr	r2, [fp, #-76]	; 0xffffffb4
   15d0c:	e2833001 	add	r3, r3, #1
   15d10:	e1520003 	cmp	r2, r3
   15d14:	e50b3044 	str	r3, [fp, #-68]	; 0xffffffbc
   15d18:	e0888007 	add	r8, r8, r7
   15d1c:	1affffd6 	bne	15c7c <__qsort_r+0x134>
   15d20:	e51b0054 	ldr	r0, [fp, #-84]	; 0xffffffac
   15d24:	eb003626 	bl	235c4 <__cfree>
   15d28:	e24bd020 	sub	sp, fp, #32
   15d2c:	e8bd8ff0 	pop	{r4, r5, r6, r7, r8, r9, sl, fp, pc}
   15d30:	e59b3004 	ldr	r3, [fp, #4]
   15d34:	e1a02007 	mov	r2, r7
   15d38:	e58d3000 	str	r3, [sp]
   15d3c:	e51b104c 	ldr	r1, [fp, #-76]	; 0xffffffb4
   15d40:	e1a03006 	mov	r3, r6
   15d44:	e51b0040 	ldr	r0, [fp, #-64]	; 0xffffffc0
   15d48:	eb0082b2 	bl	36818 <_quicksort>
   15d4c:	e24bd020 	sub	sp, fp, #32
   15d50:	e8bd8ff0 	pop	{r4, r5, r6, r7, r8, r9, sl, fp, pc}
   15d54:	e3170003 	tst	r7, #3
   15d58:	1a000008 	bne	15d80 <__qsort_r+0x238>
   15d5c:	e51b3040 	ldr	r3, [fp, #-64]	; 0xffffffc0
   15d60:	e2133003 	ands	r3, r3, #3
   15d64:	1a000005 	bne	15d80 <__qsort_r+0x238>
   15d68:	e3570004 	cmp	r7, #4
   15d6c:	0a000002 	beq	15d7c <__qsort_r+0x234>
   15d70:	e3570008 	cmp	r7, #8
   15d74:	0a000027 	beq	15e18 <__qsort_r+0x2d0>
   15d78:	e3a03002 	mov	r3, #2
   15d7c:	e50b3034 	str	r3, [fp, #-52]	; 0xffffffcc
   15d80:	e51b304c 	ldr	r3, [fp, #-76]	; 0xffffffb4
   15d84:	e3530001 	cmp	r3, #1
   15d88:	9affffe4 	bls	15d20 <__qsort_r+0x1d8>
   15d8c:	e24b0038 	sub	r0, fp, #56	; 0x38
   15d90:	e1a02003 	mov	r2, r3
   15d94:	e51b1040 	ldr	r1, [fp, #-64]	; 0xffffffc0
   15d98:	ebfffed2 	bl	158e8 <msort_with_tmp.part.0>
   15d9c:	e51b0054 	ldr	r0, [fp, #-84]	; 0xffffffac
   15da0:	eb003607 	bl	235c4 <__cfree>
   15da4:	eaffffdf 	b	15d28 <__qsort_r+0x1e0>
   15da8:	e284300e 	add	r3, r4, #14
   15dac:	e3c33007 	bic	r3, r3, #7
   15db0:	e04dd003 	sub	sp, sp, r3
   15db4:	e28d3008 	add	r3, sp, #8
   15db8:	e50b3028 	str	r3, [fp, #-40]	; 0xffffffd8
   15dbc:	e3a03000 	mov	r3, #0
   15dc0:	e50b3054 	str	r3, [fp, #-84]	; 0xffffffac
   15dc4:	eaffff84 	b	15bdc <__qsort_r+0x94>
   15dc8:	e3a00055 	mov	r0, #85	; 0x55
   15dcc:	eb00455b 	bl	27340 <__sysconf>
   15dd0:	e3700001 	cmn	r0, #1
   15dd4:	03e0320e 	mvneq	r3, #-536870912	; 0xe0000000
   15dd8:	0a000003 	beq	15dec <__qsort_r+0x2a4>
   15ddc:	e2803003 	add	r3, r0, #3
   15de0:	e3500000 	cmp	r0, #0
   15de4:	b1a00003 	movlt	r0, r3
   15de8:	e1a03140 	asr	r3, r0, #2
   15dec:	e5853004 	str	r3, [r5, #4]
   15df0:	e3a0001e 	mov	r0, #30
   15df4:	ee070fba 	mcr	15, 0, r0, cr7, cr10, {5}
   15df8:	eb004550 	bl	27340 <__sysconf>
   15dfc:	e1a01000 	mov	r1, r0
   15e00:	e5850000 	str	r0, [r5]
